---
triple:          'arm64-apple-darwin'
binary-path:     '/Users/glenn/work/orion-sdr/target/debug/deps/liborion_sdr.dylib'
relocations:
  - { offset: 0x1E, size: 0x8, addend: 0x0, symName: '__ZN4core3cmp5impls69_$LT$impl$u20$core..cmp..PartialEq$LT$$RF$B$GT$$u20$for$u20$$RF$A$GT$2eq17he7eee7748bd3dd96E', symObjAddr: 0x0, symBinAddr: 0x880, symSize: 0x34 }
  - { offset: 0x3F, size: 0x8, addend: 0x0, symName: '__ZN4core3cmp5impls69_$LT$impl$u20$core..cmp..PartialEq$LT$$RF$B$GT$$u20$for$u20$$RF$A$GT$2eq17he7eee7748bd3dd96E', symObjAddr: 0x0, symBinAddr: 0x880, symSize: 0x34 }
  - { offset: 0xD8, size: 0x8, addend: 0x0, symName: __ZN4pyo311type_object10PyTypeInfo10is_type_of17h2c90bebbe53b370aE, symObjAddr: 0x0, symBinAddr: 0x8B4, symSize: 0x50 }
  - { offset: 0x179, size: 0x8, addend: 0x0, symName: __ZN4pyo311type_object10PyTypeInfo10is_type_of17h2c90bebbe53b370aE, symObjAddr: 0x0, symBinAddr: 0x8B4, symSize: 0x50 }
  - { offset: 0x1AE, size: 0x8, addend: 0x0, symName: __ZN4pyo311type_object10PyTypeInfo10is_type_of17h8426f084f7fd64d2E, symObjAddr: 0x50, symBinAddr: 0x904, symSize: 0x50 }
  - { offset: 0x1E3, size: 0x8, addend: 0x0, symName: __ZN4pyo311type_object10PyTypeInfo10is_type_of17h888f7c4b7ad08749E, symObjAddr: 0xA0, symBinAddr: 0x954, symSize: 0x50 }
  - { offset: 0x218, size: 0x8, addend: 0x0, symName: __ZN4pyo311type_object10PyTypeInfo10is_type_of17h89185f41c1ca9e57E, symObjAddr: 0xF0, symBinAddr: 0x9A4, symSize: 0x50 }
  - { offset: 0x24D, size: 0x8, addend: 0x0, symName: __ZN4pyo311type_object10PyTypeInfo11type_object17h172f770daa83ca18E, symObjAddr: 0x140, symBinAddr: 0x9F4, symSize: 0x30 }
  - { offset: 0x28D, size: 0x8, addend: 0x0, symName: __ZN4pyo311type_object10PyTypeInfo11type_object17h754d629b1242fa17E, symObjAddr: 0x170, symBinAddr: 0xA24, symSize: 0x30 }
  - { offset: 0x2CD, size: 0x8, addend: 0x0, symName: __ZN4pyo311type_object10PyTypeInfo11type_object17h8b901241935c53e2E, symObjAddr: 0x1A0, symBinAddr: 0xA54, symSize: 0x30 }
  - { offset: 0x30D, size: 0x8, addend: 0x0, symName: __ZN4pyo311type_object10PyTypeInfo11type_object17hf4d6d40c6c95ffc2E, symObjAddr: 0x1D0, symBinAddr: 0xA84, symSize: 0x30 }
  - { offset: 0x353, size: 0x8, addend: 0x0, symName: '__ZN52_$LT$T$u20$as$u20$pyo3..type_object..PyTypeCheck$GT$10type_check17h657e009ff7bd3460E', symObjAddr: 0x350, symBinAddr: 0xC04, symSize: 0x24 }
  - { offset: 0x388, size: 0x8, addend: 0x0, symName: '__ZN52_$LT$T$u20$as$u20$pyo3..type_object..PyTypeCheck$GT$10type_check17h8f774371c25b43dbE', symObjAddr: 0x374, symBinAddr: 0xC28, symSize: 0x24 }
  - { offset: 0x3BD, size: 0x8, addend: 0x0, symName: '__ZN52_$LT$T$u20$as$u20$pyo3..type_object..PyTypeCheck$GT$10type_check17h9179f281cf819d5bE', symObjAddr: 0x398, symBinAddr: 0xC4C, symSize: 0x24 }
  - { offset: 0x3F2, size: 0x8, addend: 0x0, symName: '__ZN52_$LT$T$u20$as$u20$pyo3..type_object..PyTypeCheck$GT$10type_check17hb163300de9326d26E', symObjAddr: 0x3BC, symBinAddr: 0xC70, symSize: 0x24 }
  - { offset: 0x427, size: 0x8, addend: 0x0, symName: '__ZN52_$LT$T$u20$as$u20$pyo3..type_object..PyTypeCheck$GT$16classinfo_object17h0e0ea0c4258ace0dE', symObjAddr: 0x3E0, symBinAddr: 0xC94, symSize: 0x20 }
  - { offset: 0x467, size: 0x8, addend: 0x0, symName: '__ZN52_$LT$T$u20$as$u20$pyo3..type_object..PyTypeCheck$GT$16classinfo_object17h4e69a355e6fef0bdE', symObjAddr: 0x400, symBinAddr: 0xCB4, symSize: 0x20 }
  - { offset: 0x4A7, size: 0x8, addend: 0x0, symName: '__ZN52_$LT$T$u20$as$u20$pyo3..type_object..PyTypeCheck$GT$16classinfo_object17h5f122a0ec6b74818E', symObjAddr: 0x420, symBinAddr: 0xCD4, symSize: 0x20 }
  - { offset: 0x4E7, size: 0x8, addend: 0x0, symName: '__ZN52_$LT$T$u20$as$u20$pyo3..type_object..PyTypeCheck$GT$16classinfo_object17hc22486ed21910c5eE', symObjAddr: 0x440, symBinAddr: 0xCF4, symSize: 0x20 }
  - { offset: 0x538, size: 0x8, addend: 0x0, symName: __ZN4pyo35impl_7pyclass11PyClassImpl11dict_offset17h2e96b80006d79745E, symObjAddr: 0x200, symBinAddr: 0xAB4, symSize: 0x1C }
  - { offset: 0x55F, size: 0x8, addend: 0x0, symName: __ZN4pyo35impl_7pyclass11PyClassImpl11dict_offset17h79d5b13fd32ce977E, symObjAddr: 0x21C, symBinAddr: 0xAD0, symSize: 0x1C }
  - { offset: 0x586, size: 0x8, addend: 0x0, symName: __ZN4pyo35impl_7pyclass11PyClassImpl11dict_offset17h8a3b4db9c8fa4e84E, symObjAddr: 0x238, symBinAddr: 0xAEC, symSize: 0x1C }
  - { offset: 0x5AD, size: 0x8, addend: 0x0, symName: __ZN4pyo35impl_7pyclass11PyClassImpl11dict_offset17ha12c4cab24293a53E, symObjAddr: 0x254, symBinAddr: 0xB08, symSize: 0x1C }
  - { offset: 0x5D4, size: 0x8, addend: 0x0, symName: __ZN4pyo35impl_7pyclass11PyClassImpl11dict_offset17hcfaedc812cae15afE, symObjAddr: 0x270, symBinAddr: 0xB24, symSize: 0x1C }
  - { offset: 0x5FB, size: 0x8, addend: 0x0, symName: __ZN4pyo35impl_7pyclass11PyClassImpl11dict_offset17he33214812fec41a1E, symObjAddr: 0x28C, symBinAddr: 0xB40, symSize: 0x1C }
  - { offset: 0x622, size: 0x8, addend: 0x0, symName: __ZN4pyo35impl_7pyclass11PyClassImpl15weaklist_offset17h2455ecad277f34ffE, symObjAddr: 0x2A8, symBinAddr: 0xB5C, symSize: 0x1C }
  - { offset: 0x649, size: 0x8, addend: 0x0, symName: __ZN4pyo35impl_7pyclass11PyClassImpl15weaklist_offset17h754879e3d920d788E, symObjAddr: 0x2C4, symBinAddr: 0xB78, symSize: 0x1C }
  - { offset: 0x670, size: 0x8, addend: 0x0, symName: __ZN4pyo35impl_7pyclass11PyClassImpl15weaklist_offset17h77db7d40a2e87472E, symObjAddr: 0x2E0, symBinAddr: 0xB94, symSize: 0x1C }
  - { offset: 0x697, size: 0x8, addend: 0x0, symName: __ZN4pyo35impl_7pyclass11PyClassImpl15weaklist_offset17hd6edc6fb656e34dcE, symObjAddr: 0x2FC, symBinAddr: 0xBB0, symSize: 0x1C }
  - { offset: 0x6BE, size: 0x8, addend: 0x0, symName: __ZN4pyo35impl_7pyclass11PyClassImpl15weaklist_offset17hd83e475adb13a7c7E, symObjAddr: 0x318, symBinAddr: 0xBCC, symSize: 0x1C }
  - { offset: 0x6E5, size: 0x8, addend: 0x0, symName: __ZN4pyo35impl_7pyclass11PyClassImpl15weaklist_offset17hfe7234e76c2b1914E, symObjAddr: 0x334, symBinAddr: 0xBE8, symSize: 0x1C }
  - { offset: 0x774, size: 0x8, addend: 0x0, symName: '__ZN73_$LT$T$u20$as$u20$pyo3..impl_..pyclass_init..PyClassInit$LT$_$C$_$GT$$GT$4init17h0f07b26a75dfede6E', symObjAddr: 0x460, symBinAddr: 0xD14, symSize: 0x40 }
  - { offset: 0x7B8, size: 0x8, addend: 0x0, symName: '__ZN73_$LT$T$u20$as$u20$pyo3..impl_..pyclass_init..PyClassInit$LT$_$C$_$GT$$GT$4init17h1b9ee8b9fb1edb99E', symObjAddr: 0x4A0, symBinAddr: 0xD54, symSize: 0x40 }
  - { offset: 0x7FC, size: 0x8, addend: 0x0, symName: '__ZN73_$LT$T$u20$as$u20$pyo3..impl_..pyclass_init..PyClassInit$LT$_$C$_$GT$$GT$4init17h57f6813cab340bb7E', symObjAddr: 0x4E0, symBinAddr: 0xD94, symSize: 0x34 }
  - { offset: 0x83F, size: 0x8, addend: 0x0, symName: '__ZN73_$LT$T$u20$as$u20$pyo3..impl_..pyclass_init..PyClassInit$LT$_$C$_$GT$$GT$4init17h5d5eafbef8c55a35E', symObjAddr: 0x514, symBinAddr: 0xDC8, symSize: 0x3C }
  - { offset: 0x882, size: 0x8, addend: 0x0, symName: '__ZN73_$LT$T$u20$as$u20$pyo3..impl_..pyclass_init..PyClassInit$LT$_$C$_$GT$$GT$4init17h6c0fbd9bfa288ffeE', symObjAddr: 0x550, symBinAddr: 0xE04, symSize: 0x3C }
  - { offset: 0x8C5, size: 0x8, addend: 0x0, symName: '__ZN73_$LT$T$u20$as$u20$pyo3..impl_..pyclass_init..PyClassInit$LT$_$C$_$GT$$GT$4init17h7a5b78494f8c447dE', symObjAddr: 0x58C, symBinAddr: 0xE40, symSize: 0x34 }
  - { offset: 0xBDE, size: 0x8, addend: 0x0, symName: '__ZN82_$LT$orion_sdr..python..ft8..PyFt8Mod$u20$as$u20$pyo3..type_object..PyTypeInfo$GT$15type_object_raw28_$u7b$$u7b$closure$u7d$$u7d$17h3bffae5f8db2b136E', symObjAddr: 0x5C0, symBinAddr: 0xE74, symSize: 0x2C }
  - { offset: 0xC42, size: 0x8, addend: 0x0, symName: '__ZN84_$LT$orion_sdr..python..ft8..PyFt8Demod$u20$as$u20$pyo3..type_object..PyTypeInfo$GT$15type_object_raw28_$u7b$$u7b$closure$u7d$$u7d$17h438ea00e17d8d74bE', symObjAddr: 0x5EC, symBinAddr: 0xEA0, symSize: 0x2C }
  - { offset: 0xCA6, size: 0x8, addend: 0x0, symName: '__ZN82_$LT$orion_sdr..python..ft8..PyFt4Mod$u20$as$u20$pyo3..type_object..PyTypeInfo$GT$15type_object_raw28_$u7b$$u7b$closure$u7d$$u7d$17hc38986d9491b4fadE', symObjAddr: 0x618, symBinAddr: 0xECC, symSize: 0x2C }
  - { offset: 0xD0A, size: 0x8, addend: 0x0, symName: '__ZN84_$LT$orion_sdr..python..ft8..PyFt4Demod$u20$as$u20$pyo3..type_object..PyTypeInfo$GT$15type_object_raw28_$u7b$$u7b$closure$u7d$$u7d$17h687c84a5e950f9aaE', symObjAddr: 0x644, symBinAddr: 0xEF8, symSize: 0x2C }
  - { offset: 0x15AB, size: 0x8, addend: 0x0, symName: __ZN9orion_sdr6python3ft818ft8_pack_free_text9_PYO3_DEF17h1ca7fc987430d277E, symObjAddr: 0x78, symBinAddr: 0x1DC448, symSize: 0x0 }
  - { offset: 0x1857, size: 0x8, addend: 0x0, symName: '__ZN4core5array4iter10iter_inner78PolymorphicIter$LT$$u5b$core..mem..maybe_uninit..MaybeUninit$LT$T$GT$$u5d$$GT$4next17hc65145cf28689da0E', symObjAddr: 0x0, symBinAddr: 0xF24, symSize: 0x190 }
  - { offset: 0x1B05, size: 0x8, addend: 0x0, symName: '__ZN4core5array4iter10iter_inner78PolymorphicIter$LT$$u5b$core..mem..maybe_uninit..MaybeUninit$LT$T$GT$$u5d$$GT$8try_fold28_$u7b$$u7b$closure$u7d$$u7d$17hca6aaaf06aba12cdE', symObjAddr: 0x190, symBinAddr: 0x10B4, symSize: 0xA8 }
  - { offset: 0x21C9, size: 0x8, addend: 0x0, symName: '__ZN4core5array4iter10iter_inner78PolymorphicIter$LT$$u5b$core..mem..maybe_uninit..MaybeUninit$LT$T$GT$$u5d$$GT$4next17hc65145cf28689da0E', symObjAddr: 0x0, symBinAddr: 0xF24, symSize: 0x190 }
  - { offset: 0x24AA, size: 0x8, addend: 0x0, symName: '__ZN129_$LT$ndarray..dimension..dim..Dim$LT$$u5b$usize$u3b$$u20$1$u5d$$GT$$u20$as$u20$ndarray..dimension..dimension_trait..Dimension$GT$4ndim17h9b667e3438502da7E', symObjAddr: 0x0, symBinAddr: 0x115C, symSize: 0x18 }
  - { offset: 0x24CB, size: 0x8, addend: 0x0, symName: '__ZN129_$LT$ndarray..dimension..dim..Dim$LT$$u5b$usize$u3b$$u20$1$u5d$$GT$$u20$as$u20$ndarray..dimension..dimension_trait..Dimension$GT$4ndim17h9b667e3438502da7E', symObjAddr: 0x0, symBinAddr: 0x115C, symSize: 0x18 }
  - { offset: 0x24F9, size: 0x8, addend: 0x0, symName: '__ZN129_$LT$ndarray..dimension..dim..Dim$LT$$u5b$usize$u3b$$u20$1$u5d$$GT$$u20$as$u20$ndarray..dimension..dimension_trait..Dimension$GT$9slice_mut17h08f28597d0964701E', symObjAddr: 0x18, symBinAddr: 0x1174, symSize: 0x24 }
  - { offset: 0x25C9, size: 0x8, addend: 0x0, symName: '__ZN52_$LT$Q$u20$as$u20$hashbrown..Equivalent$LT$K$GT$$GT$10equivalent17h01b3caf56667704cE', symObjAddr: 0x0, symBinAddr: 0x1198, symSize: 0x50 }
  - { offset: 0x265C, size: 0x8, addend: 0x0, symName: '__ZN52_$LT$Q$u20$as$u20$hashbrown..Equivalent$LT$K$GT$$GT$10equivalent17h01b3caf56667704cE', symObjAddr: 0x0, symBinAddr: 0x1198, symSize: 0x50 }
  - { offset: 0x26ED, size: 0x8, addend: 0x0, symName: __ZN9orion_sdr10demodulate2am15AmEnvelopeDemod3new17h31ece5a5af0467f7E, symObjAddr: 0x0, symBinAddr: 0x11E8, symSize: 0x74 }
  - { offset: 0x2874, size: 0x8, addend: 0x0, symName: __ZN9orion_sdr10demodulate2am15AmEnvelopeDemod3new17h31ece5a5af0467f7E, symObjAddr: 0x0, symBinAddr: 0x11E8, symSize: 0x74 }
  - { offset: 0x28A4, size: 0x8, addend: 0x0, symName: __ZN9orion_sdr10demodulate2am15AmEnvelopeDemod15with_abs_approx17h56993d21692a24c0E, symObjAddr: 0x74, symBinAddr: 0x125C, symSize: 0x58 }
  - { offset: 0x2901, size: 0x8, addend: 0x0, symName: __ZN9orion_sdr4sync6costas12costas_score17h409c4f7880f09b22E, symObjAddr: 0x0, symBinAddr: 0x12B4, symSize: 0x468 }
  - { offset: 0x291D, size: 0x8, addend: 0x0, symName: __ZN9orion_sdr4sync6costas12costas_score17h409c4f7880f09b22E, symObjAddr: 0x0, symBinAddr: 0x12B4, symSize: 0x468 }
  - { offset: 0x2B29, size: 0x8, addend: 0x0, symName: __ZN9orion_sdr4sync6costas15find_candidates17h00ec0cfa0c420501E, symObjAddr: 0x468, symBinAddr: 0x171C, symSize: 0x41C }
  - { offset: 0x3067, size: 0x8, addend: 0x0, symName: '__ZN4core3ops8function5impls80_$LT$impl$u20$core..ops..function..FnOnce$LT$A$GT$$u20$for$u20$$RF$mut$u20$F$GT$9call_once17h9bc74e908744b55aE', symObjAddr: 0x0, symBinAddr: 0x1B38, symSize: 0x34 }
  - { offset: 0x30B1, size: 0x8, addend: 0x0, symName: '__ZN4core3ops8function5impls80_$LT$impl$u20$core..ops..function..FnOnce$LT$A$GT$$u20$for$u20$$RF$mut$u20$F$GT$9call_once17h9bc74e908744b55aE', symObjAddr: 0x0, symBinAddr: 0x1B38, symSize: 0x34 }
  - { offset: 0x3100, size: 0x8, addend: 0x0, symName: '__ZN4core3ops8function5impls80_$LT$impl$u20$core..ops..function..FnOnce$LT$A$GT$$u20$for$u20$$RF$mut$u20$F$GT$9call_once17hcc744a4583277a3cE', symObjAddr: 0x34, symBinAddr: 0x1B6C, symSize: 0x34 }
  - { offset: 0x316F, size: 0x8, addend: 0x0, symName: '__ZN9orion_sdr5codec5psk3114viterbi_decode28_$u7b$$u7b$closure$u7d$$u7d$17heae2a1859636f7cbE', symObjAddr: 0x68, symBinAddr: 0x1BA0, symSize: 0x44 }
  - { offset: 0x31B3, size: 0x8, addend: 0x0, symName: '__ZN9orion_sdr5codec5psk3114viterbi_decode28_$u7b$$u7b$closure$u7d$$u7d$17hd1cfa05bdffdb4b3E', symObjAddr: 0xAC, symBinAddr: 0x1BE4, symSize: 0x18 }
  - { offset: 0x31FE, size: 0x8, addend: 0x0, symName: '__ZN9orion_sdr5codec5psk3116StreamingViterbi11feed_symbol28_$u7b$$u7b$closure$u7d$$u7d$17hb32574aa8fcc6cb8E', symObjAddr: 0xC4, symBinAddr: 0x1BFC, symSize: 0x34 }
  - { offset: 0x3258, size: 0x8, addend: 0x0, symName: '__ZN9orion_sdr5codec5psk3116StreamingViterbi11feed_symbol28_$u7b$$u7b$closure$u7d$$u7d$17h91599d7fec0eb97cE', symObjAddr: 0xF8, symBinAddr: 0x1C30, symSize: 0x44 }
  - { offset: 0x32A0, size: 0x8, addend: 0x0, symName: '__ZN9orion_sdr5codec5psk3116StreamingViterbi11feed_symbol28_$u7b$$u7b$closure$u7d$$u7d$17ha34f3c61333d6a05E', symObjAddr: 0x13C, symBinAddr: 0x1C74, symSize: 0x18 }
  - { offset: 0x338B, size: 0x8, addend: 0x0, symName: __ZN4pyo33err10cast_error9CastError3new17h09e59fc9f62a7194E, symObjAddr: 0x0, symBinAddr: 0x1C8C, symSize: 0x1C }
  - { offset: 0x36FF, size: 0x8, addend: 0x0, symName: __ZN4pyo33err10cast_error9CastError3new17h09e59fc9f62a7194E, symObjAddr: 0x0, symBinAddr: 0x1C8C, symSize: 0x1C }
  - { offset: 0x374D, size: 0x8, addend: 0x0, symName: '__ZN81_$LT$core..str..iter..Chars$u20$as$u20$core..iter..traits..iterator..Iterator$GT$10advance_by17hfd1a7291907e858cE', symObjAddr: 0x0, symBinAddr: 0x1CA8, symSize: 0x5D4 }
  - { offset: 0x3D12, size: 0x8, addend: 0x0, symName: '__ZN81_$LT$core..str..iter..Chars$u20$as$u20$core..iter..traits..iterator..Iterator$GT$10advance_by17hfd1a7291907e858cE', symObjAddr: 0x0, symBinAddr: 0x1CA8, symSize: 0x5D4 }
  - { offset: 0x4218, size: 0x8, addend: 0x0, symName: '__ZN81_$LT$core..str..iter..Chars$u20$as$u20$core..iter..traits..iterator..Iterator$GT$4next17h0354bbff342edb35E', symObjAddr: 0x5D4, symBinAddr: 0x227C, symSize: 0x80 }
  - { offset: 0x48FF, size: 0x8, addend: 0x0, symName: __ZN9orion_sdr6python10demodulate15QamDeciderInner4bits17h87fa26837117991aE, symObjAddr: 0x0, symBinAddr: 0x22FC, symSize: 0x60 }
  - { offset: 0x4932, size: 0x8, addend: 0x0, symName: '__ZN102_$LT$orion_sdr..python..demodulate..PyCwEnvelopeDemod$u20$as$u20$pyo3..impl_..pyclass..PyClassImpl$GT$10items_iter15INTRINSIC_ITEMS17h5373abbb43aa16afE', symObjAddr: 0x14048, symBinAddr: 0x143DF0, symSize: 0x0 }
  - { offset: 0x4952, size: 0x8, addend: 0x0, symName: '__ZN102_$LT$orion_sdr..python..demodulate..PyCwEnvelopeDemod$u20$as$u20$pyo3..impl_..pyclass..PyClassImpl$GT$16lazy_type_object11TYPE_OBJECT17h273992039a364345E', symObjAddr: 0x14248, symBinAddr: 0x1DC468, symSize: 0x0 }
  - { offset: 0x4960, size: 0x8, addend: 0x0, symName: '__ZN102_$LT$orion_sdr..python..demodulate..PyCwEnvelopeDemod$u20$as$u20$pyo3..impl_..pyclass..PyClassImpl$GT$10items_iter17h5a42d6e0bb535325E', symObjAddr: 0x57B4, symBinAddr: 0x7AB0, symSize: 0x38 }
  - { offset: 0x499B, size: 0x8, addend: 0x0, symName: '__ZN102_$LT$orion_sdr..python..demodulate..PyCwEnvelopeDemod$u20$as$u20$pyo3..impl_..pyclass..PyClassImpl$GT$16lazy_type_object17h120d716b0bdd9931E', symObjAddr: 0x57EC, symBinAddr: 0x7AE8, symSize: 0xC }
  - { offset: 0x4AAF, size: 0x8, addend: 0x0, symName: '__ZN9orion_sdr6python10demodulate216_$LT$impl$u20$pyo3..impl_..pyclass..PyMethods$LT$orion_sdr..python..demodulate..PyCwEnvelopeDemod$GT$$u20$for$u20$pyo3..impl_..pyclass..PyClassImplCollector$LT$orion_sdr..python..demodulate..PyCwEnvelopeDemod$GT$$GT$10py_methods5ITEMS17hffdab73a7536e857E', symObjAddr: 0x12F10, symBinAddr: 0x1C9A18, symSize: 0x0 }
  - { offset: 0x4AD5, size: 0x8, addend: 0x0, symName: '__ZN102_$LT$orion_sdr..python..demodulate..PyAmEnvelopeDemod$u20$as$u20$pyo3..impl_..pyclass..PyClassImpl$GT$10items_iter15INTRINSIC_ITEMS17h90388b1c879ba195E', symObjAddr: 0x140A8, symBinAddr: 0x143E50, symSize: 0x0 }
  - { offset: 0x4AF5, size: 0x8, addend: 0x0, symName: '__ZN102_$LT$orion_sdr..python..demodulate..PyAmEnvelopeDemod$u20$as$u20$pyo3..impl_..pyclass..PyClassImpl$GT$16lazy_type_object11TYPE_OBJECT17h2b67aba58239c67eE', symObjAddr: 0x142B0, symBinAddr: 0x1DC4D0, symSize: 0x0 }
  - { offset: 0x4B03, size: 0x8, addend: 0x0, symName: '__ZN102_$LT$orion_sdr..python..demodulate..PyAmEnvelopeDemod$u20$as$u20$pyo3..impl_..pyclass..PyClassImpl$GT$10items_iter17hfda9c94c9085959aE', symObjAddr: 0x63F0, symBinAddr: 0x86EC, symSize: 0x38 }
  - { offset: 0x4B3E, size: 0x8, addend: 0x0, symName: '__ZN102_$LT$orion_sdr..python..demodulate..PyAmEnvelopeDemod$u20$as$u20$pyo3..impl_..pyclass..PyClassImpl$GT$16lazy_type_object17hac50753d7461cd1bE', symObjAddr: 0x6428, symBinAddr: 0x8724, symSize: 0xC }
  - { offset: 0x4C13, size: 0x8, addend: 0x0, symName: '__ZN9orion_sdr6python10demodulate216_$LT$impl$u20$pyo3..impl_..pyclass..PyMethods$LT$orion_sdr..python..demodulate..PyAmEnvelopeDemod$GT$$u20$for$u20$pyo3..impl_..pyclass..PyClassImplCollector$LT$orion_sdr..python..demodulate..PyAmEnvelopeDemod$GT$$GT$10py_methods5ITEMS17ha895a99d76b1021cE', symObjAddr: 0x13190, symBinAddr: 0x1C9C98, symSize: 0x0 }
  - { offset: 0x4C39, size: 0x8, addend: 0x0, symName: '__ZN102_$LT$orion_sdr..python..demodulate..PySsbProductDemod$u20$as$u20$pyo3..impl_..pyclass..PyClassImpl$GT$10items_iter15INTRINSIC_ITEMS17hdd0654254171b5f0E', symObjAddr: 0x140F0, symBinAddr: 0x143E98, symSize: 0x0 }
  - { offset: 0x4C59, size: 0x8, addend: 0x0, symName: '__ZN102_$LT$orion_sdr..python..demodulate..PySsbProductDemod$u20$as$u20$pyo3..impl_..pyclass..PyClassImpl$GT$16lazy_type_object11TYPE_OBJECT17he0a97637663b8435E', symObjAddr: 0x14318, symBinAddr: 0x1DC538, symSize: 0x0 }
  - { offset: 0x4C67, size: 0x8, addend: 0x0, symName: '__ZN102_$LT$orion_sdr..python..demodulate..PySsbProductDemod$u20$as$u20$pyo3..impl_..pyclass..PyClassImpl$GT$10items_iter17h171acc4ab8993bfcE', symObjAddr: 0x85F8, symBinAddr: 0xA8F4, symSize: 0x38 }
  - { offset: 0x4CA2, size: 0x8, addend: 0x0, symName: '__ZN102_$LT$orion_sdr..python..demodulate..PySsbProductDemod$u20$as$u20$pyo3..impl_..pyclass..PyClassImpl$GT$16lazy_type_object17hc96af0435857450eE', symObjAddr: 0x8630, symBinAddr: 0xA92C, symSize: 0xC }
  - { offset: 0x4D77, size: 0x8, addend: 0x0, symName: '__ZN9orion_sdr6python10demodulate216_$LT$impl$u20$pyo3..impl_..pyclass..PyMethods$LT$orion_sdr..python..demodulate..PySsbProductDemod$GT$$u20$for$u20$pyo3..impl_..pyclass..PyClassImplCollector$LT$orion_sdr..python..demodulate..PySsbProductDemod$GT$$GT$10py_methods5ITEMS17he155089d8194b2e4E', symObjAddr: 0x13388, symBinAddr: 0x1C9E90, symSize: 0x0 }
  - { offset: 0x4D9D, size: 0x8, addend: 0x0, symName: '__ZN104_$LT$orion_sdr..python..demodulate..PyFmQuadratureDemod$u20$as$u20$pyo3..impl_..pyclass..PyClassImpl$GT$10items_iter15INTRINSIC_ITEMS17h7e02a0891a3faaddE', symObjAddr: 0x14128, symBinAddr: 0x143ED0, symSize: 0x0 }
  - { offset: 0x4DBD, size: 0x8, addend: 0x0, symName: '__ZN104_$LT$orion_sdr..python..demodulate..PyFmQuadratureDemod$u20$as$u20$pyo3..impl_..pyclass..PyClassImpl$GT$16lazy_type_object11TYPE_OBJECT17h4ba04ac0f97c6991E', symObjAddr: 0x14380, symBinAddr: 0x1DC5A0, symSize: 0x0 }
  - { offset: 0x4DCB, size: 0x8, addend: 0x0, symName: '__ZN104_$LT$orion_sdr..python..demodulate..PyFmQuadratureDemod$u20$as$u20$pyo3..impl_..pyclass..PyClassImpl$GT$10items_iter17h65e1a28aa61ea686E', symObjAddr: 0xA04C, symBinAddr: 0xC348, symSize: 0x38 }
  - { offset: 0x4E06, size: 0x8, addend: 0x0, symName: '__ZN104_$LT$orion_sdr..python..demodulate..PyFmQuadratureDemod$u20$as$u20$pyo3..impl_..pyclass..PyClassImpl$GT$16lazy_type_object17h5623ae6d8a8ee0dfE', symObjAddr: 0xA084, symBinAddr: 0xC380, symSize: 0xC }
  - { offset: 0x4EDB, size: 0x8, addend: 0x0, symName: '__ZN9orion_sdr6python10demodulate220_$LT$impl$u20$pyo3..impl_..pyclass..PyMethods$LT$orion_sdr..python..demodulate..PyFmQuadratureDemod$GT$$u20$for$u20$pyo3..impl_..pyclass..PyClassImplCollector$LT$orion_sdr..python..demodulate..PyFmQuadratureDemod$GT$$GT$10py_methods5ITEMS17hc4e34fd7e82d3737E', symObjAddr: 0x13580, symBinAddr: 0x1CA088, symSize: 0x0 }
  - { offset: 0x4F01, size: 0x8, addend: 0x0, symName: '__ZN104_$LT$orion_sdr..python..demodulate..PyPmQuadratureDemod$u20$as$u20$pyo3..impl_..pyclass..PyClassImpl$GT$10items_iter15INTRINSIC_ITEMS17h54523c1da1ffcf3aE', symObjAddr: 0x14160, symBinAddr: 0x143F08, symSize: 0x0 }
  - { offset: 0x4F21, size: 0x8, addend: 0x0, symName: '__ZN104_$LT$orion_sdr..python..demodulate..PyPmQuadratureDemod$u20$as$u20$pyo3..impl_..pyclass..PyClassImpl$GT$16lazy_type_object11TYPE_OBJECT17h8afb8d4c39338bd6E', symObjAddr: 0x143E8, symBinAddr: 0x1DC608, symSize: 0x0 }
  - { offset: 0x4F2F, size: 0x8, addend: 0x0, symName: '__ZN104_$LT$orion_sdr..python..demodulate..PyPmQuadratureDemod$u20$as$u20$pyo3..impl_..pyclass..PyClassImpl$GT$10items_iter17hd758dd13b768cf03E', symObjAddr: 0xB43C, symBinAddr: 0xD738, symSize: 0x38 }
  - { offset: 0x4F6A, size: 0x8, addend: 0x0, symName: '__ZN104_$LT$orion_sdr..python..demodulate..PyPmQuadratureDemod$u20$as$u20$pyo3..impl_..pyclass..PyClassImpl$GT$16lazy_type_object17hdabe19e457e04379E', symObjAddr: 0xB474, symBinAddr: 0xD770, symSize: 0xC }
  - { offset: 0x503F, size: 0x8, addend: 0x0, symName: '__ZN9orion_sdr6python10demodulate220_$LT$impl$u20$pyo3..impl_..pyclass..PyMethods$LT$orion_sdr..python..demodulate..PyPmQuadratureDemod$GT$$u20$for$u20$pyo3..impl_..pyclass..PyClassImplCollector$LT$orion_sdr..python..demodulate..PyPmQuadratureDemod$GT$$GT$10py_methods5ITEMS17hd8a2a36bdd2dcd15E', symObjAddr: 0x13778, symBinAddr: 0x1CA280, symSize: 0x0 }
  - { offset: 0x5065, size: 0x8, addend: 0x0, symName: '__ZN96_$LT$orion_sdr..python..demodulate..PyBpskDemod$u20$as$u20$pyo3..impl_..pyclass..PyClassImpl$GT$10items_iter15INTRINSIC_ITEMS17h166fb1ffc4f5c0d5E', symObjAddr: 0x14198, symBinAddr: 0x143F40, symSize: 0x0 }
  - { offset: 0x5085, size: 0x8, addend: 0x0, symName: '__ZN96_$LT$orion_sdr..python..demodulate..PyBpskDemod$u20$as$u20$pyo3..impl_..pyclass..PyClassImpl$GT$16lazy_type_object11TYPE_OBJECT17h87488a72e84bcc5eE', symObjAddr: 0x14450, symBinAddr: 0x1DC670, symSize: 0x0 }
  - { offset: 0x5093, size: 0x8, addend: 0x0, symName: '__ZN96_$LT$orion_sdr..python..demodulate..PyBpskDemod$u20$as$u20$pyo3..impl_..pyclass..PyClassImpl$GT$10items_iter17h2595cd34181b31d1E', symObjAddr: 0xC248, symBinAddr: 0xE544, symSize: 0x38 }
  - { offset: 0x50CE, size: 0x8, addend: 0x0, symName: '__ZN96_$LT$orion_sdr..python..demodulate..PyBpskDemod$u20$as$u20$pyo3..impl_..pyclass..PyClassImpl$GT$16lazy_type_object17h856f2a8ade85f1dcE', symObjAddr: 0xC280, symBinAddr: 0xE57C, symSize: 0xC }
  - { offset: 0x51E4, size: 0x8, addend: 0x0, symName: '__ZN9orion_sdr6python10demodulate204_$LT$impl$u20$pyo3..impl_..pyclass..PyMethods$LT$orion_sdr..python..demodulate..PyBpskDemod$GT$$u20$for$u20$pyo3..impl_..pyclass..PyClassImplCollector$LT$orion_sdr..python..demodulate..PyBpskDemod$GT$$GT$10py_methods5ITEMS17h7f468891c1e62b71E', symObjAddr: 0x139C0, symBinAddr: 0x1CA4C8, symSize: 0x0 }
  - { offset: 0x520A, size: 0x8, addend: 0x0, symName: '__ZN96_$LT$orion_sdr..python..demodulate..PyQpskDemod$u20$as$u20$pyo3..impl_..pyclass..PyClassImpl$GT$10items_iter15INTRINSIC_ITEMS17h79515fc68af6b9ccE', symObjAddr: 0x141C8, symBinAddr: 0x143F70, symSize: 0x0 }
  - { offset: 0x522A, size: 0x8, addend: 0x0, symName: '__ZN96_$LT$orion_sdr..python..demodulate..PyQpskDemod$u20$as$u20$pyo3..impl_..pyclass..PyClassImpl$GT$16lazy_type_object11TYPE_OBJECT17h973d2848268c8253E', symObjAddr: 0x144B8, symBinAddr: 0x1DC6D8, symSize: 0x0 }
  - { offset: 0x5238, size: 0x8, addend: 0x0, symName: '__ZN96_$LT$orion_sdr..python..demodulate..PyQpskDemod$u20$as$u20$pyo3..impl_..pyclass..PyClassImpl$GT$10items_iter17h2437900140a1e984E', symObjAddr: 0xDA68, symBinAddr: 0xFD64, symSize: 0x38 }
  - { offset: 0x5273, size: 0x8, addend: 0x0, symName: '__ZN96_$LT$orion_sdr..python..demodulate..PyQpskDemod$u20$as$u20$pyo3..impl_..pyclass..PyClassImpl$GT$16lazy_type_object17h7683a483d8767a0fE', symObjAddr: 0xDAA0, symBinAddr: 0xFD9C, symSize: 0xC }
  - { offset: 0x5389, size: 0x8, addend: 0x0, symName: '__ZN9orion_sdr6python10demodulate204_$LT$impl$u20$pyo3..impl_..pyclass..PyMethods$LT$orion_sdr..python..demodulate..PyQpskDemod$GT$$u20$for$u20$pyo3..impl_..pyclass..PyClassImplCollector$LT$orion_sdr..python..demodulate..PyQpskDemod$GT$$GT$10py_methods5ITEMS17h4a21b330ef17d4a2E', symObjAddr: 0x13C38, symBinAddr: 0x1CA740, symSize: 0x0 }
  - { offset: 0x53AF, size: 0x8, addend: 0x0, symName: '__ZN95_$LT$orion_sdr..python..demodulate..PyQamDemod$u20$as$u20$pyo3..impl_..pyclass..PyClassImpl$GT$10items_iter15INTRINSIC_ITEMS17h661fc9ce6d5fad3aE', symObjAddr: 0x141F8, symBinAddr: 0x143FA0, symSize: 0x0 }
  - { offset: 0x53CF, size: 0x8, addend: 0x0, symName: '__ZN95_$LT$orion_sdr..python..demodulate..PyQamDemod$u20$as$u20$pyo3..impl_..pyclass..PyClassImpl$GT$16lazy_type_object11TYPE_OBJECT17h26c2ad5df1ecf9f7E', symObjAddr: 0x14520, symBinAddr: 0x1DC740, symSize: 0x0 }
  - { offset: 0x53DD, size: 0x8, addend: 0x0, symName: '__ZN95_$LT$orion_sdr..python..demodulate..PyQamDemod$u20$as$u20$pyo3..impl_..pyclass..PyClassImpl$GT$10items_iter17hecf552792a983cc4E', symObjAddr: 0xF94C, symBinAddr: 0x11C48, symSize: 0x38 }
  - { offset: 0x5418, size: 0x8, addend: 0x0, symName: '__ZN95_$LT$orion_sdr..python..demodulate..PyQamDemod$u20$as$u20$pyo3..impl_..pyclass..PyClassImpl$GT$16lazy_type_object17h8fc1da040f949f03E', symObjAddr: 0xF984, symBinAddr: 0x11C80, symSize: 0xC }
  - { offset: 0x55E2, size: 0x8, addend: 0x0, symName: '__ZN9orion_sdr6python10demodulate202_$LT$impl$u20$pyo3..impl_..pyclass..PyMethods$LT$orion_sdr..python..demodulate..PyQamDemod$GT$$u20$for$u20$pyo3..impl_..pyclass..PyClassImplCollector$LT$orion_sdr..python..demodulate..PyQamDemod$GT$$GT$10py_methods5ITEMS17ha54138dfb9cdf7bcE', symObjAddr: 0x13EA0, symBinAddr: 0x1CA9A8, symSize: 0x0 }
  - { offset: 0x55F6, size: 0x8, addend: 0x0, symName: '__ZN98_$LT$orion_sdr..python..demodulate..PyCwEnvelopeDemod$u20$as$u20$pyo3..type_object..PyTypeInfo$GT$15type_object_raw17hc1ae83a1d0b564d1E', symObjAddr: 0x5774, symBinAddr: 0x7A70, symSize: 0x40 }
  - { offset: 0x5633, size: 0x8, addend: 0x0, symName: '__ZN98_$LT$orion_sdr..python..demodulate..PyAmEnvelopeDemod$u20$as$u20$pyo3..type_object..PyTypeInfo$GT$15type_object_raw17h362fb95ba307b429E', symObjAddr: 0x63B0, symBinAddr: 0x86AC, symSize: 0x40 }
  - { offset: 0x5670, size: 0x8, addend: 0x0, symName: '__ZN98_$LT$orion_sdr..python..demodulate..PySsbProductDemod$u20$as$u20$pyo3..type_object..PyTypeInfo$GT$15type_object_raw17h579a26e69c6cc7b0E', symObjAddr: 0x85B8, symBinAddr: 0xA8B4, symSize: 0x40 }
  - { offset: 0x56AD, size: 0x8, addend: 0x0, symName: '__ZN100_$LT$orion_sdr..python..demodulate..PyFmQuadratureDemod$u20$as$u20$pyo3..type_object..PyTypeInfo$GT$15type_object_raw17h018341c5f5a91063E', symObjAddr: 0xA00C, symBinAddr: 0xC308, symSize: 0x40 }
  - { offset: 0x56EA, size: 0x8, addend: 0x0, symName: '__ZN100_$LT$orion_sdr..python..demodulate..PyPmQuadratureDemod$u20$as$u20$pyo3..type_object..PyTypeInfo$GT$15type_object_raw17h0019005e7b79a435E', symObjAddr: 0xB3FC, symBinAddr: 0xD6F8, symSize: 0x40 }
  - { offset: 0x5727, size: 0x8, addend: 0x0, symName: '__ZN92_$LT$orion_sdr..python..demodulate..PyBpskDemod$u20$as$u20$pyo3..type_object..PyTypeInfo$GT$15type_object_raw17h44c9f8170b5773a0E', symObjAddr: 0xC208, symBinAddr: 0xE504, symSize: 0x40 }
  - { offset: 0x5764, size: 0x8, addend: 0x0, symName: '__ZN92_$LT$orion_sdr..python..demodulate..PyQpskDemod$u20$as$u20$pyo3..type_object..PyTypeInfo$GT$15type_object_raw17h9e569cdb3310d49fE', symObjAddr: 0xDA28, symBinAddr: 0xFD24, symSize: 0x40 }
  - { offset: 0x57A1, size: 0x8, addend: 0x0, symName: '__ZN91_$LT$orion_sdr..python..demodulate..PyQamDemod$u20$as$u20$pyo3..type_object..PyTypeInfo$GT$15type_object_raw17h71365c6002229e77E', symObjAddr: 0xF90C, symBinAddr: 0x11C08, symSize: 0x40 }
  - { offset: 0x8A5B, size: 0x8, addend: 0x0, symName: __ZN9orion_sdr6python10demodulate15QamDeciderInner4bits17h87fa26837117991aE, symObjAddr: 0x0, symBinAddr: 0x22FC, symSize: 0x60 }
  - { offset: 0x8CBB, size: 0x8, addend: 0x0, symName: __ZN9orion_sdr6python10demodulate15QamDeciderInner7process17h4a863108592f30c2E, symObjAddr: 0x60, symBinAddr: 0x235C, symSize: 0x5714 }
  - { offset: 0xA3EF, size: 0x8, addend: 0x0, symName: __ZN9orion_sdr6python10demodulate17PyCwEnvelopeDemod3new17h96758813ed58bf10E, symObjAddr: 0x57F8, symBinAddr: 0x7AF4, symSize: 0x44 }
  - { offset: 0xA43A, size: 0x8, addend: 0x0, symName: __ZN9orion_sdr6python10demodulate17PyCwEnvelopeDemod8set_gain17h0bf2d54f602a4b61E, symObjAddr: 0x583C, symBinAddr: 0x7B38, symSize: 0x28 }
  - { offset: 0xA605, size: 0x8, addend: 0x0, symName: __ZN9orion_sdr6python10demodulate17PyCwEnvelopeDemod7process17hea098cb0934e9054E, symObjAddr: 0x5864, symBinAddr: 0x7B60, symSize: 0x1B4 }
  - { offset: 0xA6B5, size: 0x8, addend: 0x0, symName: __ZN9orion_sdr6python10demodulate17PyCwEnvelopeDemod20__pymethod___new____17h4c5b54ce510bf337E, symObjAddr: 0x5A18, symBinAddr: 0x7D14, symSize: 0x2DC }
  - { offset: 0xA861, size: 0x8, addend: 0x0, symName: __ZN9orion_sdr6python10demodulate17PyCwEnvelopeDemod21__pymethod_set_gain__17h8525bb5dfe53c886E, symObjAddr: 0x5CF4, symBinAddr: 0x7FF0, symSize: 0x304 }
  - { offset: 0xA9F4, size: 0x8, addend: 0x0, symName: __ZN9orion_sdr6python10demodulate17PyCwEnvelopeDemod20__pymethod_process__17hf89b7f13e5bd7b64E, symObjAddr: 0x5FF8, symBinAddr: 0x82F4, symSize: 0x3B8 }
  - { offset: 0xAB81, size: 0x8, addend: 0x0, symName: __ZN9orion_sdr6python10demodulate17PyAmEnvelopeDemod3new17h880bf98eed9d6b7eE, symObjAddr: 0x6434, symBinAddr: 0x8730, symSize: 0x98 }
  - { offset: 0xACF2, size: 0x8, addend: 0x0, symName: __ZN9orion_sdr6python10demodulate17PyAmEnvelopeDemod7process17h3c308997ad83a5d4E, symObjAddr: 0x64CC, symBinAddr: 0x87C8, symSize: 0x1A54 }
  - { offset: 0xB4C8, size: 0x8, addend: 0x0, symName: __ZN9orion_sdr6python10demodulate17PyAmEnvelopeDemod20__pymethod___new____17h18a590bd33e46b0fE, symObjAddr: 0x7F20, symBinAddr: 0xA21C, symSize: 0x2E0 }
  - { offset: 0xB674, size: 0x8, addend: 0x0, symName: __ZN9orion_sdr6python10demodulate17PyAmEnvelopeDemod20__pymethod_process__17h85f5afb8527fbc2bE, symObjAddr: 0x8200, symBinAddr: 0xA4FC, symSize: 0x3B8 }
  - { offset: 0xB801, size: 0x8, addend: 0x0, symName: __ZN9orion_sdr6python10demodulate17PySsbProductDemod3new17ha3de776405593e85E, symObjAddr: 0x863C, symBinAddr: 0xA938, symSize: 0x48 }
  - { offset: 0xB8B0, size: 0x8, addend: 0x0, symName: __ZN9orion_sdr6python10demodulate17PySsbProductDemod7process17h939b0ce4a080ba12E, symObjAddr: 0x8684, symBinAddr: 0xA980, symSize: 0x12F0 }
  - { offset: 0xBFF1, size: 0x8, addend: 0x0, symName: __ZN9orion_sdr6python10demodulate17PySsbProductDemod20__pymethod___new____17hd5b14fef554a6320E, symObjAddr: 0x9974, symBinAddr: 0xBC70, symSize: 0x2E0 }
  - { offset: 0xC19D, size: 0x8, addend: 0x0, symName: __ZN9orion_sdr6python10demodulate17PySsbProductDemod20__pymethod_process__17h1ebb6ec6fcc20661E, symObjAddr: 0x9C54, symBinAddr: 0xBF50, symSize: 0x3B8 }
  - { offset: 0xC32A, size: 0x8, addend: 0x0, symName: __ZN9orion_sdr6python10demodulate19PyFmQuadratureDemod3new17ha02b80066c4be2eeE, symObjAddr: 0xA090, symBinAddr: 0xC38C, symSize: 0x48 }
  - { offset: 0xC3E4, size: 0x8, addend: 0x0, symName: __ZN9orion_sdr6python10demodulate19PyFmQuadratureDemod7process17h2bbc884ccc87c356E, symObjAddr: 0xA0D8, symBinAddr: 0xC3D4, symSize: 0xC8C }
  - { offset: 0xC8E6, size: 0x8, addend: 0x0, symName: __ZN9orion_sdr6python10demodulate19PyFmQuadratureDemod20__pymethod___new____17h757dedf3121c27b0E, symObjAddr: 0xAD64, symBinAddr: 0xD060, symSize: 0x2E0 }
  - { offset: 0xCA92, size: 0x8, addend: 0x0, symName: __ZN9orion_sdr6python10demodulate19PyFmQuadratureDemod20__pymethod_process__17h6e07cee53eedf5d6E, symObjAddr: 0xB044, symBinAddr: 0xD340, symSize: 0x3B8 }
  - { offset: 0xCC1F, size: 0x8, addend: 0x0, symName: __ZN9orion_sdr6python10demodulate19PyPmQuadratureDemod3new17h50ba9fc255384825E, symObjAddr: 0xB480, symBinAddr: 0xD77C, symSize: 0x48 }
  - { offset: 0xCC77, size: 0x8, addend: 0x0, symName: __ZN9orion_sdr6python10demodulate19PyPmQuadratureDemod7process17hc3c2c7cb0ccde15fE, symObjAddr: 0xB4C8, symBinAddr: 0xD7C4, symSize: 0x6A8 }
  - { offset: 0xCF20, size: 0x8, addend: 0x0, symName: __ZN9orion_sdr6python10demodulate19PyPmQuadratureDemod20__pymethod___new____17h950669018afc77b5E, symObjAddr: 0xBB70, symBinAddr: 0xDE6C, symSize: 0x2E0 }
  - { offset: 0xD0CC, size: 0x8, addend: 0x0, symName: __ZN9orion_sdr6python10demodulate19PyPmQuadratureDemod20__pymethod_process__17hd5b2dc79ee4e0657E, symObjAddr: 0xBE50, symBinAddr: 0xE14C, symSize: 0x3B8 }
  - { offset: 0xD259, size: 0x8, addend: 0x0, symName: __ZN9orion_sdr6python10demodulate11PyBpskDemod3new17hc97930622a4d5692E, symObjAddr: 0xC28C, symBinAddr: 0xE588, symSize: 0x2C }
  - { offset: 0xD288, size: 0x8, addend: 0x0, symName: __ZN9orion_sdr6python10demodulate11PyBpskDemod8set_gain17hbf6a87ce2a6330c0E, symObjAddr: 0xC2B8, symBinAddr: 0xE5B4, symSize: 0x28 }
  - { offset: 0xD2F0, size: 0x8, addend: 0x0, symName: __ZN9orion_sdr6python10demodulate11PyBpskDemod7process17h77c794249b78cc3fE, symObjAddr: 0xC2E0, symBinAddr: 0xE5DC, symSize: 0xF28 }
  - { offset: 0xD4CF, size: 0x8, addend: 0x0, symName: __ZN9orion_sdr6python10demodulate11PyBpskDemod20__pymethod___new____17h0e67622c0147bd36E, symObjAddr: 0xD208, symBinAddr: 0xF504, symSize: 0x164 }
  - { offset: 0xD603, size: 0x8, addend: 0x0, symName: __ZN9orion_sdr6python10demodulate11PyBpskDemod21__pymethod_set_gain__17he785f3204c07b527E, symObjAddr: 0xD36C, symBinAddr: 0xF668, symSize: 0x304 }
  - { offset: 0xD796, size: 0x8, addend: 0x0, symName: __ZN9orion_sdr6python10demodulate11PyBpskDemod20__pymethod_process__17h8bb1a04a8fd435d8E, symObjAddr: 0xD670, symBinAddr: 0xF96C, symSize: 0x3B8 }
  - { offset: 0xD923, size: 0x8, addend: 0x0, symName: __ZN9orion_sdr6python10demodulate11PyQpskDemod3new17h79f77065b04585a9E, symObjAddr: 0xDAAC, symBinAddr: 0xFDA8, symSize: 0x2C }
  - { offset: 0xD952, size: 0x8, addend: 0x0, symName: __ZN9orion_sdr6python10demodulate11PyQpskDemod8set_gain17h883b59ce05d8f30aE, symObjAddr: 0xDAD8, symBinAddr: 0xFDD4, symSize: 0x28 }
  - { offset: 0xD99C, size: 0x8, addend: 0x0, symName: __ZN9orion_sdr6python10demodulate11PyQpskDemod7process17h2a6d9fae9114ba06E, symObjAddr: 0xDB00, symBinAddr: 0xFDFC, symSize: 0x15EC }
  - { offset: 0xDB7B, size: 0x8, addend: 0x0, symName: __ZN9orion_sdr6python10demodulate11PyQpskDemod20__pymethod___new____17h22d35a1eef861fe2E, symObjAddr: 0xF0EC, symBinAddr: 0x113E8, symSize: 0x164 }
  - { offset: 0xDCAF, size: 0x8, addend: 0x0, symName: __ZN9orion_sdr6python10demodulate11PyQpskDemod21__pymethod_set_gain__17hf933a7c0a796dc76E, symObjAddr: 0xF250, symBinAddr: 0x1154C, symSize: 0x304 }
  - { offset: 0xDE42, size: 0x8, addend: 0x0, symName: __ZN9orion_sdr6python10demodulate11PyQpskDemod20__pymethod_process__17heb560afb2e8910c1E, symObjAddr: 0xF554, symBinAddr: 0x11850, symSize: 0x3B8 }
  - { offset: 0xDFCF, size: 0x8, addend: 0x0, symName: __ZN9orion_sdr6python10demodulate10PyQamDemod3new17h2a6af4fc6e455153E, symObjAddr: 0xF990, symBinAddr: 0x11C8C, symSize: 0x198 }
  - { offset: 0xE02A, size: 0x8, addend: 0x0, symName: __ZN9orion_sdr6python10demodulate10PyQamDemod8set_gain17h69574c4221a0c40fE, symObjAddr: 0xFB28, symBinAddr: 0x11E24, symSize: 0x28 }
  - { offset: 0xE067, size: 0x8, addend: 0x0, symName: __ZN9orion_sdr6python10demodulate10PyQamDemod7process17hdc8e254e7bc2a65dE, symObjAddr: 0xFB50, symBinAddr: 0x11E4C, symSize: 0xA84 }
  - { offset: 0xE1E6, size: 0x8, addend: 0x0, symName: __ZN9orion_sdr6python10demodulate10PyQamDemod20__pymethod___new____17hbc53cb795affdd79E, symObjAddr: 0x105D4, symBinAddr: 0x128D0, symSize: 0x248 }
  - { offset: 0xE356, size: 0x8, addend: 0x0, symName: __ZN9orion_sdr6python10demodulate10PyQamDemod21__pymethod_set_gain__17h0090214ea99d8636E, symObjAddr: 0x1081C, symBinAddr: 0x12B18, symSize: 0x304 }
  - { offset: 0xE4E9, size: 0x8, addend: 0x0, symName: __ZN9orion_sdr6python10demodulate10PyQamDemod20__pymethod_process__17h92f3e5aa18721f9cE, symObjAddr: 0x10B20, symBinAddr: 0x12E1C, symSize: 0x3B8 }
  - { offset: 0xEA10, size: 0x8, addend: 0x0, symName: '__ZN9orion_sdr4sync9waterfall17compute_waterfall28_$u7b$$u7b$closure$u7d$$u7d$17hae15906006487053E', symObjAddr: 0x0, symBinAddr: 0x131D4, symSize: 0x80 }
  - { offset: 0xEA31, size: 0x8, addend: 0x0, symName: '__ZN9orion_sdr4sync9waterfall17compute_waterfall28_$u7b$$u7b$closure$u7d$$u7d$17hae15906006487053E', symObjAddr: 0x0, symBinAddr: 0x131D4, symSize: 0x80 }
  - { offset: 0xEB5A, size: 0x8, addend: 0x0, symName: __ZN9orion_sdr7message8callsign17CallsignHashTable3new17hee94a09a95fe856dE, symObjAddr: 0x0, symBinAddr: 0x13254, symSize: 0x3C }
  - { offset: 0xEBE8, size: 0x8, addend: 0x0, symName: __ZN9orion_sdr7message8callsign6hash2217hee304403c9e1c1afE, symObjAddr: 0x240, symBinAddr: 0x13494, symSize: 0x234 }
  - { offset: 0xECC2, size: 0x8, addend: 0x0, symName: __ZN9orion_sdr7message8callsign13pack_basecall17h1f4fbc537d9d126eE, symObjAddr: 0x474, symBinAddr: 0x136C8, symSize: 0x92C }
  - { offset: 0xF010, size: 0x8, addend: 0x0, symName: __ZN9orion_sdr7message8callsign15unpack_basecall17h1420f9f52dfea35aE, symObjAddr: 0xDA0, symBinAddr: 0x13FF4, symSize: 0x5A0 }
  - { offset: 0xF12A, size: 0x8, addend: 0x0, symName: __ZN9orion_sdr7message8callsign6pack2817h954818ba7b810934E, symObjAddr: 0x1340, symBinAddr: 0x14594, symSize: 0x3FC }
  - { offset: 0xF22A, size: 0x8, addend: 0x0, symName: __ZN9orion_sdr7message8callsign8unpack2817hb550717a872a3019E, symObjAddr: 0x173C, symBinAddr: 0x14990, symSize: 0x620 }
  - { offset: 0xF428, size: 0x8, addend: 0x0, symName: __ZN9orion_sdr7message8callsign17parse_cq_modifier17hc6b125c7dccb75d6E, symObjAddr: 0x1D5C, symBinAddr: 0x14FB0, symSize: 0x2B8 }
  - { offset: 0xF4D6, size: 0x8, addend: 0x0, symName: __ZN9orion_sdr7message8callsign6pack5817h69d58b987f52bf5dE, symObjAddr: 0x2014, symBinAddr: 0x15268, symSize: 0x200 }
  - { offset: 0x10026, size: 0x8, addend: 0x0, symName: __ZN9orion_sdr7message8callsign17CallsignHashTable3new17hee94a09a95fe856dE, symObjAddr: 0x0, symBinAddr: 0x13254, symSize: 0x3C }
  - { offset: 0x1009D, size: 0x8, addend: 0x0, symName: __ZN9orion_sdr7message8callsign17CallsignHashTable4save17h67dec75da727b11dE, symObjAddr: 0x3C, symBinAddr: 0x13290, symSize: 0xB8 }
  - { offset: 0x10131, size: 0x8, addend: 0x0, symName: __ZN9orion_sdr7message8callsign17CallsignHashTable10lookup_n1217h0b161a1ab5597e15E, symObjAddr: 0xF4, symBinAddr: 0x13348, symSize: 0x118 }
  - { offset: 0x101C5, size: 0x8, addend: 0x0, symName: __ZN9orion_sdr7message8callsign17CallsignHashTable10lookup_n2217h84267160368e7f14E, symObjAddr: 0x20C, symBinAddr: 0x13460, symSize: 0x34 }
  - { offset: 0x10384, size: 0x8, addend: 0x0, symName: __ZN4core3cmp8Ordering4then17h4b202b7f212c30d1E, symObjAddr: 0x0, symBinAddr: 0x15468, symSize: 0x44 }
  - { offset: 0x103CB, size: 0x8, addend: 0x0, symName: __ZN4core3cmp8Ordering4then17h4b202b7f212c30d1E, symObjAddr: 0x0, symBinAddr: 0x15468, symSize: 0x44 }
  - { offset: 0x10441, size: 0x8, addend: 0x0, symName: '__ZN4core3ops9try_trait26NeverShortCircuit$LT$T$GT$10wrap_mut_128_$u7b$$u7b$closure$u7d$$u7d$17h56558a050cb1e1e0E', symObjAddr: 0x18, symBinAddr: 0x154AC, symSize: 0x28 }
  - { offset: 0x1049B, size: 0x8, addend: 0x0, symName: '__ZN4core3ops9try_trait26NeverShortCircuit$LT$T$GT$10wrap_mut_128_$u7b$$u7b$closure$u7d$$u7d$17hd56281e8ac0bbe1aE', symObjAddr: 0x40, symBinAddr: 0x154D4, symSize: 0x28 }
  - { offset: 0x104FB, size: 0x8, addend: 0x0, symName: '__ZN4core3ops9try_trait26NeverShortCircuit$LT$T$GT$10wrap_mut_228_$u7b$$u7b$closure$u7d$$u7d$17h90ae9b3670fbe2c9E', symObjAddr: 0x68, symBinAddr: 0x154FC, symSize: 0x2C }
  - { offset: 0x10574, size: 0x8, addend: 0x0, symName: '__ZN94_$LT$core..ops..try_trait..NeverShortCircuit$LT$T$GT$$u20$as$u20$core..ops..try_trait..Try$GT$11from_output17h724f1391b25cd801E', symObjAddr: 0x94, symBinAddr: 0x15528, symSize: 0x14 }
  - { offset: 0x105AB, size: 0x8, addend: 0x0, symName: '__ZN94_$LT$core..ops..try_trait..NeverShortCircuit$LT$T$GT$$u20$as$u20$core..ops..try_trait..Try$GT$11from_output17h9ef3ff47e62e5ed5E', symObjAddr: 0xA8, symBinAddr: 0x1553C, symSize: 0x10 }
  - { offset: 0x105E2, size: 0x8, addend: 0x0, symName: '__ZN94_$LT$core..ops..try_trait..NeverShortCircuit$LT$T$GT$$u20$as$u20$core..ops..try_trait..Try$GT$11from_output17he825a70fb3d8f91eE', symObjAddr: 0xB8, symBinAddr: 0x1554C, symSize: 0x30 }
  - { offset: 0x1061A, size: 0x8, addend: 0x0, symName: '__ZN94_$LT$core..ops..try_trait..NeverShortCircuit$LT$T$GT$$u20$as$u20$core..ops..try_trait..Try$GT$6branch17h27b3c0e13b058143E', symObjAddr: 0xE8, symBinAddr: 0x1557C, symSize: 0x18 }
  - { offset: 0x10651, size: 0x8, addend: 0x0, symName: '__ZN94_$LT$core..ops..try_trait..NeverShortCircuit$LT$T$GT$$u20$as$u20$core..ops..try_trait..Try$GT$6branch17h5aa7d56c941fa324E', symObjAddr: 0x100, symBinAddr: 0x15594, symSize: 0x24 }
  - { offset: 0x109AB, size: 0x8, addend: 0x0, symName: '__ZN49_$LT$T$u20$as$u20$core..array..SpecArrayClone$GT$5clone17h3a214385770b720eE', symObjAddr: 0x0, symBinAddr: 0x155B8, symSize: 0x38 }
  - { offset: 0x109C7, size: 0x8, addend: 0x0, symName: '__ZN49_$LT$T$u20$as$u20$core..array..SpecArrayClone$GT$5clone17h3a214385770b720eE', symObjAddr: 0x0, symBinAddr: 0x155B8, symSize: 0x38 }
  - { offset: 0x109FE, size: 0x8, addend: 0x0, symName: '__ZN49_$LT$T$u20$as$u20$core..array..SpecArrayClone$GT$5clone17h449f66ec7ba05b59E', symObjAddr: 0x38, symBinAddr: 0x155F0, symSize: 0x1C }
  - { offset: 0x10A3B, size: 0x8, addend: 0x0, symName: '__ZN4core5array106_$LT$impl$u20$core..iter..traits..collect..IntoIterator$u20$for$u20$$RF$mut$u20$$u5b$T$u3b$$u20$N$u5d$$GT$9into_iter17h83f4fa4018f68d72E', symObjAddr: 0x54, symBinAddr: 0x1560C, symSize: 0x58 }
  - { offset: 0x10B66, size: 0x8, addend: 0x0, symName: __ZN4core5array11try_from_fn17h206e410fc1b823cbE, symObjAddr: 0xAC, symBinAddr: 0x15664, symSize: 0x6C }
  - { offset: 0x10BDE, size: 0x8, addend: 0x0, symName: __ZN4core5array11try_from_fn17hdb8111e65ffdc5aaE, symObjAddr: 0x118, symBinAddr: 0x156D0, symSize: 0x84 }
  - { offset: 0x10CA1, size: 0x8, addend: 0x0, symName: __ZN4core5array18try_from_fn_erased17h40771878325893f5E, symObjAddr: 0x294, symBinAddr: 0x1584C, symSize: 0x10C }
  - { offset: 0x10D5F, size: 0x8, addend: 0x0, symName: __ZN4core5array18try_from_fn_erased17hf732a183e6d50d1aE, symObjAddr: 0x3A0, symBinAddr: 0x15958, symSize: 0x10C }
  - { offset: 0x10E22, size: 0x8, addend: 0x0, symName: '__ZN4core5array71_$LT$impl$u20$core..clone..Clone$u20$for$u20$$u5b$T$u3b$$u20$N$u5d$$GT$5clone17h749bbc9ac5e63d0eE', symObjAddr: 0x4AC, symBinAddr: 0x15A64, symSize: 0x24 }
  - { offset: 0x10E59, size: 0x8, addend: 0x0, symName: '__ZN4core5array71_$LT$impl$u20$core..clone..Clone$u20$for$u20$$u5b$T$u3b$$u20$N$u5d$$GT$5clone17h9384a81a69d65d6fE', symObjAddr: 0x4D0, symBinAddr: 0x15A88, symSize: 0x24 }
  - { offset: 0x10E91, size: 0x8, addend: 0x0, symName: __ZN4core5array7from_fn17h8f1d9df8cf0ff1ccE, symObjAddr: 0x4F4, symBinAddr: 0x15AAC, symSize: 0x44 }
  - { offset: 0x10ECF, size: 0x8, addend: 0x0, symName: __ZN4core5array7from_fn17ha6fd0a9fabced62bE, symObjAddr: 0x538, symBinAddr: 0x15AF0, symSize: 0x40 }
  - { offset: 0x10F12, size: 0x8, addend: 0x0, symName: '__ZN4core5array85_$LT$impl$u20$core..ops..index..Index$LT$I$GT$$u20$for$u20$$u5b$T$u3b$$u20$N$u5d$$GT$5index17hbbf32e7b9bb71697E', symObjAddr: 0x578, symBinAddr: 0x15B30, symSize: 0xAC }
  - { offset: 0x11017, size: 0x8, addend: 0x0, symName: '__ZN4core5array88_$LT$impl$u20$core..ops..index..IndexMut$LT$I$GT$$u20$for$u20$$u5b$T$u3b$$u20$N$u5d$$GT$9index_mut17h6962e40152a52798E', symObjAddr: 0x624, symBinAddr: 0x15BDC, symSize: 0x5C }
  - { offset: 0x1108C, size: 0x8, addend: 0x0, symName: '__ZN4core5array88_$LT$impl$u20$core..ops..index..IndexMut$LT$I$GT$$u20$for$u20$$u5b$T$u3b$$u20$N$u5d$$GT$9index_mut17h9d63fc5ab1484254E', symObjAddr: 0x680, symBinAddr: 0x15C38, symSize: 0x50 }
  - { offset: 0x11107, size: 0x8, addend: 0x0, symName: '__ZN4core5array98_$LT$impl$u20$core..iter..traits..collect..IntoIterator$u20$for$u20$$RF$$u5b$T$u3b$$u20$N$u5d$$GT$9into_iter17h6895a1a16e18e179E', symObjAddr: 0x6D0, symBinAddr: 0x15C88, symSize: 0x58 }
  - { offset: 0x11231, size: 0x8, addend: 0x0, symName: '__ZN4core5array98_$LT$impl$u20$core..iter..traits..collect..IntoIterator$u20$for$u20$$RF$$u5b$T$u3b$$u20$N$u5d$$GT$9into_iter17hc022180def3688bcE', symObjAddr: 0x728, symBinAddr: 0x15CE0, symSize: 0x58 }
  - { offset: 0x1135B, size: 0x8, addend: 0x0, symName: '__ZN4core5array98_$LT$impl$u20$core..iter..traits..collect..IntoIterator$u20$for$u20$$RF$$u5b$T$u3b$$u20$N$u5d$$GT$9into_iter17hc7fb88dad895f5c8E', symObjAddr: 0x780, symBinAddr: 0x15D38, symSize: 0x58 }
  - { offset: 0x12331, size: 0x8, addend: 0x0, symName: '__ZN4core5array14Guard$LT$T$GT$14push_unchecked17h80fe6b29d2cd337eE', symObjAddr: 0x19C, symBinAddr: 0x15754, symSize: 0xF8 }
  - { offset: 0x12896, size: 0x8, addend: 0x0, symName: __ZN3std5panic12catch_unwind17h35b89fd0f1129163E, symObjAddr: 0x0, symBinAddr: 0x15D90, symSize: 0xDC }
  - { offset: 0x12C94, size: 0x8, addend: 0x0, symName: __ZN3std5panic12catch_unwind17h35b89fd0f1129163E, symObjAddr: 0x0, symBinAddr: 0x15D90, symSize: 0xDC }
  - { offset: 0x12D3D, size: 0x8, addend: 0x0, symName: __ZN3std5panic12catch_unwind17h5236812515e3f5f7E, symObjAddr: 0xDC, symBinAddr: 0x15E6C, symSize: 0xDC }
  - { offset: 0x12DE6, size: 0x8, addend: 0x0, symName: __ZN3std5panic12catch_unwind17hcea43c35fa150021E, symObjAddr: 0x1B8, symBinAddr: 0x15F48, symSize: 0xE0 }
  - { offset: 0x12EAF, size: 0x8, addend: 0x0, symName: __ZN3std5panic12catch_unwind17hf19b6bc8fe5aa9f1E, symObjAddr: 0x298, symBinAddr: 0x16028, symSize: 0xF0 }
  - { offset: 0x13D1E, size: 0x8, addend: 0x0, symName: __ZN4pyo35impl_10trampoline11module_exec17h200e4d1add352653E, symObjAddr: 0x0, symBinAddr: 0x1616C, symSize: 0x34 }
  - { offset: 0x13DBF, size: 0x8, addend: 0x0, symName: __ZN4pyo35impl_10trampoline11module_exec17h200e4d1add352653E, symObjAddr: 0x0, symBinAddr: 0x1616C, symSize: 0x34 }
  - { offset: 0x13DF9, size: 0x8, addend: 0x0, symName: __ZN4pyo35impl_10trampoline7dealloc17h646a18892079fbdeE, symObjAddr: 0x34, symBinAddr: 0x161A0, symSize: 0x34 }
  - { offset: 0x146B3, size: 0x8, addend: 0x0, symName: '__ZN87_$LT$$BP$mut$u20$pyo3_ffi..object..PyObject$u20$as$u20$pyo3..ffi_ptr_ext..FfiPtrExt$GT$12assume_owned17h21bc77fb5003faefE', symObjAddr: 0x0, symBinAddr: 0x161D4, symSize: 0x24 }
  - { offset: 0x146E8, size: 0x8, addend: 0x0, symName: __ZN8pyo3_ffi6object10Py_IS_TYPE17ha3d27031c99226c0E, symObjAddr: 0x6C, symBinAddr: 0x16240, symSize: 0x38 }
  - { offset: 0x14722, size: 0x8, addend: 0x0, symName: __ZN8pyo3_ffi6object18PyObject_TypeCheck17h3a9ef9aa6f893e58E, symObjAddr: 0xA4, symBinAddr: 0x16278, symSize: 0x70 }
  - { offset: 0x1475F, size: 0x8, addend: 0x0, symName: __ZN8pyo3_ffi6object7Py_None17h79995c21355b2996E, symObjAddr: 0x114, symBinAddr: 0x162E8, symSize: 0xC }
  - { offset: 0x1477D, size: 0x8, addend: 0x0, symName: __ZN8pyo3_ffi6object7Py_TYPE17h3de1b03d7e1f01c9E, symObjAddr: 0x120, symBinAddr: 0x162F4, symSize: 0x74 }
  - { offset: 0x14815, size: 0x8, addend: 0x0, symName: '__ZN87_$LT$$BP$mut$u20$pyo3_ffi..object..PyObject$u20$as$u20$pyo3..ffi_ptr_ext..FfiPtrExt$GT$12assume_owned17h21bc77fb5003faefE', symObjAddr: 0x0, symBinAddr: 0x161D4, symSize: 0x24 }
  - { offset: 0x1485A, size: 0x8, addend: 0x0, symName: '__ZN87_$LT$$BP$mut$u20$pyo3_ffi..object..PyObject$u20$as$u20$pyo3..ffi_ptr_ext..FfiPtrExt$GT$22assume_borrowed_or_err17h368907e9f7ddaf56E', symObjAddr: 0x24, symBinAddr: 0x161F8, symSize: 0x24 }
  - { offset: 0x1489F, size: 0x8, addend: 0x0, symName: '__ZN87_$LT$$BP$mut$u20$pyo3_ffi..object..PyObject$u20$as$u20$pyo3..ffi_ptr_ext..FfiPtrExt$GT$25assume_borrowed_unchecked17h1edf79d5ff148558E', symObjAddr: 0x48, symBinAddr: 0x1621C, symSize: 0x24 }
  - { offset: 0x15164, size: 0x8, addend: 0x0, symName: __ZN4core5slice5index5range17h02e9ef8288acb2e1E, symObjAddr: 0x0, symBinAddr: 0x16368, symSize: 0x29C }
  - { offset: 0x153E2, size: 0x8, addend: 0x0, symName: __ZN4core5slice5index5range17h02e9ef8288acb2e1E, symObjAddr: 0x0, symBinAddr: 0x16368, symSize: 0x29C }
  - { offset: 0x155ED, size: 0x8, addend: 0x0, symName: __ZN4core5slice5index5range17hc9aeb95e842a7eefE, symObjAddr: 0x29C, symBinAddr: 0x16604, symSize: 0x280 }
  - { offset: 0x157FD, size: 0x8, addend: 0x0, symName: '__ZN75_$LT$usize$u20$as$u20$core..slice..index..SliceIndex$LT$$u5b$T$u5d$$GT$$GT$5index17h1d707509074df9e7E', symObjAddr: 0x51C, symBinAddr: 0x16884, symSize: 0x64 }
  - { offset: 0x15843, size: 0x8, addend: 0x0, symName: '__ZN75_$LT$usize$u20$as$u20$core..slice..index..SliceIndex$LT$$u5b$T$u5d$$GT$$GT$5index17h6d1c81f6d45988b3E', symObjAddr: 0x580, symBinAddr: 0x168E8, symSize: 0x5C }
  - { offset: 0x15889, size: 0x8, addend: 0x0, symName: '__ZN75_$LT$usize$u20$as$u20$core..slice..index..SliceIndex$LT$$u5b$T$u5d$$GT$$GT$5index17h72b9faa1293ecbc3E', symObjAddr: 0x5DC, symBinAddr: 0x16944, symSize: 0x5C }
  - { offset: 0x158CF, size: 0x8, addend: 0x0, symName: '__ZN75_$LT$usize$u20$as$u20$core..slice..index..SliceIndex$LT$$u5b$T$u5d$$GT$$GT$5index17hcbf84e4ffa97e3beE', symObjAddr: 0x638, symBinAddr: 0x169A0, symSize: 0x5C }
  - { offset: 0x15915, size: 0x8, addend: 0x0, symName: '__ZN75_$LT$usize$u20$as$u20$core..slice..index..SliceIndex$LT$$u5b$T$u5d$$GT$$GT$5index17hf337159a2728b404E', symObjAddr: 0x694, symBinAddr: 0x169FC, symSize: 0x5C }
  - { offset: 0x1595B, size: 0x8, addend: 0x0, symName: '__ZN75_$LT$usize$u20$as$u20$core..slice..index..SliceIndex$LT$$u5b$T$u5d$$GT$$GT$9index_mut17h122d878f55a4da96E', symObjAddr: 0x6F0, symBinAddr: 0x16A58, symSize: 0x5C }
  - { offset: 0x159A1, size: 0x8, addend: 0x0, symName: '__ZN75_$LT$usize$u20$as$u20$core..slice..index..SliceIndex$LT$$u5b$T$u5d$$GT$$GT$9index_mut17haeef933985e39410E', symObjAddr: 0x74C, symBinAddr: 0x16AB4, symSize: 0x64 }
  - { offset: 0x159E7, size: 0x8, addend: 0x0, symName: '__ZN75_$LT$usize$u20$as$u20$core..slice..index..SliceIndex$LT$$u5b$T$u5d$$GT$$GT$9index_mut17hb61e73f84ba4a7ceE', symObjAddr: 0x7B0, symBinAddr: 0x16B18, symSize: 0x5C }
  - { offset: 0x15A2D, size: 0x8, addend: 0x0, symName: '__ZN75_$LT$usize$u20$as$u20$core..slice..index..SliceIndex$LT$$u5b$T$u5d$$GT$$GT$9index_mut17hb680207039fcd531E', symObjAddr: 0x80C, symBinAddr: 0x16B74, symSize: 0x5C }
  - { offset: 0x15A73, size: 0x8, addend: 0x0, symName: '__ZN75_$LT$usize$u20$as$u20$core..slice..index..SliceIndex$LT$$u5b$T$u5d$$GT$$GT$9index_mut17hbcaeaf3dd2712656E', symObjAddr: 0x868, symBinAddr: 0x16BD0, symSize: 0x5C }
  - { offset: 0x15AB9, size: 0x8, addend: 0x0, symName: '__ZN75_$LT$usize$u20$as$u20$core..slice..index..SliceIndex$LT$$u5b$T$u5d$$GT$$GT$9index_mut17hf71823cae969a163E', symObjAddr: 0x8C4, symBinAddr: 0x16C2C, symSize: 0x5C }
  - { offset: 0x15FA4, size: 0x8, addend: 0x0, symName: '__ZN4pyo35impl_10trampoline7newfunc5inner28_$u7b$$u7b$closure$u7d$$u7d$17ha0832475e3b7476cE', symObjAddr: 0x0, symBinAddr: 0x16C88, symSize: 0x40 }
  - { offset: 0x1604F, size: 0x8, addend: 0x0, symName: '__ZN4pyo35impl_10trampoline7newfunc5inner28_$u7b$$u7b$closure$u7d$$u7d$17ha0832475e3b7476cE', symObjAddr: 0x0, symBinAddr: 0x16C88, symSize: 0x40 }
  - { offset: 0x16883, size: 0x8, addend: 0x0, symName: '__ZN73_$LT$pyo3..types..any..PyAny$u20$as$u20$pyo3..type_object..PyTypeInfo$GT$15type_object_raw17h204e019e039e6e0fE', symObjAddr: 0x0, symBinAddr: 0x16CC8, symSize: 0x24 }
  - { offset: 0x168EA, size: 0x8, addend: 0x0, symName: '__ZN73_$LT$pyo3..types..any..PyAny$u20$as$u20$pyo3..type_object..PyTypeInfo$GT$15type_object_raw17h204e019e039e6e0fE', symObjAddr: 0x0, symBinAddr: 0x16CC8, symSize: 0x24 }
  - { offset: 0x16A5D, size: 0x8, addend: 0x0, symName: '__ZN111_$LT$alloc..vec..Vec$LT$T$GT$$u20$as$u20$alloc..vec..spec_from_iter_nested..SpecFromIterNested$LT$T$C$I$GT$$GT$9from_iter17h1b5123b191514fceE', symObjAddr: 0x0, symBinAddr: 0x16CEC, symSize: 0x164 }
  - { offset: 0x1B134, size: 0x8, addend: 0x0, symName: '__ZN111_$LT$alloc..vec..Vec$LT$T$GT$$u20$as$u20$alloc..vec..spec_from_iter_nested..SpecFromIterNested$LT$T$C$I$GT$$GT$9from_iter17h1b5123b191514fceE', symObjAddr: 0x0, symBinAddr: 0x16CEC, symSize: 0x164 }
  - { offset: 0x1B20B, size: 0x8, addend: 0x0, symName: '__ZN111_$LT$alloc..vec..Vec$LT$T$GT$$u20$as$u20$alloc..vec..spec_from_iter_nested..SpecFromIterNested$LT$T$C$I$GT$$GT$9from_iter17h27bb94a09de1efe0E', symObjAddr: 0x164, symBinAddr: 0x16E50, symSize: 0x160 }
  - { offset: 0x1B2E1, size: 0x8, addend: 0x0, symName: '__ZN111_$LT$alloc..vec..Vec$LT$T$GT$$u20$as$u20$alloc..vec..spec_from_iter_nested..SpecFromIterNested$LT$T$C$I$GT$$GT$9from_iter17h5f0085d73a7cd92fE', symObjAddr: 0x2C4, symBinAddr: 0x16FB0, symSize: 0x164 }
  - { offset: 0x1B3B8, size: 0x8, addend: 0x0, symName: '__ZN111_$LT$alloc..vec..Vec$LT$T$GT$$u20$as$u20$alloc..vec..spec_from_iter_nested..SpecFromIterNested$LT$T$C$I$GT$$GT$9from_iter17h78504005ab5ef104E', symObjAddr: 0x428, symBinAddr: 0x17114, symSize: 0x164 }
  - { offset: 0x1B48F, size: 0x8, addend: 0x0, symName: '__ZN111_$LT$alloc..vec..Vec$LT$T$GT$$u20$as$u20$alloc..vec..spec_from_iter_nested..SpecFromIterNested$LT$T$C$I$GT$$GT$9from_iter17hb86df3df14527de0E', symObjAddr: 0x7AC, symBinAddr: 0x17498, symSize: 0x17C }
  - { offset: 0x1B566, size: 0x8, addend: 0x0, symName: '__ZN111_$LT$alloc..vec..Vec$LT$T$GT$$u20$as$u20$alloc..vec..spec_from_iter_nested..SpecFromIterNested$LT$T$C$I$GT$$GT$9from_iter17hddbf6a495212c1f9E', symObjAddr: 0x928, symBinAddr: 0x17614, symSize: 0x164 }
  - { offset: 0x1B643, size: 0x8, addend: 0x0, symName: '__ZN111_$LT$alloc..vec..Vec$LT$T$GT$$u20$as$u20$alloc..vec..spec_from_iter_nested..SpecFromIterNested$LT$T$C$I$GT$$GT$9from_iter17ha58afaa56d6c8e76E', symObjAddr: 0x58C, symBinAddr: 0x17278, symSize: 0x220 }
  - { offset: 0x1BEE8, size: 0x8, addend: 0x0, symName: '__ZN132_$LT$alloc..vec..Vec$LT$T$C$A$GT$$u20$as$u20$alloc..vec..spec_extend..SpecExtend$LT$$RF$T$C$core..slice..iter..Iter$LT$T$GT$$GT$$GT$11spec_extend17h0232c3373ed3c6a7E', symObjAddr: 0xA8C, symBinAddr: 0x17778, symSize: 0xA4 }
  - { offset: 0x1C00B, size: 0x8, addend: 0x0, symName: '__ZN97_$LT$alloc..vec..Vec$LT$T$C$A$GT$$u20$as$u20$alloc..vec..spec_extend..SpecExtend$LT$T$C$I$GT$$GT$11spec_extend17h2310baec26d7788dE', symObjAddr: 0x4A10, symBinAddr: 0x1B6FC, symSize: 0x34 }
  - { offset: 0x1C05C, size: 0x8, addend: 0x0, symName: '__ZN97_$LT$alloc..vec..Vec$LT$T$C$A$GT$$u20$as$u20$alloc..vec..spec_extend..SpecExtend$LT$T$C$I$GT$$GT$11spec_extend17h4b3675b76849e18aE', symObjAddr: 0x4A68, symBinAddr: 0x1B754, symSize: 0x24 }
  - { offset: 0x1C0AE, size: 0x8, addend: 0x0, symName: '__ZN97_$LT$alloc..vec..Vec$LT$T$C$A$GT$$u20$as$u20$alloc..vec..spec_extend..SpecExtend$LT$T$C$I$GT$$GT$11spec_extend17h574978abe30e3a13E', symObjAddr: 0x4A8C, symBinAddr: 0x1B778, symSize: 0x24 }
  - { offset: 0x1C100, size: 0x8, addend: 0x0, symName: '__ZN97_$LT$alloc..vec..Vec$LT$T$C$A$GT$$u20$as$u20$alloc..vec..spec_extend..SpecExtend$LT$T$C$I$GT$$GT$11spec_extend17h8e317ca60baf7699E', symObjAddr: 0x4AB0, symBinAddr: 0x1B79C, symSize: 0x24 }
  - { offset: 0x1C152, size: 0x8, addend: 0x0, symName: '__ZN97_$LT$alloc..vec..Vec$LT$T$C$A$GT$$u20$as$u20$alloc..vec..spec_extend..SpecExtend$LT$T$C$I$GT$$GT$11spec_extend17ha32e87d87f9ec578E', symObjAddr: 0x4AD4, symBinAddr: 0x1B7C0, symSize: 0x24 }
  - { offset: 0x1C1A4, size: 0x8, addend: 0x0, symName: '__ZN97_$LT$alloc..vec..Vec$LT$T$C$A$GT$$u20$as$u20$alloc..vec..spec_extend..SpecExtend$LT$T$C$I$GT$$GT$11spec_extend17hcfea7cf707f7a11eE', symObjAddr: 0x4AF8, symBinAddr: 0x1B7E4, symSize: 0x24 }
  - { offset: 0x1C1FC, size: 0x8, addend: 0x0, symName: '__ZN97_$LT$alloc..vec..Vec$LT$T$C$A$GT$$u20$as$u20$alloc..vec..spec_extend..SpecExtend$LT$T$C$I$GT$$GT$11spec_extend17h2d8c027a889d692dE', symObjAddr: 0x4A44, symBinAddr: 0x1B730, symSize: 0x24 }
  - { offset: 0x1CCAE, size: 0x8, addend: 0x0, symName: '__ZN5alloc3vec16Vec$LT$T$C$A$GT$14extend_trusted28_$u7b$$u7b$closure$u7d$$u7d$17h3ad8a7d6dde102afE', symObjAddr: 0x215C, symBinAddr: 0x18E48, symSize: 0x30 }
  - { offset: 0x1CD56, size: 0x8, addend: 0x0, symName: '__ZN5alloc3vec16Vec$LT$T$C$A$GT$14extend_trusted28_$u7b$$u7b$closure$u7d$$u7d$17h5a8062c620b6ee96E', symObjAddr: 0x218C, symBinAddr: 0x18E78, symSize: 0x3C }
  - { offset: 0x1CE13, size: 0x8, addend: 0x0, symName: '__ZN5alloc3vec16Vec$LT$T$C$A$GT$14extend_trusted28_$u7b$$u7b$closure$u7d$$u7d$17h60cab35c330c78c1E', symObjAddr: 0x21C8, symBinAddr: 0x18EB4, symSize: 0x30 }
  - { offset: 0x1CEBB, size: 0x8, addend: 0x0, symName: '__ZN5alloc3vec16Vec$LT$T$C$A$GT$14extend_trusted28_$u7b$$u7b$closure$u7d$$u7d$17h63268a0a7496b824E', symObjAddr: 0x21F8, symBinAddr: 0x18EE4, symSize: 0x30 }
  - { offset: 0x1CF63, size: 0x8, addend: 0x0, symName: '__ZN5alloc3vec16Vec$LT$T$C$A$GT$14extend_trusted28_$u7b$$u7b$closure$u7d$$u7d$17hb641d704d1cd6978E', symObjAddr: 0x2228, symBinAddr: 0x18F14, symSize: 0x30 }
  - { offset: 0x1D00B, size: 0x8, addend: 0x0, symName: '__ZN5alloc3vec16Vec$LT$T$C$A$GT$14extend_trusted28_$u7b$$u7b$closure$u7d$$u7d$17hbb75e0530225e0c2E', symObjAddr: 0x2258, symBinAddr: 0x18F44, symSize: 0x30 }
  - { offset: 0x1D0B5, size: 0x8, addend: 0x0, symName: __ZN5alloc3vec9from_elem17h2144ed9245534011E, symObjAddr: 0x3480, symBinAddr: 0x1A16C, symSize: 0x20 }
  - { offset: 0x1D0FC, size: 0x8, addend: 0x0, symName: __ZN5alloc3vec9from_elem17h51de62b8ca811043E, symObjAddr: 0x34A0, symBinAddr: 0x1A18C, symSize: 0x28 }
  - { offset: 0x1D142, size: 0x8, addend: 0x0, symName: __ZN5alloc3vec9from_elem17h5b3081582eb3306aE, symObjAddr: 0x34C8, symBinAddr: 0x1A1B4, symSize: 0x24 }
  - { offset: 0x1D188, size: 0x8, addend: 0x0, symName: __ZN5alloc3vec9from_elem17h9f20e76bfdf35b7cE, symObjAddr: 0x34EC, symBinAddr: 0x1A1D8, symSize: 0x24 }
  - { offset: 0x1D1CE, size: 0x8, addend: 0x0, symName: __ZN5alloc3vec9from_elem17hc2c736b93e855c5fE, symObjAddr: 0x3510, symBinAddr: 0x1A1FC, symSize: 0x20 }
  - { offset: 0x1D27A, size: 0x8, addend: 0x0, symName: '__ZN72_$LT$alloc..vec..Vec$LT$T$C$A$GT$$u20$as$u20$core..ops..deref..Deref$GT$5deref17h3cbceeaf27e6553bE', symObjAddr: 0x377C, symBinAddr: 0x1A468, symSize: 0x24 }
  - { offset: 0x1D2BA, size: 0x8, addend: 0x0, symName: '__ZN72_$LT$alloc..vec..Vec$LT$T$C$A$GT$$u20$as$u20$core..ops..deref..Deref$GT$5deref17h5c84cabd865a361eE', symObjAddr: 0x37A0, symBinAddr: 0x1A48C, symSize: 0x24 }
  - { offset: 0x1D2FA, size: 0x8, addend: 0x0, symName: '__ZN72_$LT$alloc..vec..Vec$LT$T$C$A$GT$$u20$as$u20$core..ops..deref..Deref$GT$5deref17ha03ed1c482ffb764E', symObjAddr: 0x37C4, symBinAddr: 0x1A4B0, symSize: 0x24 }
  - { offset: 0x1D33A, size: 0x8, addend: 0x0, symName: '__ZN72_$LT$alloc..vec..Vec$LT$T$C$A$GT$$u20$as$u20$core..ops..deref..Deref$GT$5deref17hd2e34ea33cc5f0abE', symObjAddr: 0x37E8, symBinAddr: 0x1A4D4, symSize: 0x24 }
  - { offset: 0x1D37A, size: 0x8, addend: 0x0, symName: '__ZN72_$LT$alloc..vec..Vec$LT$T$C$A$GT$$u20$as$u20$core..ops..deref..Deref$GT$5deref17hf54d50e0879a1355E', symObjAddr: 0x380C, symBinAddr: 0x1A4F8, symSize: 0x24 }
  - { offset: 0x1D510, size: 0x8, addend: 0x0, symName: '__ZN67_$LT$alloc..vec..Vec$LT$T$C$A$GT$$u20$as$u20$core..clone..Clone$GT$5clone17h4ee8fb9f8751ce4bE', symObjAddr: 0x364C, symBinAddr: 0x1A338, symSize: 0x90 }
  - { offset: 0x1D6E1, size: 0x8, addend: 0x0, symName: '__ZN67_$LT$alloc..vec..Vec$LT$T$C$A$GT$$u20$as$u20$core..clone..Clone$GT$5clone17hff4a78c5d31207e4E', symObjAddr: 0x36DC, symBinAddr: 0x1A3C8, symSize: 0x8C }
  - { offset: 0x1D8B8, size: 0x8, addend: 0x0, symName: '__ZN67_$LT$alloc..vec..Vec$LT$T$GT$$u20$as$u20$core..default..Default$GT$7default17h0583efa76d70cddcE', symObjAddr: 0x3768, symBinAddr: 0x1A454, symSize: 0x14 }
  - { offset: 0x1D8DA, size: 0x8, addend: 0x0, symName: '__ZN67_$LT$alloc..vec..Vec$LT$T$GT$$u20$as$u20$core..default..Default$GT$7default17h0583efa76d70cddcE', symObjAddr: 0x3768, symBinAddr: 0x1A454, symSize: 0x14 }
  - { offset: 0x1D8FB, size: 0x8, addend: 0x0, symName: '__ZN75_$LT$alloc..vec..Vec$LT$T$C$A$GT$$u20$as$u20$core..ops..deref..DerefMut$GT$9deref_mut17h062ad0ca70e8b142E', symObjAddr: 0x3BA8, symBinAddr: 0x1A894, symSize: 0x24 }
  - { offset: 0x1D93B, size: 0x8, addend: 0x0, symName: '__ZN75_$LT$alloc..vec..Vec$LT$T$C$A$GT$$u20$as$u20$core..ops..deref..DerefMut$GT$9deref_mut17h2d347fe3b13bd709E', symObjAddr: 0x3BCC, symBinAddr: 0x1A8B8, symSize: 0x24 }
  - { offset: 0x1D97B, size: 0x8, addend: 0x0, symName: '__ZN75_$LT$alloc..vec..Vec$LT$T$C$A$GT$$u20$as$u20$core..ops..deref..DerefMut$GT$9deref_mut17h50a88c30ee0e6aeaE', symObjAddr: 0x3BF0, symBinAddr: 0x1A8DC, symSize: 0x24 }
  - { offset: 0x1D9BB, size: 0x8, addend: 0x0, symName: '__ZN75_$LT$alloc..vec..Vec$LT$T$C$A$GT$$u20$as$u20$core..ops..deref..DerefMut$GT$9deref_mut17h7a01be2f66436dc3E', symObjAddr: 0x3C14, symBinAddr: 0x1A900, symSize: 0x24 }
  - { offset: 0x1DB51, size: 0x8, addend: 0x0, symName: '__ZN81_$LT$alloc..vec..Vec$LT$T$C$A$GT$$u20$as$u20$core..ops..index..Index$LT$I$GT$$GT$5index17h125a96e99b9bce97E', symObjAddr: 0x3C38, symBinAddr: 0x1A924, symSize: 0x88 }
  - { offset: 0x1DCD3, size: 0x8, addend: 0x0, symName: '__ZN81_$LT$alloc..vec..Vec$LT$T$C$A$GT$$u20$as$u20$core..ops..index..Index$LT$I$GT$$GT$5index17h3640467d5eaec0b8E', symObjAddr: 0x3CC0, symBinAddr: 0x1A9AC, symSize: 0x88 }
  - { offset: 0x1DE55, size: 0x8, addend: 0x0, symName: '__ZN81_$LT$alloc..vec..Vec$LT$T$C$A$GT$$u20$as$u20$core..ops..index..Index$LT$I$GT$$GT$5index17h429751670be3838cE', symObjAddr: 0x3D48, symBinAddr: 0x1AA34, symSize: 0x8C }
  - { offset: 0x1DFD7, size: 0x8, addend: 0x0, symName: '__ZN81_$LT$alloc..vec..Vec$LT$T$C$A$GT$$u20$as$u20$core..ops..index..Index$LT$I$GT$$GT$5index17ha79ad547e52e1f5aE', symObjAddr: 0x3DD4, symBinAddr: 0x1AAC0, symSize: 0x8C }
  - { offset: 0x1E159, size: 0x8, addend: 0x0, symName: '__ZN81_$LT$alloc..vec..Vec$LT$T$C$A$GT$$u20$as$u20$core..ops..index..Index$LT$I$GT$$GT$5index17haa1b963cadc30895E', symObjAddr: 0x3E60, symBinAddr: 0x1AB4C, symSize: 0x8C }
  - { offset: 0x1E2E1, size: 0x8, addend: 0x0, symName: '__ZN84_$LT$alloc..vec..Vec$LT$T$C$A$GT$$u20$as$u20$core..ops..index..IndexMut$LT$I$GT$$GT$9index_mut17h21ceba6b183d1fabE', symObjAddr: 0x3EEC, symBinAddr: 0x1ABD8, symSize: 0x8C }
  - { offset: 0x1E435, size: 0x8, addend: 0x0, symName: '__ZN84_$LT$alloc..vec..Vec$LT$T$C$A$GT$$u20$as$u20$core..ops..index..IndexMut$LT$I$GT$$GT$9index_mut17h2d5c00e167e4eca8E', symObjAddr: 0x3F78, symBinAddr: 0x1AC64, symSize: 0x98 }
  - { offset: 0x1E589, size: 0x8, addend: 0x0, symName: '__ZN84_$LT$alloc..vec..Vec$LT$T$C$A$GT$$u20$as$u20$core..ops..index..IndexMut$LT$I$GT$$GT$9index_mut17h357a1e8cd9791c17E', symObjAddr: 0x4010, symBinAddr: 0x1ACFC, symSize: 0x88 }
  - { offset: 0x1E6DD, size: 0x8, addend: 0x0, symName: '__ZN84_$LT$alloc..vec..Vec$LT$T$C$A$GT$$u20$as$u20$core..ops..index..IndexMut$LT$I$GT$$GT$9index_mut17h5331be7499ba2ac6E', symObjAddr: 0x4098, symBinAddr: 0x1AD84, symSize: 0x88 }
  - { offset: 0x1E831, size: 0x8, addend: 0x0, symName: '__ZN84_$LT$alloc..vec..Vec$LT$T$C$A$GT$$u20$as$u20$core..ops..index..IndexMut$LT$I$GT$$GT$9index_mut17h5c867d1f96c2bb61E', symObjAddr: 0x4120, symBinAddr: 0x1AE0C, symSize: 0x8C }
  - { offset: 0x1E985, size: 0x8, addend: 0x0, symName: '__ZN84_$LT$alloc..vec..Vec$LT$T$C$A$GT$$u20$as$u20$core..ops..index..IndexMut$LT$I$GT$$GT$9index_mut17h71a7945dd48dd4f4E', symObjAddr: 0x41AC, symBinAddr: 0x1AE98, symSize: 0x8C }
  - { offset: 0x1EAD9, size: 0x8, addend: 0x0, symName: '__ZN84_$LT$alloc..vec..Vec$LT$T$C$A$GT$$u20$as$u20$core..ops..index..IndexMut$LT$I$GT$$GT$9index_mut17hfdf6058376df736fE', symObjAddr: 0x4238, symBinAddr: 0x1AF24, symSize: 0x8C }
  - { offset: 0x1EC33, size: 0x8, addend: 0x0, symName: '__ZN90_$LT$alloc..vec..Vec$LT$T$C$A$GT$$u20$as$u20$core..iter..traits..collect..IntoIterator$GT$9into_iter17h06628c3f0bcc251fE', symObjAddr: 0x42C4, symBinAddr: 0x1AFB0, symSize: 0xE4 }
  - { offset: 0x1EEC5, size: 0x8, addend: 0x0, symName: '__ZN90_$LT$alloc..vec..Vec$LT$T$C$A$GT$$u20$as$u20$core..iter..traits..collect..IntoIterator$GT$9into_iter17h174e5ce66cf9a8c9E', symObjAddr: 0x43A8, symBinAddr: 0x1B094, symSize: 0xDC }
  - { offset: 0x1F157, size: 0x8, addend: 0x0, symName: '__ZN90_$LT$alloc..vec..Vec$LT$T$C$A$GT$$u20$as$u20$core..iter..traits..collect..IntoIterator$GT$9into_iter17h568e99b2a6eb79aaE', symObjAddr: 0x4484, symBinAddr: 0x1B170, symSize: 0xE4 }
  - { offset: 0x1F3E9, size: 0x8, addend: 0x0, symName: '__ZN90_$LT$alloc..vec..Vec$LT$T$C$A$GT$$u20$as$u20$core..iter..traits..collect..IntoIterator$GT$9into_iter17h608c9dc76eeb640cE', symObjAddr: 0x4568, symBinAddr: 0x1B254, symSize: 0xDC }
  - { offset: 0x1F67B, size: 0x8, addend: 0x0, symName: '__ZN90_$LT$alloc..vec..Vec$LT$T$C$A$GT$$u20$as$u20$core..iter..traits..collect..IntoIterator$GT$9into_iter17hcb8970065d2b7a92E', symObjAddr: 0x4644, symBinAddr: 0x1B330, symSize: 0xE4 }
  - { offset: 0x1F913, size: 0x8, addend: 0x0, symName: '__ZN94_$LT$$RF$alloc..vec..Vec$LT$T$C$A$GT$$u20$as$u20$core..iter..traits..collect..IntoIterator$GT$9into_iter17h397e5f6fb690b7a6E', symObjAddr: 0x4728, symBinAddr: 0x1B414, symSize: 0xA0 }
  - { offset: 0x1FB51, size: 0x8, addend: 0x0, symName: '__ZN94_$LT$$RF$alloc..vec..Vec$LT$T$C$A$GT$$u20$as$u20$core..iter..traits..collect..IntoIterator$GT$9into_iter17h8ccf6e3b61b103dcE', symObjAddr: 0x47C8, symBinAddr: 0x1B4B4, symSize: 0xA0 }
  - { offset: 0x1FD95, size: 0x8, addend: 0x0, symName: '__ZN95_$LT$alloc..vec..Vec$LT$T$GT$$u20$as$u20$core..iter..traits..collect..FromIterator$LT$T$GT$$GT$9from_iter17h73e1a55d705fe954E', symObjAddr: 0x4868, symBinAddr: 0x1B554, symSize: 0x3C }
  - { offset: 0x1FDD6, size: 0x8, addend: 0x0, symName: '__ZN95_$LT$alloc..vec..Vec$LT$T$GT$$u20$as$u20$core..iter..traits..collect..FromIterator$LT$T$GT$$GT$9from_iter17h83a966751e5ad1d5E', symObjAddr: 0x48A4, symBinAddr: 0x1B590, symSize: 0x3C }
  - { offset: 0x1FE17, size: 0x8, addend: 0x0, symName: '__ZN95_$LT$alloc..vec..Vec$LT$T$GT$$u20$as$u20$core..iter..traits..collect..FromIterator$LT$T$GT$$GT$9from_iter17h8d7e0f7e0dbbe6a8E', symObjAddr: 0x48E0, symBinAddr: 0x1B5CC, symSize: 0x3C }
  - { offset: 0x1FE58, size: 0x8, addend: 0x0, symName: '__ZN95_$LT$alloc..vec..Vec$LT$T$GT$$u20$as$u20$core..iter..traits..collect..FromIterator$LT$T$GT$$GT$9from_iter17hab60e5f1bb2c3207E', symObjAddr: 0x491C, symBinAddr: 0x1B608, symSize: 0x3C }
  - { offset: 0x1FE99, size: 0x8, addend: 0x0, symName: '__ZN95_$LT$alloc..vec..Vec$LT$T$GT$$u20$as$u20$core..iter..traits..collect..FromIterator$LT$T$GT$$GT$9from_iter17hd6f1a1f729f842bfE', symObjAddr: 0x4958, symBinAddr: 0x1B644, symSize: 0x3C }
  - { offset: 0x1FEDA, size: 0x8, addend: 0x0, symName: '__ZN95_$LT$alloc..vec..Vec$LT$T$GT$$u20$as$u20$core..iter..traits..collect..FromIterator$LT$T$GT$$GT$9from_iter17heaea252a20a56623E', symObjAddr: 0x4994, symBinAddr: 0x1B680, symSize: 0x40 }
  - { offset: 0x1FF1A, size: 0x8, addend: 0x0, symName: '__ZN95_$LT$alloc..vec..Vec$LT$T$GT$$u20$as$u20$core..iter..traits..collect..FromIterator$LT$T$GT$$GT$9from_iter17hf6e0d27fb57897a9E', symObjAddr: 0x49D4, symBinAddr: 0x1B6C0, symSize: 0x3C }
  - { offset: 0x1FF66, size: 0x8, addend: 0x0, symName: '__ZN98_$LT$alloc..vec..Vec$LT$T$GT$$u20$as$u20$alloc..vec..spec_from_iter..SpecFromIter$LT$T$C$I$GT$$GT$9from_iter17h25d2bb69a57e771fE', symObjAddr: 0x4B1C, symBinAddr: 0x1B808, symSize: 0x14 }
  - { offset: 0x1FFA5, size: 0x8, addend: 0x0, symName: '__ZN98_$LT$alloc..vec..Vec$LT$T$GT$$u20$as$u20$alloc..vec..spec_from_iter..SpecFromIter$LT$T$C$I$GT$$GT$9from_iter17h269c8d5ba907f36dE', symObjAddr: 0x4B30, symBinAddr: 0x1B81C, symSize: 0x14 }
  - { offset: 0x1FFE4, size: 0x8, addend: 0x0, symName: '__ZN98_$LT$alloc..vec..Vec$LT$T$GT$$u20$as$u20$alloc..vec..spec_from_iter..SpecFromIter$LT$T$C$I$GT$$GT$9from_iter17h35f3fabbff41c966E', symObjAddr: 0x4B44, symBinAddr: 0x1B830, symSize: 0x2C }
  - { offset: 0x20022, size: 0x8, addend: 0x0, symName: '__ZN98_$LT$alloc..vec..Vec$LT$T$GT$$u20$as$u20$alloc..vec..spec_from_iter..SpecFromIter$LT$T$C$I$GT$$GT$9from_iter17h50d55a00e57a7396E', symObjAddr: 0x4B70, symBinAddr: 0x1B85C, symSize: 0x14 }
  - { offset: 0x20061, size: 0x8, addend: 0x0, symName: '__ZN98_$LT$alloc..vec..Vec$LT$T$GT$$u20$as$u20$alloc..vec..spec_from_iter..SpecFromIter$LT$T$C$I$GT$$GT$9from_iter17h56c47a0be51e43c0E', symObjAddr: 0x4B84, symBinAddr: 0x1B870, symSize: 0x14 }
  - { offset: 0x200A0, size: 0x8, addend: 0x0, symName: '__ZN98_$LT$alloc..vec..Vec$LT$T$GT$$u20$as$u20$alloc..vec..spec_from_iter..SpecFromIter$LT$T$C$I$GT$$GT$9from_iter17h74c13f6839de0660E', symObjAddr: 0x4B98, symBinAddr: 0x1B884, symSize: 0x14 }
  - { offset: 0x200DF, size: 0x8, addend: 0x0, symName: '__ZN98_$LT$alloc..vec..Vec$LT$T$GT$$u20$as$u20$alloc..vec..spec_from_iter..SpecFromIter$LT$T$C$I$GT$$GT$9from_iter17haf750a991949890aE', symObjAddr: 0x4BAC, symBinAddr: 0x1B898, symSize: 0x14 }
  - { offset: 0x203D4, size: 0x8, addend: 0x0, symName: '__ZN5alloc5slice99_$LT$impl$u20$core..slice..sort..stable..BufGuard$LT$T$GT$$u20$for$u20$alloc..vec..Vec$LT$T$GT$$GT$13with_capacity17he7c92a8a773e6ad4E', symObjAddr: 0x3530, symBinAddr: 0x1A21C, symSize: 0x4C }
  - { offset: 0x20475, size: 0x8, addend: 0x0, symName: '__ZN5alloc5slice99_$LT$impl$u20$core..slice..sort..stable..BufGuard$LT$T$GT$$u20$for$u20$alloc..vec..Vec$LT$T$GT$$GT$19as_uninit_slice_mut17ha6016684bc9600a9E', symObjAddr: 0x357C, symBinAddr: 0x1A268, symSize: 0xD0 }
  - { offset: 0x20EEB, size: 0x8, addend: 0x0, symName: '__ZN5alloc3vec12Vec$LT$T$GT$13with_capacity17h2e509b478e17cc3eE', symObjAddr: 0xB30, symBinAddr: 0x1781C, symSize: 0x48 }
  - { offset: 0x20FCC, size: 0x8, addend: 0x0, symName: '__ZN5alloc3vec12Vec$LT$T$GT$13with_capacity17h65ed03a4476a27aeE', symObjAddr: 0xB78, symBinAddr: 0x17864, symSize: 0x44 }
  - { offset: 0x210A6, size: 0x8, addend: 0x0, symName: '__ZN5alloc3vec12Vec$LT$T$GT$13with_capacity17hb06edfdbb192f907E', symObjAddr: 0xBBC, symBinAddr: 0x178A8, symSize: 0x48 }
  - { offset: 0x21180, size: 0x8, addend: 0x0, symName: '__ZN5alloc3vec12Vec$LT$T$GT$13with_capacity17hfec49e7cdcaa06caE', symObjAddr: 0xC04, symBinAddr: 0x178F0, symSize: 0x48 }
  - { offset: 0x21242, size: 0x8, addend: 0x0, symName: '__ZN5alloc3vec12Vec$LT$T$GT$14from_raw_parts17h5f99c9c4f058e0d4E', symObjAddr: 0xC4C, symBinAddr: 0x17938, symSize: 0x54 }
  - { offset: 0x21319, size: 0x8, addend: 0x0, symName: '__ZN5alloc3vec12Vec$LT$T$GT$14from_raw_parts17h67ad380f9c4eb85bE', symObjAddr: 0xCA0, symBinAddr: 0x1798C, symSize: 0x54 }
  - { offset: 0x213F0, size: 0x8, addend: 0x0, symName: '__ZN5alloc3vec12Vec$LT$T$GT$14from_raw_parts17hdb8450441c992d58E', symObjAddr: 0xCF4, symBinAddr: 0x179E0, symSize: 0x54 }
  - { offset: 0x21470, size: 0x8, addend: 0x0, symName: '__ZN5alloc3vec12Vec$LT$T$GT$3new17h0f2e90b28c6dd288E', symObjAddr: 0xD48, symBinAddr: 0x17A34, symSize: 0x14 }
  - { offset: 0x2148D, size: 0x8, addend: 0x0, symName: '__ZN5alloc3vec12Vec$LT$T$GT$3new17h5b2d9df7bcafe9c7E', symObjAddr: 0xD5C, symBinAddr: 0x17A48, symSize: 0x14 }
  - { offset: 0x214AA, size: 0x8, addend: 0x0, symName: '__ZN5alloc3vec12Vec$LT$T$GT$3new17h8668b74e0c4724deE', symObjAddr: 0xD70, symBinAddr: 0x17A5C, symSize: 0x14 }
  - { offset: 0x214C7, size: 0x8, addend: 0x0, symName: '__ZN5alloc3vec12Vec$LT$T$GT$3new17h8d8f172329df1f88E', symObjAddr: 0xD84, symBinAddr: 0x17A70, symSize: 0x14 }
  - { offset: 0x214E4, size: 0x8, addend: 0x0, symName: '__ZN5alloc3vec12Vec$LT$T$GT$3new17hbdff5d6f3a25cb5aE', symObjAddr: 0xD98, symBinAddr: 0x17A84, symSize: 0x14 }
  - { offset: 0x2154C, size: 0x8, addend: 0x0, symName: '__ZN5alloc3vec16Vec$LT$T$C$A$GT$10as_mut_ptr17h29e217266c13bc40E', symObjAddr: 0xDAC, symBinAddr: 0x17A98, symSize: 0x18 }
  - { offset: 0x21627, size: 0x8, addend: 0x0, symName: '__ZN5alloc3vec16Vec$LT$T$C$A$GT$10as_mut_ptr17h48481a25ccc1e684E', symObjAddr: 0xDC4, symBinAddr: 0x17AB0, symSize: 0x18 }
  - { offset: 0x2170F, size: 0x8, addend: 0x0, symName: '__ZN5alloc3vec16Vec$LT$T$C$A$GT$10as_mut_ptr17h84e150b3dd5eb057E', symObjAddr: 0xDDC, symBinAddr: 0x17AC8, symSize: 0x18 }
  - { offset: 0x218A2, size: 0x8, addend: 0x0, symName: '__ZN5alloc3vec16Vec$LT$T$C$A$GT$11extend_with17h06e5904551203766E', symObjAddr: 0xDF4, symBinAddr: 0x17AE0, symSize: 0x240 }
  - { offset: 0x21C79, size: 0x8, addend: 0x0, symName: '__ZN5alloc3vec16Vec$LT$T$C$A$GT$11extend_with17h0977b203aaf7fe86E', symObjAddr: 0x1034, symBinAddr: 0x17D20, symSize: 0x254 }
  - { offset: 0x2201E, size: 0x8, addend: 0x0, symName: '__ZN5alloc3vec16Vec$LT$T$C$A$GT$11extend_with17h85a94d107cedec92E', symObjAddr: 0x1288, symBinAddr: 0x17F74, symSize: 0x224 }
  - { offset: 0x22422, size: 0x8, addend: 0x0, symName: '__ZN5alloc3vec16Vec$LT$T$C$A$GT$11extend_with17hd63625af406c6f67E', symObjAddr: 0x14AC, symBinAddr: 0x18198, symSize: 0x228 }
  - { offset: 0x2278A, size: 0x8, addend: 0x0, symName: '__ZN5alloc3vec16Vec$LT$T$C$A$GT$12as_mut_slice17h254ccaca59a8f5c7E', symObjAddr: 0x16D4, symBinAddr: 0x183C0, symSize: 0x6C }
  - { offset: 0x228F7, size: 0x8, addend: 0x0, symName: '__ZN5alloc3vec16Vec$LT$T$C$A$GT$12as_mut_slice17h4bddf9e8611cf04fE', symObjAddr: 0x1740, symBinAddr: 0x1842C, symSize: 0x68 }
  - { offset: 0x22AA1, size: 0x8, addend: 0x0, symName: '__ZN5alloc3vec16Vec$LT$T$C$A$GT$12as_mut_slice17h66f1b57fddc4b574E', symObjAddr: 0x17A8, symBinAddr: 0x18494, symSize: 0x6C }
  - { offset: 0x22C4B, size: 0x8, addend: 0x0, symName: '__ZN5alloc3vec16Vec$LT$T$C$A$GT$12as_mut_slice17he794cfe4db8cb7b7E', symObjAddr: 0x1814, symBinAddr: 0x18500, symSize: 0x6C }
  - { offset: 0x22DF7, size: 0x8, addend: 0x0, symName: '__ZN5alloc3vec16Vec$LT$T$C$A$GT$14extend_trusted17h6389efdcca999a52E', symObjAddr: 0x1880, symBinAddr: 0x1856C, symSize: 0x178 }
  - { offset: 0x230BA, size: 0x8, addend: 0x0, symName: '__ZN5alloc3vec16Vec$LT$T$C$A$GT$14extend_trusted17h688917af03cfb4abE', symObjAddr: 0x19F8, symBinAddr: 0x186E4, symSize: 0x178 }
  - { offset: 0x23370, size: 0x8, addend: 0x0, symName: '__ZN5alloc3vec16Vec$LT$T$C$A$GT$14extend_trusted17h806954e96f0259ddE', symObjAddr: 0x1B70, symBinAddr: 0x1885C, symSize: 0x190 }
  - { offset: 0x23668, size: 0x8, addend: 0x0, symName: '__ZN5alloc3vec16Vec$LT$T$C$A$GT$14extend_trusted17h846edfcc578260d7E', symObjAddr: 0x1D00, symBinAddr: 0x189EC, symSize: 0x16C }
  - { offset: 0x2391D, size: 0x8, addend: 0x0, symName: '__ZN5alloc3vec16Vec$LT$T$C$A$GT$14extend_trusted17hb36334e3eff483a7E', symObjAddr: 0x1E6C, symBinAddr: 0x18B58, symSize: 0x178 }
  - { offset: 0x23BD3, size: 0x8, addend: 0x0, symName: '__ZN5alloc3vec16Vec$LT$T$C$A$GT$14extend_trusted17he750253aaa07e4e5E', symObjAddr: 0x1FE4, symBinAddr: 0x18CD0, symSize: 0x178 }
  - { offset: 0x23EC0, size: 0x8, addend: 0x0, symName: '__ZN5alloc3vec16Vec$LT$T$C$A$GT$15append_elements17h3df6a76eddc0d2d8E', symObjAddr: 0x2288, symBinAddr: 0x18F74, symSize: 0xDC }
  - { offset: 0x241D3, size: 0x8, addend: 0x0, symName: '__ZN5alloc3vec16Vec$LT$T$C$A$GT$16extend_desugared17h8d072a7bf8076477E', symObjAddr: 0x2364, symBinAddr: 0x19050, symSize: 0x19C }
  - { offset: 0x244AF, size: 0x8, addend: 0x0, symName: '__ZN5alloc3vec16Vec$LT$T$C$A$GT$17extend_from_slice17h1bba5b0b027a45acE', symObjAddr: 0x2500, symBinAddr: 0x191EC, symSize: 0x74 }
  - { offset: 0x245ED, size: 0x8, addend: 0x0, symName: '__ZN5alloc3vec16Vec$LT$T$C$A$GT$3len17h4114e73f4dc8c4d9E', symObjAddr: 0x2574, symBinAddr: 0x19260, symSize: 0x18 }
  - { offset: 0x24622, size: 0x8, addend: 0x0, symName: '__ZN5alloc3vec16Vec$LT$T$C$A$GT$3len17h63322ec8f27780c0E', symObjAddr: 0x258C, symBinAddr: 0x19278, symSize: 0x18 }
  - { offset: 0x24657, size: 0x8, addend: 0x0, symName: '__ZN5alloc3vec16Vec$LT$T$C$A$GT$3len17h6f6ead1877bce069E', symObjAddr: 0x25A4, symBinAddr: 0x19290, symSize: 0x18 }
  - { offset: 0x24699, size: 0x8, addend: 0x0, symName: '__ZN5alloc3vec16Vec$LT$T$C$A$GT$3len17ha1a1e6e49699ed7dE', symObjAddr: 0x25BC, symBinAddr: 0x192A8, symSize: 0x18 }
  - { offset: 0x246DB, size: 0x8, addend: 0x0, symName: '__ZN5alloc3vec16Vec$LT$T$C$A$GT$3len17hc215aa7d5e94ea88E', symObjAddr: 0x25D4, symBinAddr: 0x192C0, symSize: 0x18 }
  - { offset: 0x247EF, size: 0x8, addend: 0x0, symName: '__ZN5alloc3vec16Vec$LT$T$C$A$GT$4push17h5250303f5dda53ddE', symObjAddr: 0x25EC, symBinAddr: 0x192D8, symSize: 0xE4 }
  - { offset: 0x24AB6, size: 0x8, addend: 0x0, symName: '__ZN5alloc3vec16Vec$LT$T$C$A$GT$4push17h67f214eb36ff1379E', symObjAddr: 0x26D0, symBinAddr: 0x193BC, symSize: 0xE0 }
  - { offset: 0x24D7B, size: 0x8, addend: 0x0, symName: '__ZN5alloc3vec16Vec$LT$T$C$A$GT$4push17h6b61ac28f66c791dE', symObjAddr: 0x27B0, symBinAddr: 0x1949C, symSize: 0xF4 }
  - { offset: 0x25041, size: 0x8, addend: 0x0, symName: '__ZN5alloc3vec16Vec$LT$T$C$A$GT$4push17hbd851091212acd12E', symObjAddr: 0x28A4, symBinAddr: 0x19590, symSize: 0x110 }
  - { offset: 0x252D7, size: 0x8, addend: 0x0, symName: '__ZN5alloc3vec16Vec$LT$T$C$A$GT$4push17hca210d3ea2c66d4cE', symObjAddr: 0x29B4, symBinAddr: 0x196A0, symSize: 0x118 }
  - { offset: 0x2559F, size: 0x8, addend: 0x0, symName: '__ZN5alloc3vec16Vec$LT$T$C$A$GT$4push17hed7f693baac86a96E', symObjAddr: 0x2ACC, symBinAddr: 0x197B8, symSize: 0x110 }
  - { offset: 0x25819, size: 0x8, addend: 0x0, symName: '__ZN5alloc3vec16Vec$LT$T$C$A$GT$5clear17hfa62f194cb2ee0beE', symObjAddr: 0x2BDC, symBinAddr: 0x198C8, symSize: 0x7C }
  - { offset: 0x25A8E, size: 0x8, addend: 0x0, symName: '__ZN5alloc3vec16Vec$LT$T$C$A$GT$7reserve17h13bfe7c5f96a25f4E', symObjAddr: 0x2C58, symBinAddr: 0x19944, symSize: 0xC8 }
  - { offset: 0x25D0B, size: 0x8, addend: 0x0, symName: '__ZN5alloc3vec16Vec$LT$T$C$A$GT$7reserve17h1860dbcd27e2b5e4E', symObjAddr: 0x2D20, symBinAddr: 0x19A0C, symSize: 0xBC }
  - { offset: 0x25F88, size: 0x8, addend: 0x0, symName: '__ZN5alloc3vec16Vec$LT$T$C$A$GT$7reserve17h5011721b29488610E', symObjAddr: 0x2DDC, symBinAddr: 0x19AC8, symSize: 0xBC }
  - { offset: 0x26205, size: 0x8, addend: 0x0, symName: '__ZN5alloc3vec16Vec$LT$T$C$A$GT$7reserve17h8e7cd21d65bb2e7eE', symObjAddr: 0x2E98, symBinAddr: 0x19B84, symSize: 0xC8 }
  - { offset: 0x26482, size: 0x8, addend: 0x0, symName: '__ZN5alloc3vec16Vec$LT$T$C$A$GT$7reserve17he66a10ea19f78f1bE', symObjAddr: 0x2F60, symBinAddr: 0x19C4C, symSize: 0xC8 }
  - { offset: 0x2668D, size: 0x8, addend: 0x0, symName: '__ZN5alloc3vec16Vec$LT$T$C$A$GT$8as_slice17h12d9062fe0043539E', symObjAddr: 0x3028, symBinAddr: 0x19D14, symSize: 0x68 }
  - { offset: 0x267D5, size: 0x8, addend: 0x0, symName: '__ZN5alloc3vec16Vec$LT$T$C$A$GT$8as_slice17h1ed23f585972794fE', symObjAddr: 0x3090, symBinAddr: 0x19D7C, symSize: 0x6C }
  - { offset: 0x268FF, size: 0x8, addend: 0x0, symName: '__ZN5alloc3vec16Vec$LT$T$C$A$GT$8as_slice17h4125bb74e9494f77E', symObjAddr: 0x30FC, symBinAddr: 0x19DE8, symSize: 0x68 }
  - { offset: 0x26A54, size: 0x8, addend: 0x0, symName: '__ZN5alloc3vec16Vec$LT$T$C$A$GT$8as_slice17hdd1235647309c7b8E', symObjAddr: 0x3164, symBinAddr: 0x19E50, symSize: 0x6C }
  - { offset: 0x26B7E, size: 0x8, addend: 0x0, symName: '__ZN5alloc3vec16Vec$LT$T$C$A$GT$8as_slice17he9c8ef73ec7a01d1E', symObjAddr: 0x31D0, symBinAddr: 0x19EBC, symSize: 0x68 }
  - { offset: 0x26C97, size: 0x8, addend: 0x0, symName: '__ZN5alloc3vec16Vec$LT$T$C$A$GT$8capacity17h007710aaa4ef1caaE', symObjAddr: 0x3238, symBinAddr: 0x19F24, symSize: 0x48 }
  - { offset: 0x26DA2, size: 0x8, addend: 0x0, symName: '__ZN5alloc3vec16Vec$LT$T$C$A$GT$8capacity17h062ae5eaa87683e4E', symObjAddr: 0x3280, symBinAddr: 0x19F6C, symSize: 0x48 }
  - { offset: 0x26EAD, size: 0x8, addend: 0x0, symName: '__ZN5alloc3vec16Vec$LT$T$C$A$GT$8capacity17h9a61f7221fcd9007E', symObjAddr: 0x32C8, symBinAddr: 0x19FB4, symSize: 0x48 }
  - { offset: 0x26F7E, size: 0x8, addend: 0x0, symName: '__ZN5alloc3vec16Vec$LT$T$C$A$GT$8is_empty17h774f6ef023eae604E', symObjAddr: 0x3310, symBinAddr: 0x19FFC, symSize: 0x20 }
  - { offset: 0x2706F, size: 0x8, addend: 0x0, symName: '__ZN5alloc3vec16Vec$LT$T$C$A$GT$8truncate17h161f898b98e83853E', symObjAddr: 0x3330, symBinAddr: 0x1A01C, symSize: 0x80 }
  - { offset: 0x27262, size: 0x8, addend: 0x0, symName: '__ZN5alloc3vec16Vec$LT$T$C$A$GT$8truncate17ha30b2780a0b47d6eE', symObjAddr: 0x33B0, symBinAddr: 0x1A09C, symSize: 0x68 }
  - { offset: 0x27438, size: 0x8, addend: 0x0, symName: '__ZN5alloc3vec16Vec$LT$T$C$A$GT$8truncate17hb7edea41300ea59eE', symObjAddr: 0x3418, symBinAddr: 0x1A104, symSize: 0x68 }
  - { offset: 0x2798F, size: 0x8, addend: 0x0, symName: '__ZN72_$LT$alloc..vec..Vec$LT$T$GT$$u20$as$u20$numpy..convert..IntoPyArray$GT$12into_pyarray17h09e7feb5922e68b3E', symObjAddr: 0x3830, symBinAddr: 0x1A51C, symSize: 0x128 }
  - { offset: 0x27A68, size: 0x8, addend: 0x0, symName: '__ZN72_$LT$alloc..vec..Vec$LT$T$GT$$u20$as$u20$numpy..convert..IntoPyArray$GT$12into_pyarray17h10e9cb70aa938d81E', symObjAddr: 0x3958, symBinAddr: 0x1A644, symSize: 0x128 }
  - { offset: 0x27B41, size: 0x8, addend: 0x0, symName: '__ZN72_$LT$alloc..vec..Vec$LT$T$GT$$u20$as$u20$numpy..convert..IntoPyArray$GT$12into_pyarray17h1145ae118c3e1b46E', symObjAddr: 0x3A80, symBinAddr: 0x1A76C, symSize: 0x128 }
  - { offset: 0x29166, size: 0x8, addend: 0x0, symName: __ZN4core4char7methods15encode_utf8_raw17h18a43aef27ca368aE, symObjAddr: 0x0, symBinAddr: 0x1B8AC, symSize: 0x110 }
  - { offset: 0x291D4, size: 0x8, addend: 0x0, symName: __ZN4core4char7methods15encode_utf8_raw17h18a43aef27ca368aE, symObjAddr: 0x0, symBinAddr: 0x1B8AC, symSize: 0x110 }
  - { offset: 0x292BB, size: 0x8, addend: 0x0, symName: '__ZN4core4char7methods22_$LT$impl$u20$char$GT$14is_ascii_digit17h6dabc258bde371aeE', symObjAddr: 0x110, symBinAddr: 0x1B9BC, symSize: 0x64 }
  - { offset: 0x292E9, size: 0x8, addend: 0x0, symName: '__ZN4core4char7methods22_$LT$impl$u20$char$GT$18is_ascii_uppercase17hae45784dea674c90E', symObjAddr: 0x174, symBinAddr: 0x1BA20, symSize: 0x64 }
  - { offset: 0x29317, size: 0x8, addend: 0x0, symName: '__ZN4core4char7methods22_$LT$impl$u20$char$GT$8from_u3217h59a194d882b504aeE', symObjAddr: 0x1D8, symBinAddr: 0x1BA84, symSize: 0x20 }
  - { offset: 0x29343, size: 0x8, addend: 0x0, symName: '__ZN4core4char7methods22_$LT$impl$u20$char$GT$8to_digit17h67fffa0b91e9b166E', symObjAddr: 0x1F8, symBinAddr: 0x1BAA4, symSize: 0x14C }
  - { offset: 0x2940F, size: 0x8, addend: 0x0, symName: __ZN4core4char7methods25encode_utf8_raw_unchecked17hf23fff88eb07f8c3E, symObjAddr: 0x344, symBinAddr: 0x1BBF0, symSize: 0x14C }
  - { offset: 0x29BF5, size: 0x8, addend: 0x0, symName: __ZN4pyo36marker6Python15assume_attached17h0bcfd7289c0db519E, symObjAddr: 0x0, symBinAddr: 0x1BD3C, symSize: 0x4 }
  - { offset: 0x29E52, size: 0x8, addend: 0x0, symName: __ZN4pyo36marker6Python15assume_attached17h0bcfd7289c0db519E, symObjAddr: 0x0, symBinAddr: 0x1BD3C, symSize: 0x4 }
  - { offset: 0x29EAE, size: 0x8, addend: 0x0, symName: __ZN4pyo36marker6Python4None17h7ca8fb1825eea8a8E, symObjAddr: 0x4, symBinAddr: 0x1BD40, symSize: 0x28 }
  - { offset: 0x29EFB, size: 0x8, addend: 0x0, symName: '__ZN4core5slice29_$LT$impl$u20$$u5b$T$u5d$$GT$14swap_unchecked18precondition_check17hedb1476bdebd790eE', symObjAddr: 0x0, symBinAddr: 0x1BD68, symSize: 0xCC }
  - { offset: 0x2A222, size: 0x8, addend: 0x0, symName: '__ZN4core5slice29_$LT$impl$u20$$u5b$T$u5d$$GT$14swap_unchecked18precondition_check17hedb1476bdebd790eE', symObjAddr: 0x0, symBinAddr: 0x1BD68, symSize: 0xCC }
  - { offset: 0x2A29E, size: 0x8, addend: 0x0, symName: '__ZN4core5slice29_$LT$impl$u20$$u5b$T$u5d$$GT$18split_at_unchecked18precondition_check17h9b660babd161caf5E', symObjAddr: 0xCC, symBinAddr: 0x1BE34, symSize: 0xAC }
  - { offset: 0x2A30C, size: 0x8, addend: 0x0, symName: '__ZN4core5slice29_$LT$impl$u20$$u5b$T$u5d$$GT$19as_chunks_unchecked18precondition_check17hd72460213736d7ccE', symObjAddr: 0x178, symBinAddr: 0x1BEE0, symSize: 0xF0 }
  - { offset: 0x2A37A, size: 0x8, addend: 0x0, symName: '__ZN4core5slice29_$LT$impl$u20$$u5b$T$u5d$$GT$22split_at_mut_unchecked18precondition_check17h5158a235a41c37f7E', symObjAddr: 0x268, symBinAddr: 0x1BFD0, symSize: 0xAC }
  - { offset: 0x2A5BF, size: 0x8, addend: 0x0, symName: __ZN4pyo37pyclass18create_type_object18create_type_object17h05395264fd36c1cdE, symObjAddr: 0x0, symBinAddr: 0x1C07C, symSize: 0xF0 }
  - { offset: 0x2A660, size: 0x8, addend: 0x0, symName: __ZN4pyo37pyclass18create_type_object18create_type_object17h05395264fd36c1cdE, symObjAddr: 0x0, symBinAddr: 0x1C07C, symSize: 0xF0 }
  - { offset: 0x2A6A0, size: 0x8, addend: 0x0, symName: __ZN4pyo37pyclass18create_type_object18create_type_object17h054605ac47ef37beE, symObjAddr: 0xF0, symBinAddr: 0x1C16C, symSize: 0xF0 }
  - { offset: 0x2A6E0, size: 0x8, addend: 0x0, symName: __ZN4pyo37pyclass18create_type_object18create_type_object17h083dda087e631c35E, symObjAddr: 0x1E0, symBinAddr: 0x1C25C, symSize: 0xEC }
  - { offset: 0x2A720, size: 0x8, addend: 0x0, symName: __ZN4pyo37pyclass18create_type_object18create_type_object17h19b505d5330e70cfE, symObjAddr: 0x2CC, symBinAddr: 0x1C348, symSize: 0xEC }
  - { offset: 0x2A760, size: 0x8, addend: 0x0, symName: __ZN4pyo37pyclass18create_type_object18create_type_object17h1e39eaa5a2686e97E, symObjAddr: 0x3B8, symBinAddr: 0x1C434, symSize: 0xEC }
  - { offset: 0x2A7A0, size: 0x8, addend: 0x0, symName: __ZN4pyo37pyclass18create_type_object18create_type_object17h222d6975de403e87E, symObjAddr: 0x4A4, symBinAddr: 0x1C520, symSize: 0xEC }
  - { offset: 0x2A7E0, size: 0x8, addend: 0x0, symName: __ZN4pyo37pyclass18create_type_object18create_type_object17h256c1beb1f48e89aE, symObjAddr: 0x590, symBinAddr: 0x1C60C, symSize: 0xEC }
  - { offset: 0x2A820, size: 0x8, addend: 0x0, symName: __ZN4pyo37pyclass18create_type_object18create_type_object17h3e845a8ad2cf2dc4E, symObjAddr: 0x67C, symBinAddr: 0x1C6F8, symSize: 0xEC }
  - { offset: 0x2A860, size: 0x8, addend: 0x0, symName: __ZN4pyo37pyclass18create_type_object18create_type_object17h457bbc4df492721bE, symObjAddr: 0x768, symBinAddr: 0x1C7E4, symSize: 0xEC }
  - { offset: 0x2A8A0, size: 0x8, addend: 0x0, symName: __ZN4pyo37pyclass18create_type_object18create_type_object17h4d4ec9d9b42f572bE, symObjAddr: 0x854, symBinAddr: 0x1C8D0, symSize: 0xF0 }
  - { offset: 0x2A8E0, size: 0x8, addend: 0x0, symName: __ZN4pyo37pyclass18create_type_object18create_type_object17h54e6414eec6b78a8E, symObjAddr: 0x944, symBinAddr: 0x1C9C0, symSize: 0xEC }
  - { offset: 0x2A920, size: 0x8, addend: 0x0, symName: __ZN4pyo37pyclass18create_type_object18create_type_object17h5934df8c9ce83469E, symObjAddr: 0xA30, symBinAddr: 0x1CAAC, symSize: 0xF0 }
  - { offset: 0x2A960, size: 0x8, addend: 0x0, symName: __ZN4pyo37pyclass18create_type_object18create_type_object17h5a68e1e2c1a03972E, symObjAddr: 0xB20, symBinAddr: 0x1CB9C, symSize: 0xEC }
  - { offset: 0x2A9A0, size: 0x8, addend: 0x0, symName: __ZN4pyo37pyclass18create_type_object18create_type_object17h6547b568cfec207aE, symObjAddr: 0xC0C, symBinAddr: 0x1CC88, symSize: 0xEC }
  - { offset: 0x2A9E0, size: 0x8, addend: 0x0, symName: __ZN4pyo37pyclass18create_type_object18create_type_object17h657a6ff05fa9c204E, symObjAddr: 0xCF8, symBinAddr: 0x1CD74, symSize: 0xEC }
  - { offset: 0x2AA20, size: 0x8, addend: 0x0, symName: __ZN4pyo37pyclass18create_type_object18create_type_object17h7b8ad042aec013b6E, symObjAddr: 0xDE4, symBinAddr: 0x1CE60, symSize: 0xEC }
  - { offset: 0x2AA60, size: 0x8, addend: 0x0, symName: __ZN4pyo37pyclass18create_type_object18create_type_object17h843eb9d55e49311aE, symObjAddr: 0xED0, symBinAddr: 0x1CF4C, symSize: 0xEC }
  - { offset: 0x2AAA0, size: 0x8, addend: 0x0, symName: __ZN4pyo37pyclass18create_type_object18create_type_object17h8a35ddbbfc70f023E, symObjAddr: 0xFBC, symBinAddr: 0x1D038, symSize: 0xEC }
  - { offset: 0x2AAE0, size: 0x8, addend: 0x0, symName: __ZN4pyo37pyclass18create_type_object18create_type_object17h8c90bd953127b308E, symObjAddr: 0x10A8, symBinAddr: 0x1D124, symSize: 0xEC }
  - { offset: 0x2AB20, size: 0x8, addend: 0x0, symName: __ZN4pyo37pyclass18create_type_object18create_type_object17h8f31c12dc4ac61efE, symObjAddr: 0x1194, symBinAddr: 0x1D210, symSize: 0xEC }
  - { offset: 0x2AB60, size: 0x8, addend: 0x0, symName: __ZN4pyo37pyclass18create_type_object18create_type_object17h9b94288a69bdde1dE, symObjAddr: 0x1280, symBinAddr: 0x1D2FC, symSize: 0xF0 }
  - { offset: 0x2ABA0, size: 0x8, addend: 0x0, symName: __ZN4pyo37pyclass18create_type_object18create_type_object17hbdc513801ea75919E, symObjAddr: 0x1370, symBinAddr: 0x1D3EC, symSize: 0xF0 }
  - { offset: 0x2ABE0, size: 0x8, addend: 0x0, symName: __ZN4pyo37pyclass18create_type_object18create_type_object17hc34046b9289789e7E, symObjAddr: 0x1460, symBinAddr: 0x1D4DC, symSize: 0xEC }
  - { offset: 0x2AC20, size: 0x8, addend: 0x0, symName: __ZN4pyo37pyclass18create_type_object18create_type_object17hd7470ae2367a113dE, symObjAddr: 0x154C, symBinAddr: 0x1D5C8, symSize: 0xEC }
  - { offset: 0x2AC60, size: 0x8, addend: 0x0, symName: __ZN4pyo37pyclass18create_type_object18create_type_object17hdb42615305ad91d1E, symObjAddr: 0x1638, symBinAddr: 0x1D6B4, symSize: 0xEC }
  - { offset: 0x2ACA0, size: 0x8, addend: 0x0, symName: __ZN4pyo37pyclass18create_type_object18create_type_object17hdf1c52d5855079d3E, symObjAddr: 0x1724, symBinAddr: 0x1D7A0, symSize: 0xEC }
  - { offset: 0x2ACE0, size: 0x8, addend: 0x0, symName: __ZN4pyo37pyclass18create_type_object18create_type_object17hdf6a327fecd4d029E, symObjAddr: 0x1810, symBinAddr: 0x1D88C, symSize: 0xEC }
  - { offset: 0x2AD20, size: 0x8, addend: 0x0, symName: __ZN4pyo37pyclass18create_type_object18create_type_object17he03b5955bd47812eE, symObjAddr: 0x18FC, symBinAddr: 0x1D978, symSize: 0xEC }
  - { offset: 0x2AD60, size: 0x8, addend: 0x0, symName: __ZN4pyo37pyclass18create_type_object18create_type_object17heac59c04a649d6a0E, symObjAddr: 0x19E8, symBinAddr: 0x1DA64, symSize: 0xEC }
  - { offset: 0x2ADA0, size: 0x8, addend: 0x0, symName: __ZN4pyo37pyclass18create_type_object18create_type_object17hfa27956a3437ddf0E, symObjAddr: 0x1AD4, symBinAddr: 0x1DB50, symSize: 0xEC }
  - { offset: 0x2CACC, size: 0x8, addend: 0x0, symName: __ZN9orion_sdr7message6tables5nchar17h101b7c2a3a1c6e10E, symObjAddr: 0x0, symBinAddr: 0x1DC3C, symSize: 0x444 }
  - { offset: 0x2CB18, size: 0x8, addend: 0x0, symName: __ZN9orion_sdr7message6tables5nchar17h101b7c2a3a1c6e10E, symObjAddr: 0x0, symBinAddr: 0x1DC3C, symSize: 0x444 }
  - { offset: 0x2CB67, size: 0x8, addend: 0x0, symName: __ZN9orion_sdr7message6tables5charn17h04c28a58284bf4d0E, symObjAddr: 0x444, symBinAddr: 0x1E080, symSize: 0x2AC }
  - { offset: 0x2CBF5, size: 0x8, addend: 0x0, symName: '__ZN74_$LT$orion_sdr..message..tables..Table$u20$as$u20$core..cmp..PartialEq$GT$2eq17h4d0b10268ea846b7E', symObjAddr: 0x6F0, symBinAddr: 0x1E32C, symSize: 0x34 }
  - { offset: 0x2CE57, size: 0x8, addend: 0x0, symName: '__ZN70_$LT$$u5b$T$u3b$$u20$N$u5d$$u20$as$u20$alloc..vec..is_zero..IsZero$GT$7is_zero17h91f6f370945adbc7E', symObjAddr: 0x0, symBinAddr: 0x1E360, symSize: 0x34 }
  - { offset: 0x2D1E1, size: 0x8, addend: 0x0, symName: '__ZN70_$LT$$u5b$T$u3b$$u20$N$u5d$$u20$as$u20$alloc..vec..is_zero..IsZero$GT$7is_zero17h91f6f370945adbc7E', symObjAddr: 0x0, symBinAddr: 0x1E360, symSize: 0x34 }
  - { offset: 0x2D291, size: 0x8, addend: 0x0, symName: '__ZN70_$LT$$u5b$T$u3b$$u20$N$u5d$$u20$as$u20$alloc..vec..is_zero..IsZero$GT$7is_zero17hde4866a340ffb629E', symObjAddr: 0x34, symBinAddr: 0x1E394, symSize: 0x90 }
  - { offset: 0x2D52E, size: 0x8, addend: 0x0, symName: '__ZN4core3str21_$LT$impl$u20$str$GT$3len17h3056ae96913db68eE', symObjAddr: 0x0, symBinAddr: 0x1E424, symSize: 0x1C }
  - { offset: 0x2D54A, size: 0x8, addend: 0x0, symName: '__ZN4core3str21_$LT$impl$u20$str$GT$3len17h3056ae96913db68eE', symObjAddr: 0x0, symBinAddr: 0x1E424, symSize: 0x1C }
  - { offset: 0x2D576, size: 0x8, addend: 0x0, symName: '__ZN4core3str21_$LT$impl$u20$str$GT$5chars17h71cb13d218ee5c8aE', symObjAddr: 0x1C, symBinAddr: 0x1E440, symSize: 0x20 }
  - { offset: 0x2D5E4, size: 0x8, addend: 0x0, symName: '__ZN4core3str21_$LT$impl$u20$str$GT$8is_empty17hbd260787f46ab074E', symObjAddr: 0x3C, symBinAddr: 0x1E460, symSize: 0x1C }
  - { offset: 0x2D7C7, size: 0x8, addend: 0x0, symName: '__ZN93_$LT$orion_sdr..python..psk31..PyVaricodeEncoder$u20$as$u20$pyo3..type_object..PyTypeInfo$GT$15type_object_raw17h35d1da9ac6744284E', symObjAddr: 0x0, symBinAddr: 0x1E47C, symSize: 0x40 }
  - { offset: 0x2D7FA, size: 0x8, addend: 0x0, symName: '__ZN97_$LT$orion_sdr..python..psk31..PyVaricodeEncoder$u20$as$u20$pyo3..impl_..pyclass..PyClassImpl$GT$10items_iter15INTRINSIC_ITEMS17he62e208a05a11b57E', symObjAddr: 0xCAC0, symBinAddr: 0x1445B0, symSize: 0x0 }
  - { offset: 0x2D81A, size: 0x8, addend: 0x0, symName: '__ZN97_$LT$orion_sdr..python..psk31..PyVaricodeEncoder$u20$as$u20$pyo3..impl_..pyclass..PyClassImpl$GT$16lazy_type_object11TYPE_OBJECT17hf8a6d889c53f1a84E', symObjAddr: 0xCD40, symBinAddr: 0x1DC7A8, symSize: 0x0 }
  - { offset: 0x2D828, size: 0x8, addend: 0x0, symName: '__ZN97_$LT$orion_sdr..python..psk31..PyVaricodeEncoder$u20$as$u20$pyo3..impl_..pyclass..PyClassImpl$GT$10items_iter17hc3addd26b7ad8a86E', symObjAddr: 0x40, symBinAddr: 0x1E4BC, symSize: 0x38 }
  - { offset: 0x2D863, size: 0x8, addend: 0x0, symName: '__ZN97_$LT$orion_sdr..python..psk31..PyVaricodeEncoder$u20$as$u20$pyo3..impl_..pyclass..PyClassImpl$GT$16lazy_type_object17h1247662c39df3c10E', symObjAddr: 0x78, symBinAddr: 0x1E4F4, symSize: 0xC }
  - { offset: 0x2DA00, size: 0x8, addend: 0x0, symName: '__ZN9orion_sdr6python5psk31206_$LT$impl$u20$pyo3..impl_..pyclass..PyMethods$LT$orion_sdr..python..psk31..PyVaricodeEncoder$GT$$u20$for$u20$pyo3..impl_..pyclass..PyClassImplCollector$LT$orion_sdr..python..psk31..PyVaricodeEncoder$GT$$GT$10py_methods5ITEMS17h6464b695ae263ce4E', symObjAddr: 0xB1D0, symBinAddr: 0x1CB768, symSize: 0x0 }
  - { offset: 0x2DA26, size: 0x8, addend: 0x0, symName: '__ZN97_$LT$orion_sdr..python..psk31..PyVaricodeDecoder$u20$as$u20$pyo3..impl_..pyclass..PyClassImpl$GT$10items_iter15INTRINSIC_ITEMS17ha6e15b66af2dc0a7E', symObjAddr: 0xCB20, symBinAddr: 0x144610, symSize: 0x0 }
  - { offset: 0x2DA46, size: 0x8, addend: 0x0, symName: '__ZN97_$LT$orion_sdr..python..psk31..PyVaricodeDecoder$u20$as$u20$pyo3..impl_..pyclass..PyClassImpl$GT$16lazy_type_object11TYPE_OBJECT17h4970336152e5276eE', symObjAddr: 0xCDA8, symBinAddr: 0x1DC810, symSize: 0x0 }
  - { offset: 0x2DA54, size: 0x8, addend: 0x0, symName: '__ZN97_$LT$orion_sdr..python..psk31..PyVaricodeDecoder$u20$as$u20$pyo3..impl_..pyclass..PyClassImpl$GT$10items_iter17h1a5701f38981cfceE', symObjAddr: 0xFE8, symBinAddr: 0x1F464, symSize: 0x38 }
  - { offset: 0x2DA8F, size: 0x8, addend: 0x0, symName: '__ZN97_$LT$orion_sdr..python..psk31..PyVaricodeDecoder$u20$as$u20$pyo3..impl_..pyclass..PyClassImpl$GT$16lazy_type_object17h3ab32f845239636cE', symObjAddr: 0x1020, symBinAddr: 0x1F49C, symSize: 0xC }
  - { offset: 0x2DB83, size: 0x8, addend: 0x0, symName: '__ZN9orion_sdr6python5psk31206_$LT$impl$u20$pyo3..impl_..pyclass..PyMethods$LT$orion_sdr..python..psk31..PyVaricodeDecoder$GT$$u20$for$u20$pyo3..impl_..pyclass..PyClassImplCollector$LT$orion_sdr..python..psk31..PyVaricodeDecoder$GT$$GT$10py_methods5ITEMS17h14d46ffad35f4e0eE', symObjAddr: 0xB478, symBinAddr: 0x1CBA10, symSize: 0x0 }
  - { offset: 0x2DBA9, size: 0x8, addend: 0x0, symName: '__ZN91_$LT$orion_sdr..python..psk31..PyBpsk31Mod$u20$as$u20$pyo3..impl_..pyclass..PyClassImpl$GT$10items_iter15INTRINSIC_ITEMS17hb5a6eb113e2099bcE', symObjAddr: 0xCB58, symBinAddr: 0x144648, symSize: 0x0 }
  - { offset: 0x2DBC9, size: 0x8, addend: 0x0, symName: '__ZN91_$LT$orion_sdr..python..psk31..PyBpsk31Mod$u20$as$u20$pyo3..impl_..pyclass..PyClassImpl$GT$16lazy_type_object11TYPE_OBJECT17h48d4ffe324c1b004E', symObjAddr: 0xCE10, symBinAddr: 0x1DC878, symSize: 0x0 }
  - { offset: 0x2DBD7, size: 0x8, addend: 0x0, symName: '__ZN91_$LT$orion_sdr..python..psk31..PyBpsk31Mod$u20$as$u20$pyo3..impl_..pyclass..PyClassImpl$GT$10items_iter17h7617498ab3e44dd7E', symObjAddr: 0x1A04, symBinAddr: 0x1FE80, symSize: 0x38 }
  - { offset: 0x2DC12, size: 0x8, addend: 0x0, symName: '__ZN91_$LT$orion_sdr..python..psk31..PyBpsk31Mod$u20$as$u20$pyo3..impl_..pyclass..PyClassImpl$GT$16lazy_type_object17h4e01e854d7da5871E', symObjAddr: 0x1A3C, symBinAddr: 0x1FEB8, symSize: 0xC }
  - { offset: 0x2DDA3, size: 0x8, addend: 0x0, symName: '__ZN9orion_sdr6python5psk31194_$LT$impl$u20$pyo3..impl_..pyclass..PyMethods$LT$orion_sdr..python..psk31..PyBpsk31Mod$GT$$u20$for$u20$pyo3..impl_..pyclass..PyClassImplCollector$LT$orion_sdr..python..psk31..PyBpsk31Mod$GT$$GT$10py_methods5ITEMS17h287398613574b029E', symObjAddr: 0xB698, symBinAddr: 0x1CBC30, symSize: 0x0 }
  - { offset: 0x2DDC9, size: 0x8, addend: 0x0, symName: '__ZN93_$LT$orion_sdr..python..psk31..PyBpsk31Demod$u20$as$u20$pyo3..impl_..pyclass..PyClassImpl$GT$10items_iter15INTRINSIC_ITEMS17h456fcb348f583ea4E', symObjAddr: 0xCBC0, symBinAddr: 0x1446B0, symSize: 0x0 }
  - { offset: 0x2DDE9, size: 0x8, addend: 0x0, symName: '__ZN93_$LT$orion_sdr..python..psk31..PyBpsk31Demod$u20$as$u20$pyo3..impl_..pyclass..PyClassImpl$GT$16lazy_type_object11TYPE_OBJECT17hfe1915a5c37d5f76E', symObjAddr: 0xCE78, symBinAddr: 0x1DC8E0, symSize: 0x0 }
  - { offset: 0x2DDF7, size: 0x8, addend: 0x0, symName: '__ZN93_$LT$orion_sdr..python..psk31..PyBpsk31Demod$u20$as$u20$pyo3..impl_..pyclass..PyClassImpl$GT$10items_iter17h092d0d82c3a4690aE', symObjAddr: 0x2D08, symBinAddr: 0x21184, symSize: 0x38 }
  - { offset: 0x2DE32, size: 0x8, addend: 0x0, symName: '__ZN93_$LT$orion_sdr..python..psk31..PyBpsk31Demod$u20$as$u20$pyo3..impl_..pyclass..PyClassImpl$GT$16lazy_type_object17hcadafbfcb13a959bE', symObjAddr: 0x2D40, symBinAddr: 0x211BC, symSize: 0xC }
  - { offset: 0x2DF71, size: 0x8, addend: 0x0, symName: '__ZN9orion_sdr6python5psk31198_$LT$impl$u20$pyo3..impl_..pyclass..PyMethods$LT$orion_sdr..python..psk31..PyBpsk31Demod$GT$$u20$for$u20$pyo3..impl_..pyclass..PyClassImplCollector$LT$orion_sdr..python..psk31..PyBpsk31Demod$GT$$GT$10py_methods5ITEMS17ha8ae078d6708b04aE', symObjAddr: 0xBA40, symBinAddr: 0x1CBFD8, symSize: 0x0 }
  - { offset: 0x2DF97, size: 0x8, addend: 0x0, symName: '__ZN91_$LT$orion_sdr..python..psk31..PyQpsk31Mod$u20$as$u20$pyo3..impl_..pyclass..PyClassImpl$GT$10items_iter15INTRINSIC_ITEMS17h0fd1335faecef801E', symObjAddr: 0xCBF8, symBinAddr: 0x1446E8, symSize: 0x0 }
  - { offset: 0x2DFB7, size: 0x8, addend: 0x0, symName: '__ZN91_$LT$orion_sdr..python..psk31..PyQpsk31Mod$u20$as$u20$pyo3..impl_..pyclass..PyClassImpl$GT$16lazy_type_object11TYPE_OBJECT17h91af21a40429dcd5E', symObjAddr: 0xCEE0, symBinAddr: 0x1DC948, symSize: 0x0 }
  - { offset: 0x2DFC5, size: 0x8, addend: 0x0, symName: '__ZN91_$LT$orion_sdr..python..psk31..PyQpsk31Mod$u20$as$u20$pyo3..impl_..pyclass..PyClassImpl$GT$10items_iter17hd3c4e1dca0a1e25aE', symObjAddr: 0x3B64, symBinAddr: 0x21FE0, symSize: 0x38 }
  - { offset: 0x2E000, size: 0x8, addend: 0x0, symName: '__ZN91_$LT$orion_sdr..python..psk31..PyQpsk31Mod$u20$as$u20$pyo3..impl_..pyclass..PyClassImpl$GT$16lazy_type_object17h774ed19148a5f7c9E', symObjAddr: 0x3B9C, symBinAddr: 0x22018, symSize: 0xC }
  - { offset: 0x2E191, size: 0x8, addend: 0x0, symName: '__ZN9orion_sdr6python5psk31194_$LT$impl$u20$pyo3..impl_..pyclass..PyMethods$LT$orion_sdr..python..psk31..PyQpsk31Mod$GT$$u20$for$u20$pyo3..impl_..pyclass..PyClassImplCollector$LT$orion_sdr..python..psk31..PyQpsk31Mod$GT$$GT$10py_methods5ITEMS17h3af86d20b4f76075E', symObjAddr: 0xBD10, symBinAddr: 0x1CC2A8, symSize: 0x0 }
  - { offset: 0x2E1B7, size: 0x8, addend: 0x0, symName: '__ZN93_$LT$orion_sdr..python..psk31..PyQpsk31Demod$u20$as$u20$pyo3..impl_..pyclass..PyClassImpl$GT$10items_iter15INTRINSIC_ITEMS17h2c532e5ae5d249ecE', symObjAddr: 0xCC28, symBinAddr: 0x144718, symSize: 0x0 }
  - { offset: 0x2E1D7, size: 0x8, addend: 0x0, symName: '__ZN93_$LT$orion_sdr..python..psk31..PyQpsk31Demod$u20$as$u20$pyo3..impl_..pyclass..PyClassImpl$GT$16lazy_type_object11TYPE_OBJECT17h45ddde30072ffc82E', symObjAddr: 0xCF48, symBinAddr: 0x1DC9B0, symSize: 0x0 }
  - { offset: 0x2E1E5, size: 0x8, addend: 0x0, symName: '__ZN93_$LT$orion_sdr..python..psk31..PyQpsk31Demod$u20$as$u20$pyo3..impl_..pyclass..PyClassImpl$GT$10items_iter17h36747df9e99b5ef3E', symObjAddr: 0x4E68, symBinAddr: 0x232E4, symSize: 0x38 }
  - { offset: 0x2E220, size: 0x8, addend: 0x0, symName: '__ZN93_$LT$orion_sdr..python..psk31..PyQpsk31Demod$u20$as$u20$pyo3..impl_..pyclass..PyClassImpl$GT$16lazy_type_object17hb0168297bc1483d9E', symObjAddr: 0x4EA0, symBinAddr: 0x2331C, symSize: 0xC }
  - { offset: 0x2E39F, size: 0x8, addend: 0x0, symName: '__ZN9orion_sdr6python5psk31198_$LT$impl$u20$pyo3..impl_..pyclass..PyMethods$LT$orion_sdr..python..psk31..PyQpsk31Demod$GT$$u20$for$u20$pyo3..impl_..pyclass..PyClassImplCollector$LT$orion_sdr..python..psk31..PyQpsk31Demod$GT$$GT$10py_methods5ITEMS17h52f11a59dfd4b7e0E', symObjAddr: 0xC098, symBinAddr: 0x1CC630, symSize: 0x0 }
  - { offset: 0x2E3C5, size: 0x8, addend: 0x0, symName: '__ZN95_$LT$orion_sdr..python..psk31..PyBpsk31Decider$u20$as$u20$pyo3..impl_..pyclass..PyClassImpl$GT$10items_iter15INTRINSIC_ITEMS17h62ec750413eaaa4dE', symObjAddr: 0xCC58, symBinAddr: 0x144748, symSize: 0x0 }
  - { offset: 0x2E3E5, size: 0x8, addend: 0x0, symName: '__ZN95_$LT$orion_sdr..python..psk31..PyBpsk31Decider$u20$as$u20$pyo3..impl_..pyclass..PyClassImpl$GT$16lazy_type_object11TYPE_OBJECT17hed73ddaca225b708E', symObjAddr: 0xCFB0, symBinAddr: 0x1DCA18, symSize: 0x0 }
  - { offset: 0x2E3F3, size: 0x8, addend: 0x0, symName: '__ZN95_$LT$orion_sdr..python..psk31..PyBpsk31Decider$u20$as$u20$pyo3..impl_..pyclass..PyClassImpl$GT$10items_iter17hec4304407aeaf366E', symObjAddr: 0x612C, symBinAddr: 0x245A8, symSize: 0x38 }
  - { offset: 0x2E42E, size: 0x8, addend: 0x0, symName: '__ZN95_$LT$orion_sdr..python..psk31..PyBpsk31Decider$u20$as$u20$pyo3..impl_..pyclass..PyClassImpl$GT$16lazy_type_object17hd4bcab7416ac78e3E', symObjAddr: 0x6164, symBinAddr: 0x245E0, symSize: 0xC }
  - { offset: 0x2E4EF, size: 0x8, addend: 0x0, symName: '__ZN9orion_sdr6python5psk31202_$LT$impl$u20$pyo3..impl_..pyclass..PyMethods$LT$orion_sdr..python..psk31..PyBpsk31Decider$GT$$u20$for$u20$pyo3..impl_..pyclass..PyClassImplCollector$LT$orion_sdr..python..psk31..PyBpsk31Decider$GT$$GT$10py_methods5ITEMS17h3f8b277f5a29f46cE', symObjAddr: 0xC2C8, symBinAddr: 0x1CC860, symSize: 0x0 }
  - { offset: 0x2E516, size: 0x8, addend: 0x0, symName: '__ZN93_$LT$orion_sdr..python..psk31..PyPsk31Stream$u20$as$u20$pyo3..impl_..pyclass..PyClassImpl$GT$10items_iter15INTRINSIC_ITEMS17hcaa144dcb2bb692bE', symObjAddr: 0xCC88, symBinAddr: 0x144778, symSize: 0x0 }
  - { offset: 0x2E537, size: 0x8, addend: 0x0, symName: '__ZN93_$LT$orion_sdr..python..psk31..PyPsk31Stream$u20$as$u20$pyo3..impl_..pyclass..PyClassImpl$GT$16lazy_type_object11TYPE_OBJECT17h282514000439e990E', symObjAddr: 0xD018, symBinAddr: 0x1DCA80, symSize: 0x0 }
  - { offset: 0x2E545, size: 0x8, addend: 0x0, symName: '__ZN93_$LT$orion_sdr..python..psk31..PyPsk31Stream$u20$as$u20$pyo3..impl_..pyclass..PyClassImpl$GT$10items_iter17ha2d9ab8f6b9dd959E', symObjAddr: 0x6CD0, symBinAddr: 0x2514C, symSize: 0x38 }
  - { offset: 0x2E582, size: 0x8, addend: 0x0, symName: '__ZN93_$LT$orion_sdr..python..psk31..PyPsk31Stream$u20$as$u20$pyo3..impl_..pyclass..PyClassImpl$GT$16lazy_type_object17ha063d8c3e391618dE', symObjAddr: 0x6D08, symBinAddr: 0x25184, symSize: 0xC }
  - { offset: 0x2E68F, size: 0x8, addend: 0x0, symName: '__ZN9orion_sdr6python5psk31198_$LT$impl$u20$pyo3..impl_..pyclass..PyMethods$LT$orion_sdr..python..psk31..PyPsk31Stream$GT$$u20$for$u20$pyo3..impl_..pyclass..PyClassImplCollector$LT$orion_sdr..python..psk31..PyPsk31Stream$GT$$GT$10py_methods5ITEMS17h4a615ea68b8cfddaE', symObjAddr: 0xC498, symBinAddr: 0x1CCA30, symSize: 0x0 }
  - { offset: 0x2E6A3, size: 0x8, addend: 0x0, symName: '__ZN93_$LT$orion_sdr..python..psk31..PyVaricodeEncoder$u20$as$u20$pyo3..type_object..PyTypeInfo$GT$15type_object_raw17h35d1da9ac6744284E', symObjAddr: 0x0, symBinAddr: 0x1E47C, symSize: 0x40 }
  - { offset: 0x2E6E0, size: 0x8, addend: 0x0, symName: '__ZN93_$LT$orion_sdr..python..psk31..PyVaricodeDecoder$u20$as$u20$pyo3..type_object..PyTypeInfo$GT$15type_object_raw17ha4224a7fbef34534E', symObjAddr: 0xFA8, symBinAddr: 0x1F424, symSize: 0x40 }
  - { offset: 0x2E71D, size: 0x8, addend: 0x0, symName: '__ZN87_$LT$orion_sdr..python..psk31..PyBpsk31Mod$u20$as$u20$pyo3..type_object..PyTypeInfo$GT$15type_object_raw17h237bfa3247573c33E', symObjAddr: 0x19C4, symBinAddr: 0x1FE40, symSize: 0x40 }
  - { offset: 0x2E75A, size: 0x8, addend: 0x0, symName: '__ZN89_$LT$orion_sdr..python..psk31..PyBpsk31Demod$u20$as$u20$pyo3..type_object..PyTypeInfo$GT$15type_object_raw17h6118108f3b720429E', symObjAddr: 0x2CC8, symBinAddr: 0x21144, symSize: 0x40 }
  - { offset: 0x2E797, size: 0x8, addend: 0x0, symName: '__ZN87_$LT$orion_sdr..python..psk31..PyQpsk31Mod$u20$as$u20$pyo3..type_object..PyTypeInfo$GT$15type_object_raw17h8937e146e65451abE', symObjAddr: 0x3B24, symBinAddr: 0x21FA0, symSize: 0x40 }
  - { offset: 0x2E7D4, size: 0x8, addend: 0x0, symName: '__ZN89_$LT$orion_sdr..python..psk31..PyQpsk31Demod$u20$as$u20$pyo3..type_object..PyTypeInfo$GT$15type_object_raw17h5a42a89a07835f73E', symObjAddr: 0x4E28, symBinAddr: 0x232A4, symSize: 0x40 }
  - { offset: 0x2E811, size: 0x8, addend: 0x0, symName: '__ZN91_$LT$orion_sdr..python..psk31..PyBpsk31Decider$u20$as$u20$pyo3..type_object..PyTypeInfo$GT$15type_object_raw17h94fe17a4fbcb6d1fE', symObjAddr: 0x60EC, symBinAddr: 0x24568, symSize: 0x40 }
  - { offset: 0x2E84E, size: 0x8, addend: 0x0, symName: '__ZN89_$LT$orion_sdr..python..psk31..PyPsk31Stream$u20$as$u20$pyo3..type_object..PyTypeInfo$GT$15type_object_raw17had6bfac6a98db756E', symObjAddr: 0x6C90, symBinAddr: 0x2510C, symSize: 0x40 }
  - { offset: 0x2E889, size: 0x8, addend: 0x0, symName: __ZN9orion_sdr6python5psk3115best_psk31_sync17h2ac9fcec73427b84E, symObjAddr: 0x7A70, symBinAddr: 0x25EEC, symSize: 0xE14 }
  - { offset: 0x2EC79, size: 0x8, addend: 0x0, symName: __ZN9orion_sdr6python5psk3128__pyfunction_best_psk31_sync17h046829c364bc4b79E, symObjAddr: 0x8884, symBinAddr: 0x26D00, symSize: 0x428 }
  - { offset: 0x2EE69, size: 0x8, addend: 0x0, symName: __ZN9orion_sdr6python5psk3110psk31_sync17h6078c7fb237a1f5eE, symObjAddr: 0x8CAC, symBinAddr: 0x27128, symSize: 0x6BC }
  - { offset: 0x2F083, size: 0x8, addend: 0x0, symName: __ZN9orion_sdr6python5psk3123__pyfunction_psk31_sync17h49ae93a83ae3fb2bE, symObjAddr: 0x9368, symBinAddr: 0x277E4, symSize: 0x794 }
  - { offset: 0x32A28, size: 0x8, addend: 0x0, symName: __ZN9orion_sdr6python5psk3117PyVaricodeEncoder3new17hc8c1c6ed19acf44dE, symObjAddr: 0x84, symBinAddr: 0x1E500, symSize: 0x3C }
  - { offset: 0x32A48, size: 0x8, addend: 0x0, symName: __ZN9orion_sdr6python5psk3117PyVaricodeEncoder13push_preamble17h7a1d4730a7b74353E, symObjAddr: 0xC0, symBinAddr: 0x1E53C, symSize: 0x28 }
  - { offset: 0x32A78, size: 0x8, addend: 0x0, symName: __ZN9orion_sdr6python5psk3117PyVaricodeEncoder9push_byte17hc43741f732095f27E, symObjAddr: 0xE8, symBinAddr: 0x1E564, symSize: 0x28 }
  - { offset: 0x32AA8, size: 0x8, addend: 0x0, symName: __ZN9orion_sdr6python5psk3117PyVaricodeEncoder14push_postamble17hf9e858e5bfabe602E, symObjAddr: 0x110, symBinAddr: 0x1E58C, symSize: 0x28 }
  - { offset: 0x32CDF, size: 0x8, addend: 0x0, symName: __ZN9orion_sdr6python5psk3117PyVaricodeEncoder10drain_bits17h6495173af6dcc6d7E, symObjAddr: 0x138, symBinAddr: 0x1E5B4, symSize: 0x34 }
  - { offset: 0x32D27, size: 0x8, addend: 0x0, symName: __ZN9orion_sdr6python5psk3117PyVaricodeEncoder8is_empty17h0d800de7c5ebcd24E, symObjAddr: 0x16C, symBinAddr: 0x1E5E8, symSize: 0x24 }
  - { offset: 0x32D49, size: 0x8, addend: 0x0, symName: __ZN9orion_sdr6python5psk3117PyVaricodeEncoder20__pymethod___new____17hfe2d20d84dac89a1E, symObjAddr: 0x190, symBinAddr: 0x1E60C, symSize: 0xC4 }
  - { offset: 0x32E42, size: 0x8, addend: 0x0, symName: __ZN9orion_sdr6python5psk3117PyVaricodeEncoder26__pymethod_push_preamble__17h7f3b90e48a41b1efE, symObjAddr: 0x254, symBinAddr: 0x1E6D0, symSize: 0x2FC }
  - { offset: 0x32FD5, size: 0x8, addend: 0x0, symName: __ZN9orion_sdr6python5psk3117PyVaricodeEncoder22__pymethod_push_byte__17hd7c6701e8a379d37E, symObjAddr: 0x550, symBinAddr: 0x1E9CC, symSize: 0x2FC }
  - { offset: 0x33168, size: 0x8, addend: 0x0, symName: __ZN9orion_sdr6python5psk3117PyVaricodeEncoder27__pymethod_push_postamble__17h94c956ed2f56ee61E, symObjAddr: 0x84C, symBinAddr: 0x1ECC8, symSize: 0x2FC }
  - { offset: 0x332FB, size: 0x8, addend: 0x0, symName: __ZN9orion_sdr6python5psk3117PyVaricodeEncoder23__pymethod_drain_bits__17hf5c2ecd8eb3344fdE, symObjAddr: 0xB48, symBinAddr: 0x1EFC4, symSize: 0x264 }
  - { offset: 0x333DF, size: 0x8, addend: 0x0, symName: __ZN9orion_sdr6python5psk3117PyVaricodeEncoder21__pymethod_is_empty__17h2e1381f69bbfc3e9E, symObjAddr: 0xDAC, symBinAddr: 0x1F228, symSize: 0x1FC }
  - { offset: 0x334CB, size: 0x8, addend: 0x0, symName: __ZN9orion_sdr6python5psk3117PyVaricodeDecoder3new17h84310fbecd78267eE, symObjAddr: 0x102C, symBinAddr: 0x1F4A8, symSize: 0x3C }
  - { offset: 0x33544, size: 0x8, addend: 0x0, symName: __ZN9orion_sdr6python5psk3117PyVaricodeDecoder9push_bits17h4f27d9a5e62c0f71E, symObjAddr: 0x1068, symBinAddr: 0x1F4E4, symSize: 0x188 }
  - { offset: 0x335EF, size: 0x8, addend: 0x0, symName: __ZN9orion_sdr6python5psk3117PyVaricodeDecoder9pop_bytes17ha396db084f1820a4E, symObjAddr: 0x11F0, symBinAddr: 0x1F66C, symSize: 0x104 }
  - { offset: 0x33654, size: 0x8, addend: 0x0, symName: __ZN9orion_sdr6python5psk3117PyVaricodeDecoder20__pymethod___new____17hf6cdde217b025901E, symObjAddr: 0x12F4, symBinAddr: 0x1F770, symSize: 0xC4 }
  - { offset: 0x3374D, size: 0x8, addend: 0x0, symName: __ZN9orion_sdr6python5psk3117PyVaricodeDecoder22__pymethod_push_bits__17h3d7689ef93717937E, symObjAddr: 0x13B8, symBinAddr: 0x1F834, symSize: 0x3A8 }
  - { offset: 0x338DA, size: 0x8, addend: 0x0, symName: __ZN9orion_sdr6python5psk3117PyVaricodeDecoder22__pymethod_pop_bytes__17h9c56000cc1908af8E, symObjAddr: 0x1760, symBinAddr: 0x1FBDC, symSize: 0x264 }
  - { offset: 0x339BE, size: 0x8, addend: 0x0, symName: __ZN9orion_sdr6python5psk3111PyBpsk31Mod3new17ha246a7cb8685876bE, symObjAddr: 0x1A48, symBinAddr: 0x1FEC4, symSize: 0x48 }
  - { offset: 0x33A09, size: 0x8, addend: 0x0, symName: __ZN9orion_sdr6python5psk3111PyBpsk31Mod8set_gain17hb17c79797d013bedE, symObjAddr: 0x1A90, symBinAddr: 0x1FF0C, symSize: 0x28 }
  - { offset: 0x33A39, size: 0x8, addend: 0x0, symName: __ZN9orion_sdr6python5psk3111PyBpsk31Mod5reset17hdf949b5c43d502eaE, symObjAddr: 0x1AB8, symBinAddr: 0x1FF34, symSize: 0x24 }
  - { offset: 0x33A5B, size: 0x8, addend: 0x0, symName: __ZN9orion_sdr6python5psk3111PyBpsk31Mod13modulate_text17h1c8c93fc933865dbE, symObjAddr: 0x1ADC, symBinAddr: 0x1FF58, symSize: 0x48 }
  - { offset: 0x33AC0, size: 0x8, addend: 0x0, symName: __ZN9orion_sdr6python5psk3111PyBpsk31Mod13modulate_bits17h8ab410e7f60a93e2E, symObjAddr: 0x1B24, symBinAddr: 0x1FFA0, symSize: 0x120 }
  - { offset: 0x33B60, size: 0x8, addend: 0x0, symName: __ZN9orion_sdr6python5psk3111PyBpsk31Mod20__pymethod___new____17h89fe7dd5ff0169feE, symObjAddr: 0x1C44, symBinAddr: 0x200C0, symSize: 0x2E0 }
  - { offset: 0x33D0C, size: 0x8, addend: 0x0, symName: __ZN9orion_sdr6python5psk3111PyBpsk31Mod21__pymethod_set_gain__17hd76fc62ae6da41f7E, symObjAddr: 0x1F24, symBinAddr: 0x203A0, symSize: 0x304 }
  - { offset: 0x33E9F, size: 0x8, addend: 0x0, symName: __ZN9orion_sdr6python5psk3111PyBpsk31Mod18__pymethod_reset__17h69dc4951b502eac4E, symObjAddr: 0x2228, symBinAddr: 0x206A4, symSize: 0x1CC }
  - { offset: 0x33F88, size: 0x8, addend: 0x0, symName: __ZN9orion_sdr6python5psk3111PyBpsk31Mod26__pymethod_modulate_text__17h7b2bf49e18226bdbE, symObjAddr: 0x23F4, symBinAddr: 0x20870, symSize: 0x51C }
  - { offset: 0x34173, size: 0x8, addend: 0x0, symName: __ZN9orion_sdr6python5psk3111PyBpsk31Mod26__pymethod_modulate_bits__17h49e306605cf9a569E, symObjAddr: 0x2910, symBinAddr: 0x20D8C, symSize: 0x3B8 }
  - { offset: 0x34300, size: 0x8, addend: 0x0, symName: __ZN9orion_sdr6python5psk3113PyBpsk31Demod3new17hbef6587b9f22aa85E, symObjAddr: 0x2D4C, symBinAddr: 0x211C8, symSize: 0x48 }
  - { offset: 0x3434B, size: 0x8, addend: 0x0, symName: __ZN9orion_sdr6python5psk3113PyBpsk31Demod8set_gain17hfe0f77ef36fdab98E, symObjAddr: 0x2D94, symBinAddr: 0x21210, symSize: 0x28 }
  - { offset: 0x3437B, size: 0x8, addend: 0x0, symName: __ZN9orion_sdr6python5psk3113PyBpsk31Demod5reset17h0c794f6abb321a3eE, symObjAddr: 0x2DBC, symBinAddr: 0x21238, symSize: 0x24 }
  - { offset: 0x343F6, size: 0x8, addend: 0x0, symName: __ZN9orion_sdr6python5psk3113PyBpsk31Demod7process17ha5eb2cb0fa9f790eE, symObjAddr: 0x2DE0, symBinAddr: 0x2125C, symSize: 0x1DC }
  - { offset: 0x344DB, size: 0x8, addend: 0x0, symName: __ZN9orion_sdr6python5psk3113PyBpsk31Demod20__pymethod___new____17h9711197b3db26346E, symObjAddr: 0x2FBC, symBinAddr: 0x21438, symSize: 0x2E0 }
  - { offset: 0x34687, size: 0x8, addend: 0x0, symName: __ZN9orion_sdr6python5psk3113PyBpsk31Demod21__pymethod_set_gain__17h0f38a2a5e0954ebeE, symObjAddr: 0x329C, symBinAddr: 0x21718, symSize: 0x304 }
  - { offset: 0x3481A, size: 0x8, addend: 0x0, symName: __ZN9orion_sdr6python5psk3113PyBpsk31Demod18__pymethod_reset__17hc53386d578e0fe0fE, symObjAddr: 0x35A0, symBinAddr: 0x21A1C, symSize: 0x1CC }
  - { offset: 0x34903, size: 0x8, addend: 0x0, symName: __ZN9orion_sdr6python5psk3113PyBpsk31Demod20__pymethod_process__17h1dddce14301611cfE, symObjAddr: 0x376C, symBinAddr: 0x21BE8, symSize: 0x3B8 }
  - { offset: 0x34A90, size: 0x8, addend: 0x0, symName: __ZN9orion_sdr6python5psk3111PyQpsk31Mod3new17h62d1e62aac26261dE, symObjAddr: 0x3BA8, symBinAddr: 0x22024, symSize: 0x48 }
  - { offset: 0x34ADB, size: 0x8, addend: 0x0, symName: __ZN9orion_sdr6python5psk3111PyQpsk31Mod8set_gain17hab0a1c11dd658303E, symObjAddr: 0x3BF0, symBinAddr: 0x2206C, symSize: 0x28 }
  - { offset: 0x34B0B, size: 0x8, addend: 0x0, symName: __ZN9orion_sdr6python5psk3111PyQpsk31Mod5reset17h87a2259c761d0b80E, symObjAddr: 0x3C18, symBinAddr: 0x22094, symSize: 0x24 }
  - { offset: 0x34B2D, size: 0x8, addend: 0x0, symName: __ZN9orion_sdr6python5psk3111PyQpsk31Mod13modulate_text17hf30f05eaab1406a0E, symObjAddr: 0x3C3C, symBinAddr: 0x220B8, symSize: 0x48 }
  - { offset: 0x34B92, size: 0x8, addend: 0x0, symName: __ZN9orion_sdr6python5psk3111PyQpsk31Mod13modulate_bits17h5945244f53d20ab2E, symObjAddr: 0x3C84, symBinAddr: 0x22100, symSize: 0x120 }
  - { offset: 0x34C32, size: 0x8, addend: 0x0, symName: __ZN9orion_sdr6python5psk3111PyQpsk31Mod20__pymethod___new____17hd963001eaed6426dE, symObjAddr: 0x3DA4, symBinAddr: 0x22220, symSize: 0x2E0 }
  - { offset: 0x34DDE, size: 0x8, addend: 0x0, symName: __ZN9orion_sdr6python5psk3111PyQpsk31Mod21__pymethod_set_gain__17h4bb22e6413a5c92dE, symObjAddr: 0x4084, symBinAddr: 0x22500, symSize: 0x304 }
  - { offset: 0x34F71, size: 0x8, addend: 0x0, symName: __ZN9orion_sdr6python5psk3111PyQpsk31Mod18__pymethod_reset__17h249bc7208a194f58E, symObjAddr: 0x4388, symBinAddr: 0x22804, symSize: 0x1CC }
  - { offset: 0x3505A, size: 0x8, addend: 0x0, symName: __ZN9orion_sdr6python5psk3111PyQpsk31Mod26__pymethod_modulate_text__17h05b483fa68377b20E, symObjAddr: 0x4554, symBinAddr: 0x229D0, symSize: 0x51C }
  - { offset: 0x35245, size: 0x8, addend: 0x0, symName: __ZN9orion_sdr6python5psk3111PyQpsk31Mod26__pymethod_modulate_bits__17hbf4e1063417dba9eE, symObjAddr: 0x4A70, symBinAddr: 0x22EEC, symSize: 0x3B8 }
  - { offset: 0x353D2, size: 0x8, addend: 0x0, symName: __ZN9orion_sdr6python5psk3113PyQpsk31Demod3new17h3392f8b3383dd05cE, symObjAddr: 0x4EAC, symBinAddr: 0x23328, symSize: 0x8C }
  - { offset: 0x3541D, size: 0x8, addend: 0x0, symName: __ZN9orion_sdr6python5psk3113PyQpsk31Demod8set_gain17h1b730cfb1df6c8f2E, symObjAddr: 0x4F38, symBinAddr: 0x233B4, symSize: 0x28 }
  - { offset: 0x3544D, size: 0x8, addend: 0x0, symName: __ZN9orion_sdr6python5psk3113PyQpsk31Demod5reset17hb424ed72e75db465E, symObjAddr: 0x4F60, symBinAddr: 0x233DC, symSize: 0x80 }
  - { offset: 0x3546F, size: 0x8, addend: 0x0, symName: __ZN9orion_sdr6python5psk3113PyQpsk31Demod7process17h3e34f35f8ef5e6f0E, symObjAddr: 0x4FE0, symBinAddr: 0x2345C, symSize: 0x294 }
  - { offset: 0x35554, size: 0x8, addend: 0x0, symName: __ZN9orion_sdr6python5psk3113PyQpsk31Demod5flush17h0f0c8d520149efc4E, symObjAddr: 0x5274, symBinAddr: 0x236F0, symSize: 0xAC }
  - { offset: 0x355A4, size: 0x8, addend: 0x0, symName: __ZN9orion_sdr6python5psk3113PyQpsk31Demod20__pymethod___new____17he3dfc5676fe86c75E, symObjAddr: 0x5320, symBinAddr: 0x2379C, symSize: 0x2E0 }
  - { offset: 0x35750, size: 0x8, addend: 0x0, symName: __ZN9orion_sdr6python5psk3113PyQpsk31Demod21__pymethod_set_gain__17hf6ce0970eba90939E, symObjAddr: 0x5600, symBinAddr: 0x23A7C, symSize: 0x304 }
  - { offset: 0x358E3, size: 0x8, addend: 0x0, symName: __ZN9orion_sdr6python5psk3113PyQpsk31Demod18__pymethod_reset__17hef2d7c1c7d5e5929E, symObjAddr: 0x5904, symBinAddr: 0x23D80, symSize: 0x1CC }
  - { offset: 0x359CC, size: 0x8, addend: 0x0, symName: __ZN9orion_sdr6python5psk3113PyQpsk31Demod20__pymethod_process__17h3bb285c1f78e6139E, symObjAddr: 0x5AD0, symBinAddr: 0x23F4C, symSize: 0x3B8 }
  - { offset: 0x35B59, size: 0x8, addend: 0x0, symName: __ZN9orion_sdr6python5psk3113PyQpsk31Demod18__pymethod_flush__17h41d8daf60be78835E, symObjAddr: 0x5E88, symBinAddr: 0x24304, symSize: 0x264 }
  - { offset: 0x35C3D, size: 0x8, addend: 0x0, symName: __ZN9orion_sdr6python5psk3115PyBpsk31Decider3new17h7156964253807bd9E, symObjAddr: 0x6170, symBinAddr: 0x245EC, symSize: 0x14 }
  - { offset: 0x35CE1, size: 0x8, addend: 0x0, symName: __ZN9orion_sdr6python5psk3115PyBpsk31Decider7process17h31d23f903d9fbcb7E, symObjAddr: 0x6184, symBinAddr: 0x24600, symSize: 0x69C }
  - { offset: 0x35E29, size: 0x8, addend: 0x0, symName: __ZN9orion_sdr6python5psk3115PyBpsk31Decider20__pymethod___new____17h35833590f4ccb199E, symObjAddr: 0x6820, symBinAddr: 0x24C9C, symSize: 0xB8 }
  - { offset: 0x35F21, size: 0x8, addend: 0x0, symName: __ZN9orion_sdr6python5psk3115PyBpsk31Decider20__pymethod_process__17h93ad88bc318950a7E, symObjAddr: 0x68D8, symBinAddr: 0x24D54, symSize: 0x3B8 }
  - { offset: 0x360CC, size: 0x8, addend: 0x0, symName: __ZN9orion_sdr6python5psk3113PyPsk31Stream3new17h74cbadd870e91655E, symObjAddr: 0x6D14, symBinAddr: 0x25190, symSize: 0x27C }
  - { offset: 0x36168, size: 0x8, addend: 0x0, symName: __ZN9orion_sdr6python5psk3113PyPsk31Stream4feed17hb4f264ef66127d89E, symObjAddr: 0x6F90, symBinAddr: 0x2540C, symSize: 0x118 }
  - { offset: 0x361F4, size: 0x8, addend: 0x0, symName: __ZN9orion_sdr6python5psk3113PyPsk31Stream5flush17h7bc2a91021344190E, symObjAddr: 0x70A8, symBinAddr: 0x25524, symSize: 0x24 }
  - { offset: 0x36217, size: 0x8, addend: 0x0, symName: __ZN9orion_sdr6python5psk3113PyPsk31Stream20__pymethod___new____17h31d3971e09f24526E, symObjAddr: 0x70CC, symBinAddr: 0x25548, symSize: 0x368 }
  - { offset: 0x36414, size: 0x8, addend: 0x0, symName: __ZN9orion_sdr6python5psk3113PyPsk31Stream17__pymethod_feed__17h1b8994e1b1ba2412E, symObjAddr: 0x7434, symBinAddr: 0x258B0, symSize: 0x3B8 }
  - { offset: 0x365B4, size: 0x8, addend: 0x0, symName: __ZN9orion_sdr6python5psk3113PyPsk31Stream18__pymethod_flush__17h1231396596e739fdE, symObjAddr: 0x77EC, symBinAddr: 0x25C68, symSize: 0x284 }
  - { offset: 0x36CF2, size: 0x8, addend: 0x0, symName: '__ZN115_$LT$alloc..collections..vec_deque..drain..Drain$LT$T$C$A$GT$$u20$as$u20$core..iter..traits..iterator..Iterator$GT$4next17h870edf8d71cd69bcE', symObjAddr: 0x0, symBinAddr: 0x27F78, symSize: 0x130 }
  - { offset: 0x37331, size: 0x8, addend: 0x0, symName: __ZN4core4iter6traits8iterator8Iterator7collect17hb68ab78c56f7030dE, symObjAddr: 0x3A8, symBinAddr: 0x280E4, symSize: 0x74 }
  - { offset: 0x373D3, size: 0x8, addend: 0x0, symName: '__ZN63_$LT$I$u20$as$u20$core..iter..traits..collect..IntoIterator$GT$9into_iter17h8bdba2f7dd920e7aE', symObjAddr: 0x4E4, symBinAddr: 0x28220, symSize: 0x30 }
  - { offset: 0x375CC, size: 0x8, addend: 0x0, symName: '__ZN115_$LT$alloc..collections..vec_deque..drain..Drain$LT$T$C$A$GT$$u20$as$u20$core..iter..traits..iterator..Iterator$GT$4next17h870edf8d71cd69bcE', symObjAddr: 0x0, symBinAddr: 0x27F78, symSize: 0x130 }
  - { offset: 0x3785F, size: 0x8, addend: 0x0, symName: '__ZN115_$LT$alloc..collections..vec_deque..drain..Drain$LT$T$C$A$GT$$u20$as$u20$core..iter..traits..iterator..Iterator$GT$9size_hint17hca5216a78c46f4d1E', symObjAddr: 0x130, symBinAddr: 0x280A8, symSize: 0x3C }
  - { offset: 0x378B2, size: 0x8, addend: 0x0, symName: '__ZN169_$LT$$LT$alloc..collections..vec_deque..drain..Drain$LT$T$C$A$GT$$u20$as$u20$core..ops..drop..Drop$GT$..drop..DropGuard$LT$T$C$A$GT$$u20$as$u20$core..ops..drop..Drop$GT$4drop27join_head_and_tail_wrapping17h4cec4d580f0eb5eaE', symObjAddr: 0x16C, symBinAddr: 0x138BD0, symSize: 0x23C }
  - { offset: 0x38517, size: 0x8, addend: 0x0, symName: '__ZN5alloc11collections9vec_deque5drain18Drain$LT$T$C$A$GT$9as_slices17h28e748c87bba5ceeE', symObjAddr: 0x41C, symBinAddr: 0x28158, symSize: 0xC8 }
  - { offset: 0x38765, size: 0x8, addend: 0x0, symName: '__ZN62_$LT$T$u20$as$u20$alloc..vec..spec_from_elem..SpecFromElem$GT$9from_elem17h5ab0144f944f0e94E', symObjAddr: 0x0, symBinAddr: 0x28250, symSize: 0x1D4 }
  - { offset: 0x38FE6, size: 0x8, addend: 0x0, symName: '__ZN62_$LT$T$u20$as$u20$alloc..vec..spec_from_elem..SpecFromElem$GT$9from_elem17h5ab0144f944f0e94E', symObjAddr: 0x0, symBinAddr: 0x28250, symSize: 0x1D4 }
  - { offset: 0x390FD, size: 0x8, addend: 0x0, symName: '__ZN62_$LT$T$u20$as$u20$alloc..vec..spec_from_elem..SpecFromElem$GT$9from_elem17h5c05c9177560378eE', symObjAddr: 0x1D4, symBinAddr: 0x28424, symSize: 0x1A8 }
  - { offset: 0x39211, size: 0x8, addend: 0x0, symName: '__ZN62_$LT$T$u20$as$u20$alloc..vec..spec_from_elem..SpecFromElem$GT$9from_elem17h6059973567af4c27E', symObjAddr: 0x37C, symBinAddr: 0x285CC, symSize: 0x1B8 }
  - { offset: 0x3932C, size: 0x8, addend: 0x0, symName: '__ZN63_$LT$u8$u20$as$u20$alloc..vec..spec_from_elem..SpecFromElem$GT$9from_elem17hb796cf5228721abcE', symObjAddr: 0x534, symBinAddr: 0x28784, symSize: 0x158 }
  - { offset: 0x39B95, size: 0x8, addend: 0x0, symName: '__ZN4core5slice29_$LT$impl$u20$$u5b$T$u5d$$GT$12array_chunks17h340b41a2e11eee28E', symObjAddr: 0x0, symBinAddr: 0x288DC, symSize: 0xDC }
  - { offset: 0x3A8CB, size: 0x8, addend: 0x0, symName: '__ZN4core5slice29_$LT$impl$u20$$u5b$T$u5d$$GT$12array_chunks17h340b41a2e11eee28E', symObjAddr: 0x0, symBinAddr: 0x288DC, symSize: 0xDC }
  - { offset: 0x3AA86, size: 0x8, addend: 0x0, symName: '__ZN4core5slice29_$LT$impl$u20$$u5b$T$u5d$$GT$14swap_unchecked17h16a6ab1b735ce036E', symObjAddr: 0xDC, symBinAddr: 0x289B8, symSize: 0x74 }
  - { offset: 0x3ABAD, size: 0x8, addend: 0x0, symName: '__ZN4core5slice29_$LT$impl$u20$$u5b$T$u5d$$GT$15copy_from_slice17h619b4b576995a591E', symObjAddr: 0x150, symBinAddr: 0x28A2C, symSize: 0xAC }
  - { offset: 0x3AC9F, size: 0x8, addend: 0x0, symName: '__ZN4core5slice29_$LT$impl$u20$$u5b$T$u5d$$GT$15copy_from_slice17h7577839a77ad06b5E', symObjAddr: 0x1FC, symBinAddr: 0x28AD8, symSize: 0xAC }
  - { offset: 0x3AD5B, size: 0x8, addend: 0x0, symName: '__ZN4core5slice29_$LT$impl$u20$$u5b$T$u5d$$GT$16sort_unstable_by28_$u7b$$u7b$closure$u7d$$u7d$17hb6f1226dd6f13666E', symObjAddr: 0x374, symBinAddr: 0x28C50, symSize: 0x5C }
  - { offset: 0x3ADDA, size: 0x8, addend: 0x0, symName: '__ZN4core5slice29_$LT$impl$u20$$u5b$T$u5d$$GT$16sort_unstable_by28_$u7b$$u7b$closure$u7d$$u7d$17hba8b031eed2af89cE', symObjAddr: 0x3D0, symBinAddr: 0x28CAC, symSize: 0x5C }
  - { offset: 0x3AE5A, size: 0x8, addend: 0x0, symName: '__ZN4core5slice29_$LT$impl$u20$$u5b$T$u5d$$GT$16sort_unstable_by17he9b663504cb5b195E', symObjAddr: 0x2A8, symBinAddr: 0x28B84, symSize: 0xCC }
  - { offset: 0x3AF32, size: 0x8, addend: 0x0, symName: '__ZN4core5slice29_$LT$impl$u20$$u5b$T$u5d$$GT$18split_at_unchecked17h9ad6b69dec08f98bE', symObjAddr: 0x42C, symBinAddr: 0x28D08, symSize: 0xEC }
  - { offset: 0x3B0B2, size: 0x8, addend: 0x0, symName: '__ZN4core5slice29_$LT$impl$u20$$u5b$T$u5d$$GT$19as_chunks_unchecked17hb00360b17bda2074E', symObjAddr: 0x518, symBinAddr: 0x28DF4, symSize: 0xAC }
  - { offset: 0x3B1D3, size: 0x8, addend: 0x0, symName: '__ZN4core5slice29_$LT$impl$u20$$u5b$T$u5d$$GT$22split_at_mut_unchecked17h288fc48106b86118E', symObjAddr: 0x5C4, symBinAddr: 0x28EA0, symSize: 0xF8 }
  - { offset: 0x3B325, size: 0x8, addend: 0x0, symName: '__ZN4core5slice29_$LT$impl$u20$$u5b$T$u5d$$GT$4iter17h06a3b61182f150b4E', symObjAddr: 0x6BC, symBinAddr: 0x28F98, symSize: 0x28 }
  - { offset: 0x3B35C, size: 0x8, addend: 0x0, symName: '__ZN4core5slice29_$LT$impl$u20$$u5b$T$u5d$$GT$4iter17h21a339515c4d24e3E', symObjAddr: 0x6E4, symBinAddr: 0x28FC0, symSize: 0x28 }
  - { offset: 0x3B393, size: 0x8, addend: 0x0, symName: '__ZN4core5slice29_$LT$impl$u20$$u5b$T$u5d$$GT$4iter17h66149121bcc9aebeE', symObjAddr: 0x70C, symBinAddr: 0x28FE8, symSize: 0x28 }
  - { offset: 0x3B3CA, size: 0x8, addend: 0x0, symName: '__ZN4core5slice29_$LT$impl$u20$$u5b$T$u5d$$GT$4iter17h6c072fdcab50ba42E', symObjAddr: 0x734, symBinAddr: 0x29010, symSize: 0x28 }
  - { offset: 0x3B401, size: 0x8, addend: 0x0, symName: '__ZN4core5slice29_$LT$impl$u20$$u5b$T$u5d$$GT$4iter17hb01b14072cf6681bE', symObjAddr: 0x75C, symBinAddr: 0x29038, symSize: 0x28 }
  - { offset: 0x3B438, size: 0x8, addend: 0x0, symName: '__ZN4core5slice29_$LT$impl$u20$$u5b$T$u5d$$GT$4iter17hebeed7a7fddecdbeE', symObjAddr: 0x784, symBinAddr: 0x29060, symSize: 0x28 }
  - { offset: 0x3B46F, size: 0x8, addend: 0x0, symName: '__ZN4core5slice29_$LT$impl$u20$$u5b$T$u5d$$GT$5first17h43e2d194df0f6127E', symObjAddr: 0x7AC, symBinAddr: 0x29088, symSize: 0x44 }
  - { offset: 0x3B507, size: 0x8, addend: 0x0, symName: '__ZN4core5slice29_$LT$impl$u20$$u5b$T$u5d$$GT$7reverse17h768d02121058af5eE', symObjAddr: 0x7F0, symBinAddr: 0x290CC, symSize: 0x10C }
  - { offset: 0x3B720, size: 0x8, addend: 0x0, symName: '__ZN4core5slice29_$LT$impl$u20$$u5b$T$u5d$$GT$7reverse7revswap17h1f7a7c05b89006c4E', symObjAddr: 0x8FC, symBinAddr: 0x291D8, symSize: 0x278 }
  - { offset: 0x3B88F, size: 0x8, addend: 0x0, symName: '__ZN4core5slice29_$LT$impl$u20$$u5b$T$u5d$$GT$7reverse7revswap17haec4c0f6d6bcda4cE', symObjAddr: 0xB74, symBinAddr: 0x29450, symSize: 0x270 }
  - { offset: 0x3B9FD, size: 0x8, addend: 0x0, symName: '__ZN4core5slice29_$LT$impl$u20$$u5b$T$u5d$$GT$7reverse7revswap17hbbf1a4b9c1ac341bE', symObjAddr: 0xDE4, symBinAddr: 0x296C0, symSize: 0x2A8 }
  - { offset: 0x3BC77, size: 0x8, addend: 0x0, symName: '__ZN4core5slice29_$LT$impl$u20$$u5b$T$u5d$$GT$8is_empty17hc4ce5e9189013bb9E', symObjAddr: 0x108C, symBinAddr: 0x29968, symSize: 0x1C }
  - { offset: 0x3BCAC, size: 0x8, addend: 0x0, symName: '__ZN4core5slice29_$LT$impl$u20$$u5b$T$u5d$$GT$8iter_mut17h1015ce814bd1fc55E', symObjAddr: 0x10A8, symBinAddr: 0x29984, symSize: 0x28 }
  - { offset: 0x3BCE3, size: 0x8, addend: 0x0, symName: '__ZN4core5slice29_$LT$impl$u20$$u5b$T$u5d$$GT$8iter_mut17h4df3da0ff1ede026E', symObjAddr: 0x10D0, symBinAddr: 0x299AC, symSize: 0x28 }
  - { offset: 0x3BD1A, size: 0x8, addend: 0x0, symName: '__ZN4core5slice29_$LT$impl$u20$$u5b$T$u5d$$GT$9as_chunks17heee2b709fd8c29fbE', symObjAddr: 0x10F8, symBinAddr: 0x299D4, symSize: 0xBC }
  - { offset: 0x3C85D, size: 0x8, addend: 0x0, symName: '__ZN105_$LT$core..result..Result$LT$T$C$E$GT$$u20$as$u20$pyo3..impl_..pyclass_init..PyClassInit$LT$_$C$_$GT$$GT$4init17h1940b689953cb666E', symObjAddr: 0x0, symBinAddr: 0x29A90, symSize: 0xBC }
  - { offset: 0x3DF2B, size: 0x8, addend: 0x0, symName: '__ZN105_$LT$core..result..Result$LT$T$C$E$GT$$u20$as$u20$pyo3..impl_..pyclass_init..PyClassInit$LT$_$C$_$GT$$GT$4init17h1940b689953cb666E', symObjAddr: 0x0, symBinAddr: 0x29A90, symSize: 0xBC }
  - { offset: 0x3DF96, size: 0x8, addend: 0x0, symName: '__ZN105_$LT$core..result..Result$LT$T$C$E$GT$$u20$as$u20$pyo3..impl_..pyclass_init..PyClassInit$LT$_$C$_$GT$$GT$4init17h6c94495fae30a261E', symObjAddr: 0xBC, symBinAddr: 0x29B4C, symSize: 0xC0 }
  - { offset: 0x3E001, size: 0x8, addend: 0x0, symName: '__ZN105_$LT$core..result..Result$LT$T$C$E$GT$$u20$as$u20$pyo3..impl_..pyclass_init..PyClassInit$LT$_$C$_$GT$$GT$4init17h72708555ccedad84E', symObjAddr: 0x17C, symBinAddr: 0x29C0C, symSize: 0xBC }
  - { offset: 0x405EC, size: 0x8, addend: 0x0, symName: '__ZN153_$LT$core..result..Result$LT$T$C$F$GT$$u20$as$u20$core..ops..try_trait..FromResidual$LT$core..result..Result$LT$core..convert..Infallible$C$E$GT$$GT$$GT$13from_residual17h0147831e8b82d8f4E', symObjAddr: 0x238, symBinAddr: 0x29CC8, symSize: 0x4C }
  - { offset: 0x40653, size: 0x8, addend: 0x0, symName: '__ZN153_$LT$core..result..Result$LT$T$C$F$GT$$u20$as$u20$core..ops..try_trait..FromResidual$LT$core..result..Result$LT$core..convert..Infallible$C$E$GT$$GT$$GT$13from_residual17h02b41637504f975bE', symObjAddr: 0x284, symBinAddr: 0x29D14, symSize: 0x4C }
  - { offset: 0x406BA, size: 0x8, addend: 0x0, symName: '__ZN153_$LT$core..result..Result$LT$T$C$F$GT$$u20$as$u20$core..ops..try_trait..FromResidual$LT$core..result..Result$LT$core..convert..Infallible$C$E$GT$$GT$$GT$13from_residual17h0462f8cc398eb814E', symObjAddr: 0x2D0, symBinAddr: 0x29D60, symSize: 0x64 }
  - { offset: 0x40721, size: 0x8, addend: 0x0, symName: '__ZN153_$LT$core..result..Result$LT$T$C$F$GT$$u20$as$u20$core..ops..try_trait..FromResidual$LT$core..result..Result$LT$core..convert..Infallible$C$E$GT$$GT$$GT$13from_residual17h0b06419de98aeedeE', symObjAddr: 0x334, symBinAddr: 0x29DC4, symSize: 0x64 }
  - { offset: 0x40788, size: 0x8, addend: 0x0, symName: '__ZN153_$LT$core..result..Result$LT$T$C$F$GT$$u20$as$u20$core..ops..try_trait..FromResidual$LT$core..result..Result$LT$core..convert..Infallible$C$E$GT$$GT$$GT$13from_residual17h0b35c0c1f5575755E', symObjAddr: 0x398, symBinAddr: 0x29E28, symSize: 0x6C }
  - { offset: 0x4080E, size: 0x8, addend: 0x0, symName: '__ZN153_$LT$core..result..Result$LT$T$C$F$GT$$u20$as$u20$core..ops..try_trait..FromResidual$LT$core..result..Result$LT$core..convert..Infallible$C$E$GT$$GT$$GT$13from_residual17h129f8f0b71447a7fE', symObjAddr: 0x404, symBinAddr: 0x29E94, symSize: 0x6C }
  - { offset: 0x40894, size: 0x8, addend: 0x0, symName: '__ZN153_$LT$core..result..Result$LT$T$C$F$GT$$u20$as$u20$core..ops..try_trait..FromResidual$LT$core..result..Result$LT$core..convert..Infallible$C$E$GT$$GT$$GT$13from_residual17h15d5f03be8389617E', symObjAddr: 0x470, symBinAddr: 0x29F00, symSize: 0x6C }
  - { offset: 0x4091A, size: 0x8, addend: 0x0, symName: '__ZN153_$LT$core..result..Result$LT$T$C$F$GT$$u20$as$u20$core..ops..try_trait..FromResidual$LT$core..result..Result$LT$core..convert..Infallible$C$E$GT$$GT$$GT$13from_residual17h18b82865febbd68bE', symObjAddr: 0x4DC, symBinAddr: 0x29F6C, symSize: 0x4C }
  - { offset: 0x40981, size: 0x8, addend: 0x0, symName: '__ZN153_$LT$core..result..Result$LT$T$C$F$GT$$u20$as$u20$core..ops..try_trait..FromResidual$LT$core..result..Result$LT$core..convert..Infallible$C$E$GT$$GT$$GT$13from_residual17h1be81e87e502a9a6E', symObjAddr: 0x528, symBinAddr: 0x29FB8, symSize: 0x4C }
  - { offset: 0x409E8, size: 0x8, addend: 0x0, symName: '__ZN153_$LT$core..result..Result$LT$T$C$F$GT$$u20$as$u20$core..ops..try_trait..FromResidual$LT$core..result..Result$LT$core..convert..Infallible$C$E$GT$$GT$$GT$13from_residual17h1c8e83dc91763f47E', symObjAddr: 0x574, symBinAddr: 0x2A004, symSize: 0x6C }
  - { offset: 0x40A6E, size: 0x8, addend: 0x0, symName: '__ZN153_$LT$core..result..Result$LT$T$C$F$GT$$u20$as$u20$core..ops..try_trait..FromResidual$LT$core..result..Result$LT$core..convert..Infallible$C$E$GT$$GT$$GT$13from_residual17h1dc31b0c25ee888bE', symObjAddr: 0x5E0, symBinAddr: 0x2A070, symSize: 0x64 }
  - { offset: 0x40AD5, size: 0x8, addend: 0x0, symName: '__ZN153_$LT$core..result..Result$LT$T$C$F$GT$$u20$as$u20$core..ops..try_trait..FromResidual$LT$core..result..Result$LT$core..convert..Infallible$C$E$GT$$GT$$GT$13from_residual17h1de86e591abc7f9dE', symObjAddr: 0x644, symBinAddr: 0x2A0D4, symSize: 0x64 }
  - { offset: 0x40B3C, size: 0x8, addend: 0x0, symName: '__ZN153_$LT$core..result..Result$LT$T$C$F$GT$$u20$as$u20$core..ops..try_trait..FromResidual$LT$core..result..Result$LT$core..convert..Infallible$C$E$GT$$GT$$GT$13from_residual17h200869c03a040051E', symObjAddr: 0x6A8, symBinAddr: 0x2A138, symSize: 0x6C }
  - { offset: 0x40BC2, size: 0x8, addend: 0x0, symName: '__ZN153_$LT$core..result..Result$LT$T$C$F$GT$$u20$as$u20$core..ops..try_trait..FromResidual$LT$core..result..Result$LT$core..convert..Infallible$C$E$GT$$GT$$GT$13from_residual17h212ab37e33fd280bE', symObjAddr: 0x714, symBinAddr: 0x2A1A4, symSize: 0x6C }
  - { offset: 0x40C48, size: 0x8, addend: 0x0, symName: '__ZN153_$LT$core..result..Result$LT$T$C$F$GT$$u20$as$u20$core..ops..try_trait..FromResidual$LT$core..result..Result$LT$core..convert..Infallible$C$E$GT$$GT$$GT$13from_residual17h22b181bf725f06f2E', symObjAddr: 0x780, symBinAddr: 0x2A210, symSize: 0x64 }
  - { offset: 0x40CAF, size: 0x8, addend: 0x0, symName: '__ZN153_$LT$core..result..Result$LT$T$C$F$GT$$u20$as$u20$core..ops..try_trait..FromResidual$LT$core..result..Result$LT$core..convert..Infallible$C$E$GT$$GT$$GT$13from_residual17h27f39d55d1cf8304E', symObjAddr: 0x7E4, symBinAddr: 0x2A274, symSize: 0x6C }
  - { offset: 0x40D35, size: 0x8, addend: 0x0, symName: '__ZN153_$LT$core..result..Result$LT$T$C$F$GT$$u20$as$u20$core..ops..try_trait..FromResidual$LT$core..result..Result$LT$core..convert..Infallible$C$E$GT$$GT$$GT$13from_residual17h2de79968638cf873E', symObjAddr: 0x850, symBinAddr: 0x2A2E0, symSize: 0x4C }
  - { offset: 0x40D9C, size: 0x8, addend: 0x0, symName: '__ZN153_$LT$core..result..Result$LT$T$C$F$GT$$u20$as$u20$core..ops..try_trait..FromResidual$LT$core..result..Result$LT$core..convert..Infallible$C$E$GT$$GT$$GT$13from_residual17h2e8839776b9e54fcE', symObjAddr: 0x89C, symBinAddr: 0x2A32C, symSize: 0x64 }
  - { offset: 0x40E03, size: 0x8, addend: 0x0, symName: '__ZN153_$LT$core..result..Result$LT$T$C$F$GT$$u20$as$u20$core..ops..try_trait..FromResidual$LT$core..result..Result$LT$core..convert..Infallible$C$E$GT$$GT$$GT$13from_residual17h2f75303fcd2dce40E', symObjAddr: 0x900, symBinAddr: 0x2A390, symSize: 0x6C }
  - { offset: 0x40E89, size: 0x8, addend: 0x0, symName: '__ZN153_$LT$core..result..Result$LT$T$C$F$GT$$u20$as$u20$core..ops..try_trait..FromResidual$LT$core..result..Result$LT$core..convert..Infallible$C$E$GT$$GT$$GT$13from_residual17h3015e886323c8b06E', symObjAddr: 0x96C, symBinAddr: 0x2A3FC, symSize: 0x6C }
  - { offset: 0x40F0F, size: 0x8, addend: 0x0, symName: '__ZN153_$LT$core..result..Result$LT$T$C$F$GT$$u20$as$u20$core..ops..try_trait..FromResidual$LT$core..result..Result$LT$core..convert..Infallible$C$E$GT$$GT$$GT$13from_residual17h324425bd043a681eE', symObjAddr: 0x9D8, symBinAddr: 0x2A468, symSize: 0x6C }
  - { offset: 0x40F95, size: 0x8, addend: 0x0, symName: '__ZN153_$LT$core..result..Result$LT$T$C$F$GT$$u20$as$u20$core..ops..try_trait..FromResidual$LT$core..result..Result$LT$core..convert..Infallible$C$E$GT$$GT$$GT$13from_residual17h34f28098b3055e71E', symObjAddr: 0xA44, symBinAddr: 0x2A4D4, symSize: 0x64 }
  - { offset: 0x40FFC, size: 0x8, addend: 0x0, symName: '__ZN153_$LT$core..result..Result$LT$T$C$F$GT$$u20$as$u20$core..ops..try_trait..FromResidual$LT$core..result..Result$LT$core..convert..Infallible$C$E$GT$$GT$$GT$13from_residual17h36d36b191e2781cfE', symObjAddr: 0xAA8, symBinAddr: 0x2A538, symSize: 0x64 }
  - { offset: 0x41063, size: 0x8, addend: 0x0, symName: '__ZN153_$LT$core..result..Result$LT$T$C$F$GT$$u20$as$u20$core..ops..try_trait..FromResidual$LT$core..result..Result$LT$core..convert..Infallible$C$E$GT$$GT$$GT$13from_residual17h3a52cd4bbef05467E', symObjAddr: 0xB0C, symBinAddr: 0x2A59C, symSize: 0x64 }
  - { offset: 0x410CA, size: 0x8, addend: 0x0, symName: '__ZN153_$LT$core..result..Result$LT$T$C$F$GT$$u20$as$u20$core..ops..try_trait..FromResidual$LT$core..result..Result$LT$core..convert..Infallible$C$E$GT$$GT$$GT$13from_residual17h3a66a37402c2134fE', symObjAddr: 0xB70, symBinAddr: 0x2A600, symSize: 0x64 }
  - { offset: 0x41131, size: 0x8, addend: 0x0, symName: '__ZN153_$LT$core..result..Result$LT$T$C$F$GT$$u20$as$u20$core..ops..try_trait..FromResidual$LT$core..result..Result$LT$core..convert..Infallible$C$E$GT$$GT$$GT$13from_residual17h3b114ad74d7b02aaE', symObjAddr: 0xBD4, symBinAddr: 0x2A664, symSize: 0x6C }
  - { offset: 0x411B7, size: 0x8, addend: 0x0, symName: '__ZN153_$LT$core..result..Result$LT$T$C$F$GT$$u20$as$u20$core..ops..try_trait..FromResidual$LT$core..result..Result$LT$core..convert..Infallible$C$E$GT$$GT$$GT$13from_residual17h41fa2682ef6660ebE', symObjAddr: 0xC40, symBinAddr: 0x2A6D0, symSize: 0x6C }
  - { offset: 0x4123D, size: 0x8, addend: 0x0, symName: '__ZN153_$LT$core..result..Result$LT$T$C$F$GT$$u20$as$u20$core..ops..try_trait..FromResidual$LT$core..result..Result$LT$core..convert..Infallible$C$E$GT$$GT$$GT$13from_residual17h41fbe02a293bb029E', symObjAddr: 0xCAC, symBinAddr: 0x2A73C, symSize: 0x4C }
  - { offset: 0x412A4, size: 0x8, addend: 0x0, symName: '__ZN153_$LT$core..result..Result$LT$T$C$F$GT$$u20$as$u20$core..ops..try_trait..FromResidual$LT$core..result..Result$LT$core..convert..Infallible$C$E$GT$$GT$$GT$13from_residual17h46835847d4b834edE', symObjAddr: 0xCF8, symBinAddr: 0x2A788, symSize: 0x4C }
  - { offset: 0x4130B, size: 0x8, addend: 0x0, symName: '__ZN153_$LT$core..result..Result$LT$T$C$F$GT$$u20$as$u20$core..ops..try_trait..FromResidual$LT$core..result..Result$LT$core..convert..Infallible$C$E$GT$$GT$$GT$13from_residual17h468d2ebfd630f373E', symObjAddr: 0xD44, symBinAddr: 0x2A7D4, symSize: 0x64 }
  - { offset: 0x41372, size: 0x8, addend: 0x0, symName: '__ZN153_$LT$core..result..Result$LT$T$C$F$GT$$u20$as$u20$core..ops..try_trait..FromResidual$LT$core..result..Result$LT$core..convert..Infallible$C$E$GT$$GT$$GT$13from_residual17h4aaa97ca2bb71afbE', symObjAddr: 0xDA8, symBinAddr: 0x2A838, symSize: 0x6C }
  - { offset: 0x413F8, size: 0x8, addend: 0x0, symName: '__ZN153_$LT$core..result..Result$LT$T$C$F$GT$$u20$as$u20$core..ops..try_trait..FromResidual$LT$core..result..Result$LT$core..convert..Infallible$C$E$GT$$GT$$GT$13from_residual17h4c47d36700d29ee6E', symObjAddr: 0xE14, symBinAddr: 0x2A8A4, symSize: 0x6C }
  - { offset: 0x4147E, size: 0x8, addend: 0x0, symName: '__ZN153_$LT$core..result..Result$LT$T$C$F$GT$$u20$as$u20$core..ops..try_trait..FromResidual$LT$core..result..Result$LT$core..convert..Infallible$C$E$GT$$GT$$GT$13from_residual17h4c8f602168d53b00E', symObjAddr: 0xE80, symBinAddr: 0x2A910, symSize: 0x6C }
  - { offset: 0x41504, size: 0x8, addend: 0x0, symName: '__ZN153_$LT$core..result..Result$LT$T$C$F$GT$$u20$as$u20$core..ops..try_trait..FromResidual$LT$core..result..Result$LT$core..convert..Infallible$C$E$GT$$GT$$GT$13from_residual17h4f52e283cfb6f038E', symObjAddr: 0xEEC, symBinAddr: 0x2A97C, symSize: 0x4C }
  - { offset: 0x4156B, size: 0x8, addend: 0x0, symName: '__ZN153_$LT$core..result..Result$LT$T$C$F$GT$$u20$as$u20$core..ops..try_trait..FromResidual$LT$core..result..Result$LT$core..convert..Infallible$C$E$GT$$GT$$GT$13from_residual17h517e254836c7b491E', symObjAddr: 0xF38, symBinAddr: 0x2A9C8, symSize: 0x4C }
  - { offset: 0x415D2, size: 0x8, addend: 0x0, symName: '__ZN153_$LT$core..result..Result$LT$T$C$F$GT$$u20$as$u20$core..ops..try_trait..FromResidual$LT$core..result..Result$LT$core..convert..Infallible$C$E$GT$$GT$$GT$13from_residual17h563b606d91c72355E', symObjAddr: 0xF84, symBinAddr: 0x2AA14, symSize: 0x64 }
  - { offset: 0x41639, size: 0x8, addend: 0x0, symName: '__ZN153_$LT$core..result..Result$LT$T$C$F$GT$$u20$as$u20$core..ops..try_trait..FromResidual$LT$core..result..Result$LT$core..convert..Infallible$C$E$GT$$GT$$GT$13from_residual17h57d3953af988b392E', symObjAddr: 0xFE8, symBinAddr: 0x2AA78, symSize: 0x64 }
  - { offset: 0x416A0, size: 0x8, addend: 0x0, symName: '__ZN153_$LT$core..result..Result$LT$T$C$F$GT$$u20$as$u20$core..ops..try_trait..FromResidual$LT$core..result..Result$LT$core..convert..Infallible$C$E$GT$$GT$$GT$13from_residual17h59f6caf267440a3eE', symObjAddr: 0x104C, symBinAddr: 0x2AADC, symSize: 0x6C }
  - { offset: 0x41726, size: 0x8, addend: 0x0, symName: '__ZN153_$LT$core..result..Result$LT$T$C$F$GT$$u20$as$u20$core..ops..try_trait..FromResidual$LT$core..result..Result$LT$core..convert..Infallible$C$E$GT$$GT$$GT$13from_residual17h5b9d55389485b0eaE', symObjAddr: 0x10B8, symBinAddr: 0x2AB48, symSize: 0x6C }
  - { offset: 0x417AC, size: 0x8, addend: 0x0, symName: '__ZN153_$LT$core..result..Result$LT$T$C$F$GT$$u20$as$u20$core..ops..try_trait..FromResidual$LT$core..result..Result$LT$core..convert..Infallible$C$E$GT$$GT$$GT$13from_residual17h5bfa1d802da2e8fbE', symObjAddr: 0x1124, symBinAddr: 0x2ABB4, symSize: 0x4C }
  - { offset: 0x41813, size: 0x8, addend: 0x0, symName: '__ZN153_$LT$core..result..Result$LT$T$C$F$GT$$u20$as$u20$core..ops..try_trait..FromResidual$LT$core..result..Result$LT$core..convert..Infallible$C$E$GT$$GT$$GT$13from_residual17h5ebc9811d558f454E', symObjAddr: 0x1170, symBinAddr: 0x2AC00, symSize: 0x4C }
  - { offset: 0x4187A, size: 0x8, addend: 0x0, symName: '__ZN153_$LT$core..result..Result$LT$T$C$F$GT$$u20$as$u20$core..ops..try_trait..FromResidual$LT$core..result..Result$LT$core..convert..Infallible$C$E$GT$$GT$$GT$13from_residual17h617004a9d2d06669E', symObjAddr: 0x11BC, symBinAddr: 0x2AC4C, symSize: 0x6C }
  - { offset: 0x41900, size: 0x8, addend: 0x0, symName: '__ZN153_$LT$core..result..Result$LT$T$C$F$GT$$u20$as$u20$core..ops..try_trait..FromResidual$LT$core..result..Result$LT$core..convert..Infallible$C$E$GT$$GT$$GT$13from_residual17h61f509cbee6ad9cdE', symObjAddr: 0x1228, symBinAddr: 0x2ACB8, symSize: 0x64 }
  - { offset: 0x41967, size: 0x8, addend: 0x0, symName: '__ZN153_$LT$core..result..Result$LT$T$C$F$GT$$u20$as$u20$core..ops..try_trait..FromResidual$LT$core..result..Result$LT$core..convert..Infallible$C$E$GT$$GT$$GT$13from_residual17h675274a45dcdcaadE', symObjAddr: 0x128C, symBinAddr: 0x2AD1C, symSize: 0x4C }
  - { offset: 0x419CE, size: 0x8, addend: 0x0, symName: '__ZN153_$LT$core..result..Result$LT$T$C$F$GT$$u20$as$u20$core..ops..try_trait..FromResidual$LT$core..result..Result$LT$core..convert..Infallible$C$E$GT$$GT$$GT$13from_residual17h6781514e55e0e737E', symObjAddr: 0x12D8, symBinAddr: 0x2AD68, symSize: 0x4C }
  - { offset: 0x41A35, size: 0x8, addend: 0x0, symName: '__ZN153_$LT$core..result..Result$LT$T$C$F$GT$$u20$as$u20$core..ops..try_trait..FromResidual$LT$core..result..Result$LT$core..convert..Infallible$C$E$GT$$GT$$GT$13from_residual17h6be53e81598b11bdE', symObjAddr: 0x1324, symBinAddr: 0x2ADB4, symSize: 0x4C }
  - { offset: 0x41A9C, size: 0x8, addend: 0x0, symName: '__ZN153_$LT$core..result..Result$LT$T$C$F$GT$$u20$as$u20$core..ops..try_trait..FromResidual$LT$core..result..Result$LT$core..convert..Infallible$C$E$GT$$GT$$GT$13from_residual17h6cad44aa115a3327E', symObjAddr: 0x1370, symBinAddr: 0x2AE00, symSize: 0x3C }
  - { offset: 0x41B03, size: 0x8, addend: 0x0, symName: '__ZN153_$LT$core..result..Result$LT$T$C$F$GT$$u20$as$u20$core..ops..try_trait..FromResidual$LT$core..result..Result$LT$core..convert..Infallible$C$E$GT$$GT$$GT$13from_residual17h6fac578af05f55f7E', symObjAddr: 0x13AC, symBinAddr: 0x2AE3C, symSize: 0x6C }
  - { offset: 0x41B89, size: 0x8, addend: 0x0, symName: '__ZN153_$LT$core..result..Result$LT$T$C$F$GT$$u20$as$u20$core..ops..try_trait..FromResidual$LT$core..result..Result$LT$core..convert..Infallible$C$E$GT$$GT$$GT$13from_residual17h70f09396da0d7918E', symObjAddr: 0x1418, symBinAddr: 0x2AEA8, symSize: 0x4C }
  - { offset: 0x41BF0, size: 0x8, addend: 0x0, symName: '__ZN153_$LT$core..result..Result$LT$T$C$F$GT$$u20$as$u20$core..ops..try_trait..FromResidual$LT$core..result..Result$LT$core..convert..Infallible$C$E$GT$$GT$$GT$13from_residual17h71359a9172a3c5a2E', symObjAddr: 0x1464, symBinAddr: 0x2AEF4, symSize: 0x4C }
  - { offset: 0x41C57, size: 0x8, addend: 0x0, symName: '__ZN153_$LT$core..result..Result$LT$T$C$F$GT$$u20$as$u20$core..ops..try_trait..FromResidual$LT$core..result..Result$LT$core..convert..Infallible$C$E$GT$$GT$$GT$13from_residual17h73bc5a0ef818d3a8E', symObjAddr: 0x14B0, symBinAddr: 0x2AF40, symSize: 0x4C }
  - { offset: 0x41CBE, size: 0x8, addend: 0x0, symName: '__ZN153_$LT$core..result..Result$LT$T$C$F$GT$$u20$as$u20$core..ops..try_trait..FromResidual$LT$core..result..Result$LT$core..convert..Infallible$C$E$GT$$GT$$GT$13from_residual17h7b5f05a1772bc081E', symObjAddr: 0x14FC, symBinAddr: 0x2AF8C, symSize: 0x64 }
  - { offset: 0x41D25, size: 0x8, addend: 0x0, symName: '__ZN153_$LT$core..result..Result$LT$T$C$F$GT$$u20$as$u20$core..ops..try_trait..FromResidual$LT$core..result..Result$LT$core..convert..Infallible$C$E$GT$$GT$$GT$13from_residual17h7c9b2fc54727fe15E', symObjAddr: 0x1560, symBinAddr: 0x2AFF0, symSize: 0x6C }
  - { offset: 0x41DAB, size: 0x8, addend: 0x0, symName: '__ZN153_$LT$core..result..Result$LT$T$C$F$GT$$u20$as$u20$core..ops..try_trait..FromResidual$LT$core..result..Result$LT$core..convert..Infallible$C$E$GT$$GT$$GT$13from_residual17h7e1adf4eddc5df26E', symObjAddr: 0x15CC, symBinAddr: 0x2B05C, symSize: 0x4C }
  - { offset: 0x41E12, size: 0x8, addend: 0x0, symName: '__ZN153_$LT$core..result..Result$LT$T$C$F$GT$$u20$as$u20$core..ops..try_trait..FromResidual$LT$core..result..Result$LT$core..convert..Infallible$C$E$GT$$GT$$GT$13from_residual17h7ebe35a722feb240E', symObjAddr: 0x1618, symBinAddr: 0x2B0A8, symSize: 0x4C }
  - { offset: 0x41E79, size: 0x8, addend: 0x0, symName: '__ZN153_$LT$core..result..Result$LT$T$C$F$GT$$u20$as$u20$core..ops..try_trait..FromResidual$LT$core..result..Result$LT$core..convert..Infallible$C$E$GT$$GT$$GT$13from_residual17h809a760ec703b611E', symObjAddr: 0x1664, symBinAddr: 0x2B0F4, symSize: 0x64 }
  - { offset: 0x41EE0, size: 0x8, addend: 0x0, symName: '__ZN153_$LT$core..result..Result$LT$T$C$F$GT$$u20$as$u20$core..ops..try_trait..FromResidual$LT$core..result..Result$LT$core..convert..Infallible$C$E$GT$$GT$$GT$13from_residual17h8375c2ae354c1c12E', symObjAddr: 0x16C8, symBinAddr: 0x2B158, symSize: 0x6C }
  - { offset: 0x41F66, size: 0x8, addend: 0x0, symName: '__ZN153_$LT$core..result..Result$LT$T$C$F$GT$$u20$as$u20$core..ops..try_trait..FromResidual$LT$core..result..Result$LT$core..convert..Infallible$C$E$GT$$GT$$GT$13from_residual17h84180bcc5632a10aE', symObjAddr: 0x1734, symBinAddr: 0x2B1C4, symSize: 0x4C }
  - { offset: 0x41FCD, size: 0x8, addend: 0x0, symName: '__ZN153_$LT$core..result..Result$LT$T$C$F$GT$$u20$as$u20$core..ops..try_trait..FromResidual$LT$core..result..Result$LT$core..convert..Infallible$C$E$GT$$GT$$GT$13from_residual17h864695a683a5aef6E', symObjAddr: 0x1780, symBinAddr: 0x2B210, symSize: 0x6C }
  - { offset: 0x42053, size: 0x8, addend: 0x0, symName: '__ZN153_$LT$core..result..Result$LT$T$C$F$GT$$u20$as$u20$core..ops..try_trait..FromResidual$LT$core..result..Result$LT$core..convert..Infallible$C$E$GT$$GT$$GT$13from_residual17h865c26effe0ecd45E', symObjAddr: 0x17EC, symBinAddr: 0x2B27C, symSize: 0x6C }
  - { offset: 0x420D9, size: 0x8, addend: 0x0, symName: '__ZN153_$LT$core..result..Result$LT$T$C$F$GT$$u20$as$u20$core..ops..try_trait..FromResidual$LT$core..result..Result$LT$core..convert..Infallible$C$E$GT$$GT$$GT$13from_residual17h8815044a0eec8b87E', symObjAddr: 0x1858, symBinAddr: 0x2B2E8, symSize: 0x4C }
  - { offset: 0x42140, size: 0x8, addend: 0x0, symName: '__ZN153_$LT$core..result..Result$LT$T$C$F$GT$$u20$as$u20$core..ops..try_trait..FromResidual$LT$core..result..Result$LT$core..convert..Infallible$C$E$GT$$GT$$GT$13from_residual17h88e2046663e62239E', symObjAddr: 0x18A4, symBinAddr: 0x2B334, symSize: 0x4C }
  - { offset: 0x421A7, size: 0x8, addend: 0x0, symName: '__ZN153_$LT$core..result..Result$LT$T$C$F$GT$$u20$as$u20$core..ops..try_trait..FromResidual$LT$core..result..Result$LT$core..convert..Infallible$C$E$GT$$GT$$GT$13from_residual17h8b0d6fa27f8307afE', symObjAddr: 0x18F0, symBinAddr: 0x2B380, symSize: 0x6C }
  - { offset: 0x4222D, size: 0x8, addend: 0x0, symName: '__ZN153_$LT$core..result..Result$LT$T$C$F$GT$$u20$as$u20$core..ops..try_trait..FromResidual$LT$core..result..Result$LT$core..convert..Infallible$C$E$GT$$GT$$GT$13from_residual17h8d6180f6138ff071E', symObjAddr: 0x195C, symBinAddr: 0x2B3EC, symSize: 0x64 }
  - { offset: 0x42294, size: 0x8, addend: 0x0, symName: '__ZN153_$LT$core..result..Result$LT$T$C$F$GT$$u20$as$u20$core..ops..try_trait..FromResidual$LT$core..result..Result$LT$core..convert..Infallible$C$E$GT$$GT$$GT$13from_residual17h8e0e10eca215ed50E', symObjAddr: 0x19C0, symBinAddr: 0x2B450, symSize: 0x64 }
  - { offset: 0x422FB, size: 0x8, addend: 0x0, symName: '__ZN153_$LT$core..result..Result$LT$T$C$F$GT$$u20$as$u20$core..ops..try_trait..FromResidual$LT$core..result..Result$LT$core..convert..Infallible$C$E$GT$$GT$$GT$13from_residual17h90f1194f6109fa74E', symObjAddr: 0x1A24, symBinAddr: 0x2B4B4, symSize: 0x4C }
  - { offset: 0x42362, size: 0x8, addend: 0x0, symName: '__ZN153_$LT$core..result..Result$LT$T$C$F$GT$$u20$as$u20$core..ops..try_trait..FromResidual$LT$core..result..Result$LT$core..convert..Infallible$C$E$GT$$GT$$GT$13from_residual17h91fead75fe947ec4E', symObjAddr: 0x1A70, symBinAddr: 0x2B500, symSize: 0x4C }
  - { offset: 0x423C9, size: 0x8, addend: 0x0, symName: '__ZN153_$LT$core..result..Result$LT$T$C$F$GT$$u20$as$u20$core..ops..try_trait..FromResidual$LT$core..result..Result$LT$core..convert..Infallible$C$E$GT$$GT$$GT$13from_residual17h92c71b57cbeb7e46E', symObjAddr: 0x1ABC, symBinAddr: 0x2B54C, symSize: 0x64 }
  - { offset: 0x42430, size: 0x8, addend: 0x0, symName: '__ZN153_$LT$core..result..Result$LT$T$C$F$GT$$u20$as$u20$core..ops..try_trait..FromResidual$LT$core..result..Result$LT$core..convert..Infallible$C$E$GT$$GT$$GT$13from_residual17h934331ff18a944b1E', symObjAddr: 0x1B20, symBinAddr: 0x2B5B0, symSize: 0x4C }
  - { offset: 0x42497, size: 0x8, addend: 0x0, symName: '__ZN153_$LT$core..result..Result$LT$T$C$F$GT$$u20$as$u20$core..ops..try_trait..FromResidual$LT$core..result..Result$LT$core..convert..Infallible$C$E$GT$$GT$$GT$13from_residual17ha1ea24d1f9e3fc85E', symObjAddr: 0x1B6C, symBinAddr: 0x2B5FC, symSize: 0x3C }
  - { offset: 0x424FE, size: 0x8, addend: 0x0, symName: '__ZN153_$LT$core..result..Result$LT$T$C$F$GT$$u20$as$u20$core..ops..try_trait..FromResidual$LT$core..result..Result$LT$core..convert..Infallible$C$E$GT$$GT$$GT$13from_residual17ha40f0629ab02f2bcE', symObjAddr: 0x1BA8, symBinAddr: 0x2B638, symSize: 0x4C }
  - { offset: 0x42565, size: 0x8, addend: 0x0, symName: '__ZN153_$LT$core..result..Result$LT$T$C$F$GT$$u20$as$u20$core..ops..try_trait..FromResidual$LT$core..result..Result$LT$core..convert..Infallible$C$E$GT$$GT$$GT$13from_residual17ha50ff2bad6b57c32E', symObjAddr: 0x1BF4, symBinAddr: 0x2B684, symSize: 0x64 }
  - { offset: 0x425CC, size: 0x8, addend: 0x0, symName: '__ZN153_$LT$core..result..Result$LT$T$C$F$GT$$u20$as$u20$core..ops..try_trait..FromResidual$LT$core..result..Result$LT$core..convert..Infallible$C$E$GT$$GT$$GT$13from_residual17ha6ade8e46b2efdd7E', symObjAddr: 0x1C58, symBinAddr: 0x2B6E8, symSize: 0x6C }
  - { offset: 0x42652, size: 0x8, addend: 0x0, symName: '__ZN153_$LT$core..result..Result$LT$T$C$F$GT$$u20$as$u20$core..ops..try_trait..FromResidual$LT$core..result..Result$LT$core..convert..Infallible$C$E$GT$$GT$$GT$13from_residual17ha88a7a65f3305df1E', symObjAddr: 0x1CC4, symBinAddr: 0x2B754, symSize: 0x64 }
  - { offset: 0x426B9, size: 0x8, addend: 0x0, symName: '__ZN153_$LT$core..result..Result$LT$T$C$F$GT$$u20$as$u20$core..ops..try_trait..FromResidual$LT$core..result..Result$LT$core..convert..Infallible$C$E$GT$$GT$$GT$13from_residual17hb1204fb71a0f5ed4E', symObjAddr: 0x1D28, symBinAddr: 0x2B7B8, symSize: 0x4C }
  - { offset: 0x42720, size: 0x8, addend: 0x0, symName: '__ZN153_$LT$core..result..Result$LT$T$C$F$GT$$u20$as$u20$core..ops..try_trait..FromResidual$LT$core..result..Result$LT$core..convert..Infallible$C$E$GT$$GT$$GT$13from_residual17hb2699a5af9103278E', symObjAddr: 0x1D74, symBinAddr: 0x2B804, symSize: 0x6C }
  - { offset: 0x427A6, size: 0x8, addend: 0x0, symName: '__ZN153_$LT$core..result..Result$LT$T$C$F$GT$$u20$as$u20$core..ops..try_trait..FromResidual$LT$core..result..Result$LT$core..convert..Infallible$C$E$GT$$GT$$GT$13from_residual17hb36c8b141aafc4f9E', symObjAddr: 0x1DE0, symBinAddr: 0x2B870, symSize: 0x4C }
  - { offset: 0x4280D, size: 0x8, addend: 0x0, symName: '__ZN153_$LT$core..result..Result$LT$T$C$F$GT$$u20$as$u20$core..ops..try_trait..FromResidual$LT$core..result..Result$LT$core..convert..Infallible$C$E$GT$$GT$$GT$13from_residual17hb47c433d203ace63E', symObjAddr: 0x1E2C, symBinAddr: 0x2B8BC, symSize: 0x6C }
  - { offset: 0x42893, size: 0x8, addend: 0x0, symName: '__ZN153_$LT$core..result..Result$LT$T$C$F$GT$$u20$as$u20$core..ops..try_trait..FromResidual$LT$core..result..Result$LT$core..convert..Infallible$C$E$GT$$GT$$GT$13from_residual17hb5c0d7c82fa6979dE', symObjAddr: 0x1E98, symBinAddr: 0x2B928, symSize: 0x4C }
  - { offset: 0x428FA, size: 0x8, addend: 0x0, symName: '__ZN153_$LT$core..result..Result$LT$T$C$F$GT$$u20$as$u20$core..ops..try_trait..FromResidual$LT$core..result..Result$LT$core..convert..Infallible$C$E$GT$$GT$$GT$13from_residual17hb79daaa2a9b53d45E', symObjAddr: 0x1EE4, symBinAddr: 0x2B974, symSize: 0x4C }
  - { offset: 0x42961, size: 0x8, addend: 0x0, symName: '__ZN153_$LT$core..result..Result$LT$T$C$F$GT$$u20$as$u20$core..ops..try_trait..FromResidual$LT$core..result..Result$LT$core..convert..Infallible$C$E$GT$$GT$$GT$13from_residual17hb7fd62425a8bec3dE', symObjAddr: 0x1F30, symBinAddr: 0x2B9C0, symSize: 0x64 }
  - { offset: 0x429C8, size: 0x8, addend: 0x0, symName: '__ZN153_$LT$core..result..Result$LT$T$C$F$GT$$u20$as$u20$core..ops..try_trait..FromResidual$LT$core..result..Result$LT$core..convert..Infallible$C$E$GT$$GT$$GT$13from_residual17hb823b386a25c8eeaE', symObjAddr: 0x1F94, symBinAddr: 0x2BA24, symSize: 0x64 }
  - { offset: 0x42A2F, size: 0x8, addend: 0x0, symName: '__ZN153_$LT$core..result..Result$LT$T$C$F$GT$$u20$as$u20$core..ops..try_trait..FromResidual$LT$core..result..Result$LT$core..convert..Infallible$C$E$GT$$GT$$GT$13from_residual17hb87dff2368be05bbE', symObjAddr: 0x1FF8, symBinAddr: 0x2BA88, symSize: 0x6C }
  - { offset: 0x42AB5, size: 0x8, addend: 0x0, symName: '__ZN153_$LT$core..result..Result$LT$T$C$F$GT$$u20$as$u20$core..ops..try_trait..FromResidual$LT$core..result..Result$LT$core..convert..Infallible$C$E$GT$$GT$$GT$13from_residual17hb9b82e07322dd1b4E', symObjAddr: 0x2064, symBinAddr: 0x2BAF4, symSize: 0x6C }
  - { offset: 0x42B3B, size: 0x8, addend: 0x0, symName: '__ZN153_$LT$core..result..Result$LT$T$C$F$GT$$u20$as$u20$core..ops..try_trait..FromResidual$LT$core..result..Result$LT$core..convert..Infallible$C$E$GT$$GT$$GT$13from_residual17hbba93cae8fee4563E', symObjAddr: 0x20D0, symBinAddr: 0x2BB60, symSize: 0x64 }
  - { offset: 0x42BA2, size: 0x8, addend: 0x0, symName: '__ZN153_$LT$core..result..Result$LT$T$C$F$GT$$u20$as$u20$core..ops..try_trait..FromResidual$LT$core..result..Result$LT$core..convert..Infallible$C$E$GT$$GT$$GT$13from_residual17hbe5c25c24ce2e48bE', symObjAddr: 0x2134, symBinAddr: 0x2BBC4, symSize: 0x4C }
  - { offset: 0x42C09, size: 0x8, addend: 0x0, symName: '__ZN153_$LT$core..result..Result$LT$T$C$F$GT$$u20$as$u20$core..ops..try_trait..FromResidual$LT$core..result..Result$LT$core..convert..Infallible$C$E$GT$$GT$$GT$13from_residual17hc2c82658e34263b7E', symObjAddr: 0x2180, symBinAddr: 0x2BC10, symSize: 0x38 }
  - { offset: 0x42C70, size: 0x8, addend: 0x0, symName: '__ZN153_$LT$core..result..Result$LT$T$C$F$GT$$u20$as$u20$core..ops..try_trait..FromResidual$LT$core..result..Result$LT$core..convert..Infallible$C$E$GT$$GT$$GT$13from_residual17hc2df155942abdc16E', symObjAddr: 0x21B8, symBinAddr: 0x2BC48, symSize: 0x38 }
  - { offset: 0x42CD7, size: 0x8, addend: 0x0, symName: '__ZN153_$LT$core..result..Result$LT$T$C$F$GT$$u20$as$u20$core..ops..try_trait..FromResidual$LT$core..result..Result$LT$core..convert..Infallible$C$E$GT$$GT$$GT$13from_residual17hc5d46dc3778e95c3E', symObjAddr: 0x21F0, symBinAddr: 0x2BC80, symSize: 0x38 }
  - { offset: 0x42D3E, size: 0x8, addend: 0x0, symName: '__ZN153_$LT$core..result..Result$LT$T$C$F$GT$$u20$as$u20$core..ops..try_trait..FromResidual$LT$core..result..Result$LT$core..convert..Infallible$C$E$GT$$GT$$GT$13from_residual17hc5e2b6a31502d47aE', symObjAddr: 0x2228, symBinAddr: 0x2BCB8, symSize: 0x4C }
  - { offset: 0x42DA5, size: 0x8, addend: 0x0, symName: '__ZN153_$LT$core..result..Result$LT$T$C$F$GT$$u20$as$u20$core..ops..try_trait..FromResidual$LT$core..result..Result$LT$core..convert..Infallible$C$E$GT$$GT$$GT$13from_residual17hc916ed009223d538E', symObjAddr: 0x2274, symBinAddr: 0x2BD04, symSize: 0x6C }
  - { offset: 0x42E2B, size: 0x8, addend: 0x0, symName: '__ZN153_$LT$core..result..Result$LT$T$C$F$GT$$u20$as$u20$core..ops..try_trait..FromResidual$LT$core..result..Result$LT$core..convert..Infallible$C$E$GT$$GT$$GT$13from_residual17hcbc5dffc79733125E', symObjAddr: 0x22E0, symBinAddr: 0x2BD70, symSize: 0x4C }
  - { offset: 0x42E92, size: 0x8, addend: 0x0, symName: '__ZN153_$LT$core..result..Result$LT$T$C$F$GT$$u20$as$u20$core..ops..try_trait..FromResidual$LT$core..result..Result$LT$core..convert..Infallible$C$E$GT$$GT$$GT$13from_residual17hd1f1b5d589073e7bE', symObjAddr: 0x232C, symBinAddr: 0x2BDBC, symSize: 0x3C }
  - { offset: 0x42EF9, size: 0x8, addend: 0x0, symName: '__ZN153_$LT$core..result..Result$LT$T$C$F$GT$$u20$as$u20$core..ops..try_trait..FromResidual$LT$core..result..Result$LT$core..convert..Infallible$C$E$GT$$GT$$GT$13from_residual17hd6553e474e8f5f4eE', symObjAddr: 0x2368, symBinAddr: 0x2BDF8, symSize: 0x64 }
  - { offset: 0x42F60, size: 0x8, addend: 0x0, symName: '__ZN153_$LT$core..result..Result$LT$T$C$F$GT$$u20$as$u20$core..ops..try_trait..FromResidual$LT$core..result..Result$LT$core..convert..Infallible$C$E$GT$$GT$$GT$13from_residual17hdd7f9275f577c513E', symObjAddr: 0x23CC, symBinAddr: 0x2BE5C, symSize: 0x64 }
  - { offset: 0x42FC7, size: 0x8, addend: 0x0, symName: '__ZN153_$LT$core..result..Result$LT$T$C$F$GT$$u20$as$u20$core..ops..try_trait..FromResidual$LT$core..result..Result$LT$core..convert..Infallible$C$E$GT$$GT$$GT$13from_residual17he0653dfdc4d9f652E', symObjAddr: 0x2430, symBinAddr: 0x2BEC0, symSize: 0x4C }
  - { offset: 0x4302E, size: 0x8, addend: 0x0, symName: '__ZN153_$LT$core..result..Result$LT$T$C$F$GT$$u20$as$u20$core..ops..try_trait..FromResidual$LT$core..result..Result$LT$core..convert..Infallible$C$E$GT$$GT$$GT$13from_residual17he2a5195503265861E', symObjAddr: 0x247C, symBinAddr: 0x2BF0C, symSize: 0x38 }
  - { offset: 0x43095, size: 0x8, addend: 0x0, symName: '__ZN153_$LT$core..result..Result$LT$T$C$F$GT$$u20$as$u20$core..ops..try_trait..FromResidual$LT$core..result..Result$LT$core..convert..Infallible$C$E$GT$$GT$$GT$13from_residual17hee5bae268f378ffeE', symObjAddr: 0x24B4, symBinAddr: 0x2BF44, symSize: 0x64 }
  - { offset: 0x430FC, size: 0x8, addend: 0x0, symName: '__ZN153_$LT$core..result..Result$LT$T$C$F$GT$$u20$as$u20$core..ops..try_trait..FromResidual$LT$core..result..Result$LT$core..convert..Infallible$C$E$GT$$GT$$GT$13from_residual17hf34a656b80d71411E', symObjAddr: 0x2518, symBinAddr: 0x2BFA8, symSize: 0x64 }
  - { offset: 0x43163, size: 0x8, addend: 0x0, symName: '__ZN153_$LT$core..result..Result$LT$T$C$F$GT$$u20$as$u20$core..ops..try_trait..FromResidual$LT$core..result..Result$LT$core..convert..Infallible$C$E$GT$$GT$$GT$13from_residual17hf426d2a0fbf1d89eE', symObjAddr: 0x257C, symBinAddr: 0x2C00C, symSize: 0x64 }
  - { offset: 0x431CA, size: 0x8, addend: 0x0, symName: '__ZN153_$LT$core..result..Result$LT$T$C$F$GT$$u20$as$u20$core..ops..try_trait..FromResidual$LT$core..result..Result$LT$core..convert..Infallible$C$E$GT$$GT$$GT$13from_residual17hf48fb215d92716feE', symObjAddr: 0x25E0, symBinAddr: 0x2C070, symSize: 0x6C }
  - { offset: 0x43250, size: 0x8, addend: 0x0, symName: '__ZN153_$LT$core..result..Result$LT$T$C$F$GT$$u20$as$u20$core..ops..try_trait..FromResidual$LT$core..result..Result$LT$core..convert..Infallible$C$E$GT$$GT$$GT$13from_residual17hf7986974db7c51b1E', symObjAddr: 0x264C, symBinAddr: 0x2C0DC, symSize: 0x64 }
  - { offset: 0x432B7, size: 0x8, addend: 0x0, symName: '__ZN153_$LT$core..result..Result$LT$T$C$F$GT$$u20$as$u20$core..ops..try_trait..FromResidual$LT$core..result..Result$LT$core..convert..Infallible$C$E$GT$$GT$$GT$13from_residual17hf87c457097b31b10E', symObjAddr: 0x26B0, symBinAddr: 0x2C140, symSize: 0x4C }
  - { offset: 0x4331E, size: 0x8, addend: 0x0, symName: '__ZN153_$LT$core..result..Result$LT$T$C$F$GT$$u20$as$u20$core..ops..try_trait..FromResidual$LT$core..result..Result$LT$core..convert..Infallible$C$E$GT$$GT$$GT$13from_residual17hfa1d41934001742cE', symObjAddr: 0x26FC, symBinAddr: 0x2C18C, symSize: 0x6C }
  - { offset: 0x433A4, size: 0x8, addend: 0x0, symName: '__ZN153_$LT$core..result..Result$LT$T$C$F$GT$$u20$as$u20$core..ops..try_trait..FromResidual$LT$core..result..Result$LT$core..convert..Infallible$C$E$GT$$GT$$GT$13from_residual17hfc84078f2dd7cae1E', symObjAddr: 0x2768, symBinAddr: 0x2C1F8, symSize: 0x64 }
  - { offset: 0x4340B, size: 0x8, addend: 0x0, symName: '__ZN153_$LT$core..result..Result$LT$T$C$F$GT$$u20$as$u20$core..ops..try_trait..FromResidual$LT$core..result..Result$LT$core..convert..Infallible$C$E$GT$$GT$$GT$13from_residual17hff06c070d076d107E', symObjAddr: 0x27CC, symBinAddr: 0x2C25C, symSize: 0x4C }
  - { offset: 0x47EF9, size: 0x8, addend: 0x0, symName: __ZN4core6result6Result3Err17h68ae412e3775b9ebE, symObjAddr: 0x65A4, symBinAddr: 0x30034, symSize: 0x18 }
  - { offset: 0x47F3C, size: 0x8, addend: 0x0, symName: '__ZN79_$LT$core..result..Result$LT$T$C$E$GT$$u20$as$u20$core..ops..try_trait..Try$GT$6branch17h020e36124103f02eE', symObjAddr: 0x65BC, symBinAddr: 0x3004C, symSize: 0x78 }
  - { offset: 0x47FB9, size: 0x8, addend: 0x0, symName: '__ZN79_$LT$core..result..Result$LT$T$C$E$GT$$u20$as$u20$core..ops..try_trait..Try$GT$6branch17h04c6191c4b2c316aE', symObjAddr: 0x6634, symBinAddr: 0x300C4, symSize: 0x58 }
  - { offset: 0x48035, size: 0x8, addend: 0x0, symName: '__ZN79_$LT$core..result..Result$LT$T$C$E$GT$$u20$as$u20$core..ops..try_trait..Try$GT$6branch17h075fbb0764f16c3eE', symObjAddr: 0x668C, symBinAddr: 0x3011C, symSize: 0x78 }
  - { offset: 0x480B2, size: 0x8, addend: 0x0, symName: '__ZN79_$LT$core..result..Result$LT$T$C$E$GT$$u20$as$u20$core..ops..try_trait..Try$GT$6branch17h0bd8198229a8d917E', symObjAddr: 0x6704, symBinAddr: 0x30194, symSize: 0xA0 }
  - { offset: 0x4812F, size: 0x8, addend: 0x0, symName: '__ZN79_$LT$core..result..Result$LT$T$C$E$GT$$u20$as$u20$core..ops..try_trait..Try$GT$6branch17h0d26cfc885ade76cE', symObjAddr: 0x67A4, symBinAddr: 0x30234, symSize: 0x78 }
  - { offset: 0x481AC, size: 0x8, addend: 0x0, symName: '__ZN79_$LT$core..result..Result$LT$T$C$E$GT$$u20$as$u20$core..ops..try_trait..Try$GT$6branch17h10b20404472a3eebE', symObjAddr: 0x681C, symBinAddr: 0x302AC, symSize: 0x78 }
  - { offset: 0x48229, size: 0x8, addend: 0x0, symName: '__ZN79_$LT$core..result..Result$LT$T$C$E$GT$$u20$as$u20$core..ops..try_trait..Try$GT$6branch17h1196b3ed22dd252dE', symObjAddr: 0x6894, symBinAddr: 0x30324, symSize: 0x44 }
  - { offset: 0x482A5, size: 0x8, addend: 0x0, symName: '__ZN79_$LT$core..result..Result$LT$T$C$E$GT$$u20$as$u20$core..ops..try_trait..Try$GT$6branch17h12f41c1f5e92eb54E', symObjAddr: 0x68D8, symBinAddr: 0x30368, symSize: 0x44 }
  - { offset: 0x48321, size: 0x8, addend: 0x0, symName: '__ZN79_$LT$core..result..Result$LT$T$C$E$GT$$u20$as$u20$core..ops..try_trait..Try$GT$6branch17h13262b78bd004758E', symObjAddr: 0x691C, symBinAddr: 0x303AC, symSize: 0x78 }
  - { offset: 0x4839E, size: 0x8, addend: 0x0, symName: '__ZN79_$LT$core..result..Result$LT$T$C$E$GT$$u20$as$u20$core..ops..try_trait..Try$GT$6branch17h15b083a75d014e79E', symObjAddr: 0x6994, symBinAddr: 0x30424, symSize: 0x78 }
  - { offset: 0x4841B, size: 0x8, addend: 0x0, symName: '__ZN79_$LT$core..result..Result$LT$T$C$E$GT$$u20$as$u20$core..ops..try_trait..Try$GT$6branch17h1acce88467612e63E', symObjAddr: 0x6A0C, symBinAddr: 0x3049C, symSize: 0x90 }
  - { offset: 0x48498, size: 0x8, addend: 0x0, symName: '__ZN79_$LT$core..result..Result$LT$T$C$E$GT$$u20$as$u20$core..ops..try_trait..Try$GT$6branch17h1f17dffa91baf792E', symObjAddr: 0x6A9C, symBinAddr: 0x3052C, symSize: 0xA0 }
  - { offset: 0x48515, size: 0x8, addend: 0x0, symName: '__ZN79_$LT$core..result..Result$LT$T$C$E$GT$$u20$as$u20$core..ops..try_trait..Try$GT$6branch17h1fc7e4849192e096E', symObjAddr: 0x6B3C, symBinAddr: 0x305CC, symSize: 0xCC }
  - { offset: 0x48593, size: 0x8, addend: 0x0, symName: '__ZN79_$LT$core..result..Result$LT$T$C$E$GT$$u20$as$u20$core..ops..try_trait..Try$GT$6branch17h209ea6377df093c8E', symObjAddr: 0x6C08, symBinAddr: 0x30698, symSize: 0x44 }
  - { offset: 0x4860F, size: 0x8, addend: 0x0, symName: '__ZN79_$LT$core..result..Result$LT$T$C$E$GT$$u20$as$u20$core..ops..try_trait..Try$GT$6branch17h212ce9d67f8d0bacE', symObjAddr: 0x6C4C, symBinAddr: 0x306DC, symSize: 0xA0 }
  - { offset: 0x4868C, size: 0x8, addend: 0x0, symName: '__ZN79_$LT$core..result..Result$LT$T$C$E$GT$$u20$as$u20$core..ops..try_trait..Try$GT$6branch17h2262cf0c5b85d607E', symObjAddr: 0x6CEC, symBinAddr: 0x3077C, symSize: 0x5C }
  - { offset: 0x48708, size: 0x8, addend: 0x0, symName: '__ZN79_$LT$core..result..Result$LT$T$C$E$GT$$u20$as$u20$core..ops..try_trait..Try$GT$6branch17h2313c3e57ce88d41E', symObjAddr: 0x6D48, symBinAddr: 0x307D8, symSize: 0xA0 }
  - { offset: 0x48785, size: 0x8, addend: 0x0, symName: '__ZN79_$LT$core..result..Result$LT$T$C$E$GT$$u20$as$u20$core..ops..try_trait..Try$GT$6branch17h252dfc5fbbf67de6E', symObjAddr: 0x6DE8, symBinAddr: 0x30878, symSize: 0xA0 }
  - { offset: 0x48802, size: 0x8, addend: 0x0, symName: '__ZN79_$LT$core..result..Result$LT$T$C$E$GT$$u20$as$u20$core..ops..try_trait..Try$GT$6branch17h276f44235c769e98E', symObjAddr: 0x6E88, symBinAddr: 0x30918, symSize: 0x78 }
  - { offset: 0x4887F, size: 0x8, addend: 0x0, symName: '__ZN79_$LT$core..result..Result$LT$T$C$E$GT$$u20$as$u20$core..ops..try_trait..Try$GT$6branch17h2832395beeef7cc8E', symObjAddr: 0x6F00, symBinAddr: 0x30990, symSize: 0x78 }
  - { offset: 0x488FC, size: 0x8, addend: 0x0, symName: '__ZN79_$LT$core..result..Result$LT$T$C$E$GT$$u20$as$u20$core..ops..try_trait..Try$GT$6branch17h28517a3a0b9d6c07E', symObjAddr: 0x6F78, symBinAddr: 0x30A08, symSize: 0x44 }
  - { offset: 0x48978, size: 0x8, addend: 0x0, symName: '__ZN79_$LT$core..result..Result$LT$T$C$E$GT$$u20$as$u20$core..ops..try_trait..Try$GT$6branch17h29759d93c2636303E', symObjAddr: 0x6FBC, symBinAddr: 0x30A4C, symSize: 0xA0 }
  - { offset: 0x489F5, size: 0x8, addend: 0x0, symName: '__ZN79_$LT$core..result..Result$LT$T$C$E$GT$$u20$as$u20$core..ops..try_trait..Try$GT$6branch17h2af948eb60c077f7E', symObjAddr: 0x705C, symBinAddr: 0x30AEC, symSize: 0x78 }
  - { offset: 0x48A72, size: 0x8, addend: 0x0, symName: '__ZN79_$LT$core..result..Result$LT$T$C$E$GT$$u20$as$u20$core..ops..try_trait..Try$GT$6branch17h2cb4e561e640cadaE', symObjAddr: 0x70D4, symBinAddr: 0x30B64, symSize: 0x78 }
  - { offset: 0x48AEF, size: 0x8, addend: 0x0, symName: '__ZN79_$LT$core..result..Result$LT$T$C$E$GT$$u20$as$u20$core..ops..try_trait..Try$GT$6branch17h2ce351bab9ed0f52E', symObjAddr: 0x714C, symBinAddr: 0x30BDC, symSize: 0xA0 }
  - { offset: 0x48B6C, size: 0x8, addend: 0x0, symName: '__ZN79_$LT$core..result..Result$LT$T$C$E$GT$$u20$as$u20$core..ops..try_trait..Try$GT$6branch17h2e20a1f956df760bE', symObjAddr: 0x71EC, symBinAddr: 0x30C7C, symSize: 0x78 }
  - { offset: 0x48BE9, size: 0x8, addend: 0x0, symName: '__ZN79_$LT$core..result..Result$LT$T$C$E$GT$$u20$as$u20$core..ops..try_trait..Try$GT$6branch17h2f5838d86f9679d5E', symObjAddr: 0x7264, symBinAddr: 0x30CF4, symSize: 0xA0 }
  - { offset: 0x48C66, size: 0x8, addend: 0x0, symName: '__ZN79_$LT$core..result..Result$LT$T$C$E$GT$$u20$as$u20$core..ops..try_trait..Try$GT$6branch17h368c8e6b8daad6beE', symObjAddr: 0x7304, symBinAddr: 0x30D94, symSize: 0xA0 }
  - { offset: 0x48CE3, size: 0x8, addend: 0x0, symName: '__ZN79_$LT$core..result..Result$LT$T$C$E$GT$$u20$as$u20$core..ops..try_trait..Try$GT$6branch17h402d003983a382adE', symObjAddr: 0x73A4, symBinAddr: 0x30E34, symSize: 0xA0 }
  - { offset: 0x48D60, size: 0x8, addend: 0x0, symName: '__ZN79_$LT$core..result..Result$LT$T$C$E$GT$$u20$as$u20$core..ops..try_trait..Try$GT$6branch17h44efa8119c28453cE', symObjAddr: 0x7444, symBinAddr: 0x30ED4, symSize: 0xA0 }
  - { offset: 0x48DDD, size: 0x8, addend: 0x0, symName: '__ZN79_$LT$core..result..Result$LT$T$C$E$GT$$u20$as$u20$core..ops..try_trait..Try$GT$6branch17h4a3bff6bd65b7b37E', symObjAddr: 0x74E4, symBinAddr: 0x30F74, symSize: 0x44 }
  - { offset: 0x48E59, size: 0x8, addend: 0x0, symName: '__ZN79_$LT$core..result..Result$LT$T$C$E$GT$$u20$as$u20$core..ops..try_trait..Try$GT$6branch17h4a95daac75be7d3cE', symObjAddr: 0x7528, symBinAddr: 0x30FB8, symSize: 0xA0 }
  - { offset: 0x48ED6, size: 0x8, addend: 0x0, symName: '__ZN79_$LT$core..result..Result$LT$T$C$E$GT$$u20$as$u20$core..ops..try_trait..Try$GT$6branch17h4beaa23517575220E', symObjAddr: 0x75C8, symBinAddr: 0x31058, symSize: 0xA0 }
  - { offset: 0x48F53, size: 0x8, addend: 0x0, symName: '__ZN79_$LT$core..result..Result$LT$T$C$E$GT$$u20$as$u20$core..ops..try_trait..Try$GT$6branch17h54535cd2901bdbb8E', symObjAddr: 0x7668, symBinAddr: 0x310F8, symSize: 0x44 }
  - { offset: 0x48FCF, size: 0x8, addend: 0x0, symName: '__ZN79_$LT$core..result..Result$LT$T$C$E$GT$$u20$as$u20$core..ops..try_trait..Try$GT$6branch17h597737e462e85134E', symObjAddr: 0x76AC, symBinAddr: 0x3113C, symSize: 0x78 }
  - { offset: 0x4904C, size: 0x8, addend: 0x0, symName: '__ZN79_$LT$core..result..Result$LT$T$C$E$GT$$u20$as$u20$core..ops..try_trait..Try$GT$6branch17h5b9d9808f5b26b35E', symObjAddr: 0x7724, symBinAddr: 0x311B4, symSize: 0xA0 }
  - { offset: 0x490C9, size: 0x8, addend: 0x0, symName: '__ZN79_$LT$core..result..Result$LT$T$C$E$GT$$u20$as$u20$core..ops..try_trait..Try$GT$6branch17h5c1a1cd84b037631E', symObjAddr: 0x77C4, symBinAddr: 0x31254, symSize: 0x78 }
  - { offset: 0x49146, size: 0x8, addend: 0x0, symName: '__ZN79_$LT$core..result..Result$LT$T$C$E$GT$$u20$as$u20$core..ops..try_trait..Try$GT$6branch17h60e3c3da719ff28cE', symObjAddr: 0x783C, symBinAddr: 0x312CC, symSize: 0xA0 }
  - { offset: 0x491C3, size: 0x8, addend: 0x0, symName: '__ZN79_$LT$core..result..Result$LT$T$C$E$GT$$u20$as$u20$core..ops..try_trait..Try$GT$6branch17h62565b80fdaac932E', symObjAddr: 0x78DC, symBinAddr: 0x3136C, symSize: 0xA0 }
  - { offset: 0x49240, size: 0x8, addend: 0x0, symName: '__ZN79_$LT$core..result..Result$LT$T$C$E$GT$$u20$as$u20$core..ops..try_trait..Try$GT$6branch17h64e61970e2102b5bE', symObjAddr: 0x797C, symBinAddr: 0x3140C, symSize: 0xA0 }
  - { offset: 0x492BD, size: 0x8, addend: 0x0, symName: '__ZN79_$LT$core..result..Result$LT$T$C$E$GT$$u20$as$u20$core..ops..try_trait..Try$GT$6branch17h665b59bd36337520E', symObjAddr: 0x7A1C, symBinAddr: 0x314AC, symSize: 0x44 }
  - { offset: 0x49339, size: 0x8, addend: 0x0, symName: '__ZN79_$LT$core..result..Result$LT$T$C$E$GT$$u20$as$u20$core..ops..try_trait..Try$GT$6branch17h6af802f37881ffc4E', symObjAddr: 0x7A60, symBinAddr: 0x314F0, symSize: 0x44 }
  - { offset: 0x493B5, size: 0x8, addend: 0x0, symName: '__ZN79_$LT$core..result..Result$LT$T$C$E$GT$$u20$as$u20$core..ops..try_trait..Try$GT$6branch17h6ca19378aac38146E', symObjAddr: 0x7AA4, symBinAddr: 0x31534, symSize: 0x44 }
  - { offset: 0x49431, size: 0x8, addend: 0x0, symName: '__ZN79_$LT$core..result..Result$LT$T$C$E$GT$$u20$as$u20$core..ops..try_trait..Try$GT$6branch17h6e90a6221afb5091E', symObjAddr: 0x7AE8, symBinAddr: 0x31578, symSize: 0xA0 }
  - { offset: 0x494AE, size: 0x8, addend: 0x0, symName: '__ZN79_$LT$core..result..Result$LT$T$C$E$GT$$u20$as$u20$core..ops..try_trait..Try$GT$6branch17h6ec6612e9a2d7323E', symObjAddr: 0x7B88, symBinAddr: 0x31618, symSize: 0xA0 }
  - { offset: 0x4952B, size: 0x8, addend: 0x0, symName: '__ZN79_$LT$core..result..Result$LT$T$C$E$GT$$u20$as$u20$core..ops..try_trait..Try$GT$6branch17h71f30baa3746e383E', symObjAddr: 0x7C28, symBinAddr: 0x316B8, symSize: 0xA0 }
  - { offset: 0x495A8, size: 0x8, addend: 0x0, symName: '__ZN79_$LT$core..result..Result$LT$T$C$E$GT$$u20$as$u20$core..ops..try_trait..Try$GT$6branch17h7332d6bb2eb5519dE', symObjAddr: 0x7CC8, symBinAddr: 0x31758, symSize: 0x44 }
  - { offset: 0x49624, size: 0x8, addend: 0x0, symName: '__ZN79_$LT$core..result..Result$LT$T$C$E$GT$$u20$as$u20$core..ops..try_trait..Try$GT$6branch17h73ba58b14ffd14f4E', symObjAddr: 0x7D0C, symBinAddr: 0x3179C, symSize: 0xA0 }
  - { offset: 0x496A1, size: 0x8, addend: 0x0, symName: '__ZN79_$LT$core..result..Result$LT$T$C$E$GT$$u20$as$u20$core..ops..try_trait..Try$GT$6branch17h74c3bdcbe55ce2e2E', symObjAddr: 0x7DAC, symBinAddr: 0x3183C, symSize: 0x44 }
  - { offset: 0x4971D, size: 0x8, addend: 0x0, symName: '__ZN79_$LT$core..result..Result$LT$T$C$E$GT$$u20$as$u20$core..ops..try_trait..Try$GT$6branch17h7978df21d55b6c2cE', symObjAddr: 0x7DF0, symBinAddr: 0x31880, symSize: 0x78 }
  - { offset: 0x4979A, size: 0x8, addend: 0x0, symName: '__ZN79_$LT$core..result..Result$LT$T$C$E$GT$$u20$as$u20$core..ops..try_trait..Try$GT$6branch17h798f0616c8edb65dE', symObjAddr: 0x7E68, symBinAddr: 0x318F8, symSize: 0xA0 }
  - { offset: 0x49817, size: 0x8, addend: 0x0, symName: '__ZN79_$LT$core..result..Result$LT$T$C$E$GT$$u20$as$u20$core..ops..try_trait..Try$GT$6branch17h7d77a0f482f09e7dE', symObjAddr: 0x7F08, symBinAddr: 0x31998, symSize: 0x78 }
  - { offset: 0x49894, size: 0x8, addend: 0x0, symName: '__ZN79_$LT$core..result..Result$LT$T$C$E$GT$$u20$as$u20$core..ops..try_trait..Try$GT$6branch17h83c74ef6c59e2edaE', symObjAddr: 0x7F80, symBinAddr: 0x31A10, symSize: 0xA0 }
  - { offset: 0x49911, size: 0x8, addend: 0x0, symName: '__ZN79_$LT$core..result..Result$LT$T$C$E$GT$$u20$as$u20$core..ops..try_trait..Try$GT$6branch17h8437a2d816da601bE', symObjAddr: 0x8020, symBinAddr: 0x31AB0, symSize: 0x44 }
  - { offset: 0x4998D, size: 0x8, addend: 0x0, symName: '__ZN79_$LT$core..result..Result$LT$T$C$E$GT$$u20$as$u20$core..ops..try_trait..Try$GT$6branch17h846cf393492a5071E', symObjAddr: 0x8064, symBinAddr: 0x31AF4, symSize: 0x44 }
  - { offset: 0x49A09, size: 0x8, addend: 0x0, symName: '__ZN79_$LT$core..result..Result$LT$T$C$E$GT$$u20$as$u20$core..ops..try_trait..Try$GT$6branch17h890bb696da88064aE', symObjAddr: 0x80A8, symBinAddr: 0x31B38, symSize: 0x44 }
  - { offset: 0x49A85, size: 0x8, addend: 0x0, symName: '__ZN79_$LT$core..result..Result$LT$T$C$E$GT$$u20$as$u20$core..ops..try_trait..Try$GT$6branch17h8a1029e8b81e6324E', symObjAddr: 0x80EC, symBinAddr: 0x31B7C, symSize: 0x44 }
  - { offset: 0x49B01, size: 0x8, addend: 0x0, symName: '__ZN79_$LT$core..result..Result$LT$T$C$E$GT$$u20$as$u20$core..ops..try_trait..Try$GT$6branch17h8e4ed20b546149fdE', symObjAddr: 0x8130, symBinAddr: 0x31BC0, symSize: 0x44 }
  - { offset: 0x49B7D, size: 0x8, addend: 0x0, symName: '__ZN79_$LT$core..result..Result$LT$T$C$E$GT$$u20$as$u20$core..ops..try_trait..Try$GT$6branch17h8ed12d2647709aebE', symObjAddr: 0x8174, symBinAddr: 0x31C04, symSize: 0x78 }
  - { offset: 0x49BFA, size: 0x8, addend: 0x0, symName: '__ZN79_$LT$core..result..Result$LT$T$C$E$GT$$u20$as$u20$core..ops..try_trait..Try$GT$6branch17h911bc51b3b705383E', symObjAddr: 0x81EC, symBinAddr: 0x31C7C, symSize: 0x58 }
  - { offset: 0x49C76, size: 0x8, addend: 0x0, symName: '__ZN79_$LT$core..result..Result$LT$T$C$E$GT$$u20$as$u20$core..ops..try_trait..Try$GT$6branch17h97e3544ca4acd349E', symObjAddr: 0x8244, symBinAddr: 0x31CD4, symSize: 0x58 }
  - { offset: 0x49CF2, size: 0x8, addend: 0x0, symName: '__ZN79_$LT$core..result..Result$LT$T$C$E$GT$$u20$as$u20$core..ops..try_trait..Try$GT$6branch17h9a837c55c15277b2E', symObjAddr: 0x829C, symBinAddr: 0x31D2C, symSize: 0x78 }
  - { offset: 0x49D6F, size: 0x8, addend: 0x0, symName: '__ZN79_$LT$core..result..Result$LT$T$C$E$GT$$u20$as$u20$core..ops..try_trait..Try$GT$6branch17h9c170a101fca1391E', symObjAddr: 0x8314, symBinAddr: 0x31DA4, symSize: 0xA0 }
  - { offset: 0x49DEC, size: 0x8, addend: 0x0, symName: '__ZN79_$LT$core..result..Result$LT$T$C$E$GT$$u20$as$u20$core..ops..try_trait..Try$GT$6branch17h9c9d06914d59f8b2E', symObjAddr: 0x83B4, symBinAddr: 0x31E44, symSize: 0x44 }
  - { offset: 0x49E68, size: 0x8, addend: 0x0, symName: '__ZN79_$LT$core..result..Result$LT$T$C$E$GT$$u20$as$u20$core..ops..try_trait..Try$GT$6branch17ha11df3a7d01b359cE', symObjAddr: 0x83F8, symBinAddr: 0x31E88, symSize: 0xA0 }
  - { offset: 0x49EE5, size: 0x8, addend: 0x0, symName: '__ZN79_$LT$core..result..Result$LT$T$C$E$GT$$u20$as$u20$core..ops..try_trait..Try$GT$6branch17ha42b2b978645922dE', symObjAddr: 0x8498, symBinAddr: 0x31F28, symSize: 0x78 }
  - { offset: 0x49F62, size: 0x8, addend: 0x0, symName: '__ZN79_$LT$core..result..Result$LT$T$C$E$GT$$u20$as$u20$core..ops..try_trait..Try$GT$6branch17ha4a20676463474d9E', symObjAddr: 0x8510, symBinAddr: 0x31FA0, symSize: 0x78 }
  - { offset: 0x49FDF, size: 0x8, addend: 0x0, symName: '__ZN79_$LT$core..result..Result$LT$T$C$E$GT$$u20$as$u20$core..ops..try_trait..Try$GT$6branch17ha5b1fc706dbc18a7E', symObjAddr: 0x8588, symBinAddr: 0x32018, symSize: 0x78 }
  - { offset: 0x4A05C, size: 0x8, addend: 0x0, symName: '__ZN79_$LT$core..result..Result$LT$T$C$E$GT$$u20$as$u20$core..ops..try_trait..Try$GT$6branch17ha78788f855942416E', symObjAddr: 0x8600, symBinAddr: 0x32090, symSize: 0x78 }
  - { offset: 0x4A0D9, size: 0x8, addend: 0x0, symName: '__ZN79_$LT$core..result..Result$LT$T$C$E$GT$$u20$as$u20$core..ops..try_trait..Try$GT$6branch17haa43d5b2175d6762E', symObjAddr: 0x8678, symBinAddr: 0x32108, symSize: 0xA0 }
  - { offset: 0x4A156, size: 0x8, addend: 0x0, symName: '__ZN79_$LT$core..result..Result$LT$T$C$E$GT$$u20$as$u20$core..ops..try_trait..Try$GT$6branch17haaef0a41f94ea9d5E', symObjAddr: 0x8718, symBinAddr: 0x321A8, symSize: 0xD4 }
  - { offset: 0x4A1D5, size: 0x8, addend: 0x0, symName: '__ZN79_$LT$core..result..Result$LT$T$C$E$GT$$u20$as$u20$core..ops..try_trait..Try$GT$6branch17haeddf5fe8d48d3f9E', symObjAddr: 0x87EC, symBinAddr: 0x3227C, symSize: 0x44 }
  - { offset: 0x4A251, size: 0x8, addend: 0x0, symName: '__ZN79_$LT$core..result..Result$LT$T$C$E$GT$$u20$as$u20$core..ops..try_trait..Try$GT$6branch17haf403e85cb7ddd64E', symObjAddr: 0x8830, symBinAddr: 0x322C0, symSize: 0x78 }
  - { offset: 0x4A2CE, size: 0x8, addend: 0x0, symName: '__ZN79_$LT$core..result..Result$LT$T$C$E$GT$$u20$as$u20$core..ops..try_trait..Try$GT$6branch17hb1a50f1631556d95E', symObjAddr: 0x88A8, symBinAddr: 0x32338, symSize: 0x78 }
  - { offset: 0x4A34B, size: 0x8, addend: 0x0, symName: '__ZN79_$LT$core..result..Result$LT$T$C$E$GT$$u20$as$u20$core..ops..try_trait..Try$GT$6branch17hb49dd043c200a712E', symObjAddr: 0x8920, symBinAddr: 0x323B0, symSize: 0xAC }
  - { offset: 0x4A3C8, size: 0x8, addend: 0x0, symName: '__ZN79_$LT$core..result..Result$LT$T$C$E$GT$$u20$as$u20$core..ops..try_trait..Try$GT$6branch17hb4e54609f1641a94E', symObjAddr: 0x89CC, symBinAddr: 0x3245C, symSize: 0x44 }
  - { offset: 0x4A444, size: 0x8, addend: 0x0, symName: '__ZN79_$LT$core..result..Result$LT$T$C$E$GT$$u20$as$u20$core..ops..try_trait..Try$GT$6branch17hb502b823e75ce939E', symObjAddr: 0x8A10, symBinAddr: 0x324A0, symSize: 0xA0 }
  - { offset: 0x4A4C1, size: 0x8, addend: 0x0, symName: '__ZN79_$LT$core..result..Result$LT$T$C$E$GT$$u20$as$u20$core..ops..try_trait..Try$GT$6branch17hb5d0762a8b42d328E', symObjAddr: 0x8AB0, symBinAddr: 0x32540, symSize: 0x78 }
  - { offset: 0x4A53E, size: 0x8, addend: 0x0, symName: '__ZN79_$LT$core..result..Result$LT$T$C$E$GT$$u20$as$u20$core..ops..try_trait..Try$GT$6branch17hb5fb6d34a3f0a032E', symObjAddr: 0x8B28, symBinAddr: 0x325B8, symSize: 0xA0 }
  - { offset: 0x4A5BB, size: 0x8, addend: 0x0, symName: '__ZN79_$LT$core..result..Result$LT$T$C$E$GT$$u20$as$u20$core..ops..try_trait..Try$GT$6branch17hb769b7a84b676f97E', symObjAddr: 0x8BC8, symBinAddr: 0x32658, symSize: 0x78 }
  - { offset: 0x4A638, size: 0x8, addend: 0x0, symName: '__ZN79_$LT$core..result..Result$LT$T$C$E$GT$$u20$as$u20$core..ops..try_trait..Try$GT$6branch17hbb40205b4363513eE', symObjAddr: 0x8C40, symBinAddr: 0x326D0, symSize: 0x78 }
  - { offset: 0x4A6B5, size: 0x8, addend: 0x0, symName: '__ZN79_$LT$core..result..Result$LT$T$C$E$GT$$u20$as$u20$core..ops..try_trait..Try$GT$6branch17hbbcf56b98892b0d5E', symObjAddr: 0x8CB8, symBinAddr: 0x32748, symSize: 0x44 }
  - { offset: 0x4A731, size: 0x8, addend: 0x0, symName: '__ZN79_$LT$core..result..Result$LT$T$C$E$GT$$u20$as$u20$core..ops..try_trait..Try$GT$6branch17hc0c40f207e12dbe1E', symObjAddr: 0x8CFC, symBinAddr: 0x3278C, symSize: 0x78 }
  - { offset: 0x4A7AE, size: 0x8, addend: 0x0, symName: '__ZN79_$LT$core..result..Result$LT$T$C$E$GT$$u20$as$u20$core..ops..try_trait..Try$GT$6branch17hc3ccd10ebd28de60E', symObjAddr: 0x8D74, symBinAddr: 0x32804, symSize: 0x44 }
  - { offset: 0x4A82A, size: 0x8, addend: 0x0, symName: '__ZN79_$LT$core..result..Result$LT$T$C$E$GT$$u20$as$u20$core..ops..try_trait..Try$GT$6branch17hc488c2ae127f7d55E', symObjAddr: 0x8DB8, symBinAddr: 0x32848, symSize: 0xA0 }
  - { offset: 0x4A8A7, size: 0x8, addend: 0x0, symName: '__ZN79_$LT$core..result..Result$LT$T$C$E$GT$$u20$as$u20$core..ops..try_trait..Try$GT$6branch17hca09eef9d8946f71E', symObjAddr: 0x8E58, symBinAddr: 0x328E8, symSize: 0xA0 }
  - { offset: 0x4A924, size: 0x8, addend: 0x0, symName: '__ZN79_$LT$core..result..Result$LT$T$C$E$GT$$u20$as$u20$core..ops..try_trait..Try$GT$6branch17hcc145c84b549aa4eE', symObjAddr: 0x8EF8, symBinAddr: 0x32988, symSize: 0x78 }
  - { offset: 0x4A9A1, size: 0x8, addend: 0x0, symName: '__ZN79_$LT$core..result..Result$LT$T$C$E$GT$$u20$as$u20$core..ops..try_trait..Try$GT$6branch17hcc8654ae908f0c76E', symObjAddr: 0x8F70, symBinAddr: 0x32A00, symSize: 0xA0 }
  - { offset: 0x4AA1E, size: 0x8, addend: 0x0, symName: '__ZN79_$LT$core..result..Result$LT$T$C$E$GT$$u20$as$u20$core..ops..try_trait..Try$GT$6branch17hd07a0b1694a985c5E', symObjAddr: 0x9010, symBinAddr: 0x32AA0, symSize: 0x78 }
  - { offset: 0x4AA9B, size: 0x8, addend: 0x0, symName: '__ZN79_$LT$core..result..Result$LT$T$C$E$GT$$u20$as$u20$core..ops..try_trait..Try$GT$6branch17hd9324118c257173bE', symObjAddr: 0x9088, symBinAddr: 0x32B18, symSize: 0x44 }
  - { offset: 0x4AB17, size: 0x8, addend: 0x0, symName: '__ZN79_$LT$core..result..Result$LT$T$C$E$GT$$u20$as$u20$core..ops..try_trait..Try$GT$6branch17hd971df892c1cf3d8E', symObjAddr: 0x90CC, symBinAddr: 0x32B5C, symSize: 0x44 }
  - { offset: 0x4AB93, size: 0x8, addend: 0x0, symName: '__ZN79_$LT$core..result..Result$LT$T$C$E$GT$$u20$as$u20$core..ops..try_trait..Try$GT$6branch17hde6c14de99037e6cE', symObjAddr: 0x9110, symBinAddr: 0x32BA0, symSize: 0xA0 }
  - { offset: 0x4AC10, size: 0x8, addend: 0x0, symName: '__ZN79_$LT$core..result..Result$LT$T$C$E$GT$$u20$as$u20$core..ops..try_trait..Try$GT$6branch17hdec61f0829da4996E', symObjAddr: 0x91B0, symBinAddr: 0x32C40, symSize: 0xA0 }
  - { offset: 0x4AC8D, size: 0x8, addend: 0x0, symName: '__ZN79_$LT$core..result..Result$LT$T$C$E$GT$$u20$as$u20$core..ops..try_trait..Try$GT$6branch17he156198ab0b1f417E', symObjAddr: 0x9250, symBinAddr: 0x32CE0, symSize: 0x78 }
  - { offset: 0x4AD0A, size: 0x8, addend: 0x0, symName: '__ZN79_$LT$core..result..Result$LT$T$C$E$GT$$u20$as$u20$core..ops..try_trait..Try$GT$6branch17he336eaba3e17df4cE', symObjAddr: 0x92C8, symBinAddr: 0x32D58, symSize: 0xD4 }
  - { offset: 0x4AD88, size: 0x8, addend: 0x0, symName: '__ZN79_$LT$core..result..Result$LT$T$C$E$GT$$u20$as$u20$core..ops..try_trait..Try$GT$6branch17he4b1033f5849a791E', symObjAddr: 0x939C, symBinAddr: 0x32E2C, symSize: 0xA0 }
  - { offset: 0x4AE05, size: 0x8, addend: 0x0, symName: '__ZN79_$LT$core..result..Result$LT$T$C$E$GT$$u20$as$u20$core..ops..try_trait..Try$GT$6branch17he582a0b67e5cfd59E', symObjAddr: 0x943C, symBinAddr: 0x32ECC, symSize: 0x44 }
  - { offset: 0x4AE81, size: 0x8, addend: 0x0, symName: '__ZN79_$LT$core..result..Result$LT$T$C$E$GT$$u20$as$u20$core..ops..try_trait..Try$GT$6branch17he88fa3877ae95b0fE', symObjAddr: 0x9480, symBinAddr: 0x32F10, symSize: 0xA8 }
  - { offset: 0x4AEFE, size: 0x8, addend: 0x0, symName: '__ZN79_$LT$core..result..Result$LT$T$C$E$GT$$u20$as$u20$core..ops..try_trait..Try$GT$6branch17he95fb984124b6a9dE', symObjAddr: 0x9528, symBinAddr: 0x32FB8, symSize: 0x78 }
  - { offset: 0x4AF7B, size: 0x8, addend: 0x0, symName: '__ZN79_$LT$core..result..Result$LT$T$C$E$GT$$u20$as$u20$core..ops..try_trait..Try$GT$6branch17heb389c3c87d1b7ddE', symObjAddr: 0x95A0, symBinAddr: 0x33030, symSize: 0xA0 }
  - { offset: 0x4AFF8, size: 0x8, addend: 0x0, symName: '__ZN79_$LT$core..result..Result$LT$T$C$E$GT$$u20$as$u20$core..ops..try_trait..Try$GT$6branch17hec9c568cad9c36c0E', symObjAddr: 0x9640, symBinAddr: 0x330D0, symSize: 0xA0 }
  - { offset: 0x4B075, size: 0x8, addend: 0x0, symName: '__ZN79_$LT$core..result..Result$LT$T$C$E$GT$$u20$as$u20$core..ops..try_trait..Try$GT$6branch17hedc04073bb72deaeE', symObjAddr: 0x96E0, symBinAddr: 0x33170, symSize: 0x78 }
  - { offset: 0x4B0F2, size: 0x8, addend: 0x0, symName: '__ZN79_$LT$core..result..Result$LT$T$C$E$GT$$u20$as$u20$core..ops..try_trait..Try$GT$6branch17hf2569c7c234a51a1E', symObjAddr: 0x9758, symBinAddr: 0x331E8, symSize: 0x78 }
  - { offset: 0x4B16F, size: 0x8, addend: 0x0, symName: '__ZN79_$LT$core..result..Result$LT$T$C$E$GT$$u20$as$u20$core..ops..try_trait..Try$GT$6branch17hf2883b83dd14d96bE', symObjAddr: 0x97D0, symBinAddr: 0x33260, symSize: 0x44 }
  - { offset: 0x4B1EB, size: 0x8, addend: 0x0, symName: '__ZN79_$LT$core..result..Result$LT$T$C$E$GT$$u20$as$u20$core..ops..try_trait..Try$GT$6branch17hf293b22ade7284edE', symObjAddr: 0x9814, symBinAddr: 0x332A4, symSize: 0xA0 }
  - { offset: 0x4B268, size: 0x8, addend: 0x0, symName: '__ZN79_$LT$core..result..Result$LT$T$C$E$GT$$u20$as$u20$core..ops..try_trait..Try$GT$6branch17hf6163aad85b95861E', symObjAddr: 0x98B4, symBinAddr: 0x33344, symSize: 0x44 }
  - { offset: 0x4B2E4, size: 0x8, addend: 0x0, symName: '__ZN79_$LT$core..result..Result$LT$T$C$E$GT$$u20$as$u20$core..ops..try_trait..Try$GT$6branch17hf7032ed02c549938E', symObjAddr: 0x98F8, symBinAddr: 0x33388, symSize: 0x44 }
  - { offset: 0x4B360, size: 0x8, addend: 0x0, symName: '__ZN79_$LT$core..result..Result$LT$T$C$E$GT$$u20$as$u20$core..ops..try_trait..Try$GT$6branch17hf86b9202fe6dde29E', symObjAddr: 0x993C, symBinAddr: 0x333CC, symSize: 0x44 }
  - { offset: 0x4B3DC, size: 0x8, addend: 0x0, symName: '__ZN79_$LT$core..result..Result$LT$T$C$E$GT$$u20$as$u20$core..ops..try_trait..Try$GT$6branch17hfc83f9a8480dbf68E', symObjAddr: 0x9980, symBinAddr: 0x33410, symSize: 0x44 }
  - { offset: 0x53483, size: 0x8, addend: 0x0, symName: '__ZN4core6result19Result$LT$T$C$E$GT$14unwrap_or_else17h01b343c0f5f79a2dE', symObjAddr: 0x2818, symBinAddr: 0x2C2A8, symSize: 0x90 }
  - { offset: 0x5350D, size: 0x8, addend: 0x0, symName: '__ZN4core6result19Result$LT$T$C$E$GT$14unwrap_or_else17h0f7b07b99ccbec0eE', symObjAddr: 0x28A8, symBinAddr: 0x2C338, symSize: 0x90 }
  - { offset: 0x53597, size: 0x8, addend: 0x0, symName: '__ZN4core6result19Result$LT$T$C$E$GT$14unwrap_or_else17h17676ba512b7efa4E', symObjAddr: 0x2938, symBinAddr: 0x2C3C8, symSize: 0x90 }
  - { offset: 0x53621, size: 0x8, addend: 0x0, symName: '__ZN4core6result19Result$LT$T$C$E$GT$14unwrap_or_else17h26412ce9a0890a5eE', symObjAddr: 0x29C8, symBinAddr: 0x2C458, symSize: 0x90 }
  - { offset: 0x536AB, size: 0x8, addend: 0x0, symName: '__ZN4core6result19Result$LT$T$C$E$GT$14unwrap_or_else17h2e4ed77c11fa5d47E', symObjAddr: 0x2A58, symBinAddr: 0x2C4E8, symSize: 0x90 }
  - { offset: 0x53735, size: 0x8, addend: 0x0, symName: '__ZN4core6result19Result$LT$T$C$E$GT$14unwrap_or_else17h316ddf27c161e202E', symObjAddr: 0x2AE8, symBinAddr: 0x2C578, symSize: 0x90 }
  - { offset: 0x537BF, size: 0x8, addend: 0x0, symName: '__ZN4core6result19Result$LT$T$C$E$GT$14unwrap_or_else17h31b2d669bddae99eE', symObjAddr: 0x2B78, symBinAddr: 0x2C608, symSize: 0x90 }
  - { offset: 0x53849, size: 0x8, addend: 0x0, symName: '__ZN4core6result19Result$LT$T$C$E$GT$14unwrap_or_else17h35455f6fb2e9b1d6E', symObjAddr: 0x2C08, symBinAddr: 0x2C698, symSize: 0x90 }
  - { offset: 0x538D3, size: 0x8, addend: 0x0, symName: '__ZN4core6result19Result$LT$T$C$E$GT$14unwrap_or_else17h3950daf43ff16214E', symObjAddr: 0x2C98, symBinAddr: 0x2C728, symSize: 0x90 }
  - { offset: 0x5395D, size: 0x8, addend: 0x0, symName: '__ZN4core6result19Result$LT$T$C$E$GT$14unwrap_or_else17h45145f351859b6b0E', symObjAddr: 0x2D28, symBinAddr: 0x2C7B8, symSize: 0x90 }
  - { offset: 0x539E7, size: 0x8, addend: 0x0, symName: '__ZN4core6result19Result$LT$T$C$E$GT$14unwrap_or_else17h5b4e7ab2068c709eE', symObjAddr: 0x2DB8, symBinAddr: 0x2C848, symSize: 0x90 }
  - { offset: 0x53A71, size: 0x8, addend: 0x0, symName: '__ZN4core6result19Result$LT$T$C$E$GT$14unwrap_or_else17h62072927bebff1c6E', symObjAddr: 0x2E48, symBinAddr: 0x2C8D8, symSize: 0x90 }
  - { offset: 0x53AFB, size: 0x8, addend: 0x0, symName: '__ZN4core6result19Result$LT$T$C$E$GT$14unwrap_or_else17h739bcd77914eadcdE', symObjAddr: 0x2ED8, symBinAddr: 0x2C968, symSize: 0x90 }
  - { offset: 0x53B85, size: 0x8, addend: 0x0, symName: '__ZN4core6result19Result$LT$T$C$E$GT$14unwrap_or_else17h740c0089e7b9a107E', symObjAddr: 0x2F68, symBinAddr: 0x2C9F8, symSize: 0x90 }
  - { offset: 0x53C0F, size: 0x8, addend: 0x0, symName: '__ZN4core6result19Result$LT$T$C$E$GT$14unwrap_or_else17h743435196d3ec407E', symObjAddr: 0x2FF8, symBinAddr: 0x2CA88, symSize: 0x90 }
  - { offset: 0x53C99, size: 0x8, addend: 0x0, symName: '__ZN4core6result19Result$LT$T$C$E$GT$14unwrap_or_else17h886fb76c96f62c5dE', symObjAddr: 0x3088, symBinAddr: 0x2CB18, symSize: 0x90 }
  - { offset: 0x53D23, size: 0x8, addend: 0x0, symName: '__ZN4core6result19Result$LT$T$C$E$GT$14unwrap_or_else17h9af6a685dd64b5e7E', symObjAddr: 0x3118, symBinAddr: 0x2CBA8, symSize: 0x90 }
  - { offset: 0x53DAD, size: 0x8, addend: 0x0, symName: '__ZN4core6result19Result$LT$T$C$E$GT$14unwrap_or_else17ha4bed794fa468937E', symObjAddr: 0x31A8, symBinAddr: 0x2CC38, symSize: 0x90 }
  - { offset: 0x53E37, size: 0x8, addend: 0x0, symName: '__ZN4core6result19Result$LT$T$C$E$GT$14unwrap_or_else17ha52997fcd138d56fE', symObjAddr: 0x3238, symBinAddr: 0x2CCC8, symSize: 0x90 }
  - { offset: 0x53EC1, size: 0x8, addend: 0x0, symName: '__ZN4core6result19Result$LT$T$C$E$GT$14unwrap_or_else17ha89e3824e153cebdE', symObjAddr: 0x32C8, symBinAddr: 0x2CD58, symSize: 0x90 }
  - { offset: 0x53F4B, size: 0x8, addend: 0x0, symName: '__ZN4core6result19Result$LT$T$C$E$GT$14unwrap_or_else17hadbb3d550dfe989dE', symObjAddr: 0x3358, symBinAddr: 0x2CDE8, symSize: 0x90 }
  - { offset: 0x53FD5, size: 0x8, addend: 0x0, symName: '__ZN4core6result19Result$LT$T$C$E$GT$14unwrap_or_else17hb0d1ccaa94817979E', symObjAddr: 0x33E8, symBinAddr: 0x2CE78, symSize: 0x90 }
  - { offset: 0x5405F, size: 0x8, addend: 0x0, symName: '__ZN4core6result19Result$LT$T$C$E$GT$14unwrap_or_else17hb1d7622463767db0E', symObjAddr: 0x3478, symBinAddr: 0x2CF08, symSize: 0x90 }
  - { offset: 0x540E9, size: 0x8, addend: 0x0, symName: '__ZN4core6result19Result$LT$T$C$E$GT$14unwrap_or_else17hb551e6c2034b97f4E', symObjAddr: 0x3508, symBinAddr: 0x2CF98, symSize: 0x90 }
  - { offset: 0x54173, size: 0x8, addend: 0x0, symName: '__ZN4core6result19Result$LT$T$C$E$GT$14unwrap_or_else17hd157230bcf776cedE', symObjAddr: 0x3598, symBinAddr: 0x2D028, symSize: 0x90 }
  - { offset: 0x541FD, size: 0x8, addend: 0x0, symName: '__ZN4core6result19Result$LT$T$C$E$GT$14unwrap_or_else17hd41af19f0a1cfaa5E', symObjAddr: 0x3628, symBinAddr: 0x2D0B8, symSize: 0x90 }
  - { offset: 0x54287, size: 0x8, addend: 0x0, symName: '__ZN4core6result19Result$LT$T$C$E$GT$14unwrap_or_else17he3f154622780bec7E', symObjAddr: 0x36B8, symBinAddr: 0x2D148, symSize: 0x90 }
  - { offset: 0x54311, size: 0x8, addend: 0x0, symName: '__ZN4core6result19Result$LT$T$C$E$GT$14unwrap_or_else17hf6a38ded177c84f0E', symObjAddr: 0x3748, symBinAddr: 0x2D1D8, symSize: 0x90 }
  - { offset: 0x5439B, size: 0x8, addend: 0x0, symName: '__ZN4core6result19Result$LT$T$C$E$GT$2ok17hdb680dbead5b0a39E', symObjAddr: 0x37D8, symBinAddr: 0x2D268, symSize: 0x5C }
  - { offset: 0x5440D, size: 0x8, addend: 0x0, symName: '__ZN4core6result19Result$LT$T$C$E$GT$3map17h030987e1fe6160b3E', symObjAddr: 0x3834, symBinAddr: 0x2D2C4, symSize: 0x90 }
  - { offset: 0x544C7, size: 0x8, addend: 0x0, symName: '__ZN4core6result19Result$LT$T$C$E$GT$3map17h0336a2d7a5b56438E', symObjAddr: 0x38C4, symBinAddr: 0x2D354, symSize: 0x54 }
  - { offset: 0x545AE, size: 0x8, addend: 0x0, symName: '__ZN4core6result19Result$LT$T$C$E$GT$3map17h04c1229a7039df68E', symObjAddr: 0x3918, symBinAddr: 0x2D3A8, symSize: 0x90 }
  - { offset: 0x5464E, size: 0x8, addend: 0x0, symName: '__ZN4core6result19Result$LT$T$C$E$GT$3map17h0e760f062e368337E', symObjAddr: 0x39A8, symBinAddr: 0x2D438, symSize: 0x90 }
  - { offset: 0x546F9, size: 0x8, addend: 0x0, symName: '__ZN4core6result19Result$LT$T$C$E$GT$3map17h12aca41e42015c08E', symObjAddr: 0x3A38, symBinAddr: 0x2D4C8, symSize: 0x90 }
  - { offset: 0x547C0, size: 0x8, addend: 0x0, symName: '__ZN4core6result19Result$LT$T$C$E$GT$3map17h14170827e8b6a9cbE', symObjAddr: 0x3AC8, symBinAddr: 0x2D558, symSize: 0x54 }
  - { offset: 0x54A65, size: 0x8, addend: 0x0, symName: '__ZN4core6result19Result$LT$T$C$E$GT$3map17h14ac21f47a47e4faE', symObjAddr: 0x3B1C, symBinAddr: 0x2D5AC, symSize: 0x90 }
  - { offset: 0x54B10, size: 0x8, addend: 0x0, symName: '__ZN4core6result19Result$LT$T$C$E$GT$3map17h1994fbfbc8e5a884E', symObjAddr: 0x3BAC, symBinAddr: 0x2D63C, symSize: 0x90 }
  - { offset: 0x54BCA, size: 0x8, addend: 0x0, symName: '__ZN4core6result19Result$LT$T$C$E$GT$3map17h1b716f0f65a35664E', symObjAddr: 0x3C3C, symBinAddr: 0x2D6CC, symSize: 0x54 }
  - { offset: 0x54C74, size: 0x8, addend: 0x0, symName: '__ZN4core6result19Result$LT$T$C$E$GT$3map17h1bb44a01be81b123E', symObjAddr: 0x3C90, symBinAddr: 0x2D720, symSize: 0x38 }
  - { offset: 0x54D00, size: 0x8, addend: 0x0, symName: '__ZN4core6result19Result$LT$T$C$E$GT$3map17h244d44823a804666E', symObjAddr: 0x3CC8, symBinAddr: 0x2D758, symSize: 0x90 }
  - { offset: 0x54DAB, size: 0x8, addend: 0x0, symName: '__ZN4core6result19Result$LT$T$C$E$GT$3map17h25464aed8bdb5b06E', symObjAddr: 0x3D58, symBinAddr: 0x2D7E8, symSize: 0x90 }
  - { offset: 0x54E65, size: 0x8, addend: 0x0, symName: '__ZN4core6result19Result$LT$T$C$E$GT$3map17h26c680666ef7fef6E', symObjAddr: 0x3DE8, symBinAddr: 0x2D878, symSize: 0x54 }
  - { offset: 0x54F25, size: 0x8, addend: 0x0, symName: '__ZN4core6result19Result$LT$T$C$E$GT$3map17h2b408e1ffe45bebeE', symObjAddr: 0x3E3C, symBinAddr: 0x2D8CC, symSize: 0x54 }
  - { offset: 0x54FCF, size: 0x8, addend: 0x0, symName: '__ZN4core6result19Result$LT$T$C$E$GT$3map17h36799b92f37ede39E', symObjAddr: 0x3E90, symBinAddr: 0x2D920, symSize: 0x90 }
  - { offset: 0x55089, size: 0x8, addend: 0x0, symName: '__ZN4core6result19Result$LT$T$C$E$GT$3map17h378205f5dac2010bE', symObjAddr: 0x3F20, symBinAddr: 0x2D9B0, symSize: 0x54 }
  - { offset: 0x5514F, size: 0x8, addend: 0x0, symName: '__ZN4core6result19Result$LT$T$C$E$GT$3map17h387a016ac7d27caaE', symObjAddr: 0x3F74, symBinAddr: 0x2DA04, symSize: 0x54 }
  - { offset: 0x551F9, size: 0x8, addend: 0x0, symName: '__ZN4core6result19Result$LT$T$C$E$GT$3map17h3957f26d8589a580E', symObjAddr: 0x3FC8, symBinAddr: 0x2DA58, symSize: 0x90 }
  - { offset: 0x552B3, size: 0x8, addend: 0x0, symName: '__ZN4core6result19Result$LT$T$C$E$GT$3map17h3dcb8f583cf2ef35E', symObjAddr: 0x4058, symBinAddr: 0x2DAE8, symSize: 0x54 }
  - { offset: 0x5535D, size: 0x8, addend: 0x0, symName: '__ZN4core6result19Result$LT$T$C$E$GT$3map17h3ee6c97701c91315E', symObjAddr: 0x40AC, symBinAddr: 0x2DB3C, symSize: 0x90 }
  - { offset: 0x55417, size: 0x8, addend: 0x0, symName: '__ZN4core6result19Result$LT$T$C$E$GT$3map17h424052283f6b4d2fE', symObjAddr: 0x413C, symBinAddr: 0x2DBCC, symSize: 0x54 }
  - { offset: 0x554D0, size: 0x8, addend: 0x0, symName: '__ZN4core6result19Result$LT$T$C$E$GT$3map17h43a6745a5437478eE', symObjAddr: 0x4190, symBinAddr: 0x2DC20, symSize: 0x54 }
  - { offset: 0x5557A, size: 0x8, addend: 0x0, symName: '__ZN4core6result19Result$LT$T$C$E$GT$3map17h453431ae434330dfE', symObjAddr: 0x41E4, symBinAddr: 0x2DC74, symSize: 0x90 }
  - { offset: 0x55634, size: 0x8, addend: 0x0, symName: '__ZN4core6result19Result$LT$T$C$E$GT$3map17h541869c7d9cad70eE', symObjAddr: 0x4274, symBinAddr: 0x2DD04, symSize: 0x54 }
  - { offset: 0x556DE, size: 0x8, addend: 0x0, symName: '__ZN4core6result19Result$LT$T$C$E$GT$3map17h555021efeae5f889E', symObjAddr: 0x42C8, symBinAddr: 0x2DD58, symSize: 0x90 }
  - { offset: 0x55798, size: 0x8, addend: 0x0, symName: '__ZN4core6result19Result$LT$T$C$E$GT$3map17h570bfaf48e11b9cfE', symObjAddr: 0x4358, symBinAddr: 0x2DDE8, symSize: 0x54 }
  - { offset: 0x55842, size: 0x8, addend: 0x0, symName: '__ZN4core6result19Result$LT$T$C$E$GT$3map17h580a1f710730de09E', symObjAddr: 0x43AC, symBinAddr: 0x2DE3C, symSize: 0x90 }
  - { offset: 0x558FC, size: 0x8, addend: 0x0, symName: '__ZN4core6result19Result$LT$T$C$E$GT$3map17h58495bd230de0321E', symObjAddr: 0x443C, symBinAddr: 0x2DECC, symSize: 0x54 }
  - { offset: 0x559A6, size: 0x8, addend: 0x0, symName: '__ZN4core6result19Result$LT$T$C$E$GT$3map17h5a6ce15e7df61fceE', symObjAddr: 0x4490, symBinAddr: 0x2DF20, symSize: 0x90 }
  - { offset: 0x55A60, size: 0x8, addend: 0x0, symName: '__ZN4core6result19Result$LT$T$C$E$GT$3map17h5b065439b8e5d69dE', symObjAddr: 0x4520, symBinAddr: 0x2DFB0, symSize: 0x54 }
  - { offset: 0x55B19, size: 0x8, addend: 0x0, symName: '__ZN4core6result19Result$LT$T$C$E$GT$3map17h6b5e2da1a560d41dE', symObjAddr: 0x4574, symBinAddr: 0x2E004, symSize: 0x54 }
  - { offset: 0x55BC3, size: 0x8, addend: 0x0, symName: '__ZN4core6result19Result$LT$T$C$E$GT$3map17h6ce8117829453c7aE', symObjAddr: 0x45C8, symBinAddr: 0x2E058, symSize: 0x90 }
  - { offset: 0x55C84, size: 0x8, addend: 0x0, symName: '__ZN4core6result19Result$LT$T$C$E$GT$3map17h713b314fd3dc62daE', symObjAddr: 0x4658, symBinAddr: 0x2E0E8, symSize: 0x54 }
  - { offset: 0x55D3D, size: 0x8, addend: 0x0, symName: '__ZN4core6result19Result$LT$T$C$E$GT$3map17h75daa0157b153cf2E', symObjAddr: 0x46AC, symBinAddr: 0x2E13C, symSize: 0x54 }
  - { offset: 0x55DF6, size: 0x8, addend: 0x0, symName: '__ZN4core6result19Result$LT$T$C$E$GT$3map17h7be186c4ce8ac1edE', symObjAddr: 0x4700, symBinAddr: 0x2E190, symSize: 0x54 }
  - { offset: 0x55EA0, size: 0x8, addend: 0x0, symName: '__ZN4core6result19Result$LT$T$C$E$GT$3map17h7ce73ff2a891ce3dE', symObjAddr: 0x4754, symBinAddr: 0x2E1E4, symSize: 0x90 }
  - { offset: 0x55F83, size: 0x8, addend: 0x0, symName: '__ZN4core6result19Result$LT$T$C$E$GT$3map17h8092d76d92559c11E', symObjAddr: 0x47E4, symBinAddr: 0x2E274, symSize: 0x90 }
  - { offset: 0x5602E, size: 0x8, addend: 0x0, symName: '__ZN4core6result19Result$LT$T$C$E$GT$3map17h9193eb6da9348692E', symObjAddr: 0x4874, symBinAddr: 0x2E304, symSize: 0x90 }
  - { offset: 0x560C1, size: 0x8, addend: 0x0, symName: '__ZN4core6result19Result$LT$T$C$E$GT$3map17h92057a92e21fcc1fE', symObjAddr: 0x4904, symBinAddr: 0x2E394, symSize: 0x54 }
  - { offset: 0x5617A, size: 0x8, addend: 0x0, symName: '__ZN4core6result19Result$LT$T$C$E$GT$3map17h95ea1456664204c0E', symObjAddr: 0x4958, symBinAddr: 0x2E3E8, symSize: 0x54 }
  - { offset: 0x56224, size: 0x8, addend: 0x0, symName: '__ZN4core6result19Result$LT$T$C$E$GT$3map17h9bb03dd13d925f51E', symObjAddr: 0x49AC, symBinAddr: 0x2E43C, symSize: 0x90 }
  - { offset: 0x562CF, size: 0x8, addend: 0x0, symName: '__ZN4core6result19Result$LT$T$C$E$GT$3map17h9e07bb6b6ee366ecE', symObjAddr: 0x4A3C, symBinAddr: 0x2E4CC, symSize: 0x90 }
  - { offset: 0x5637A, size: 0x8, addend: 0x0, symName: '__ZN4core6result19Result$LT$T$C$E$GT$3map17ha4b07d7dc2e06d46E', symObjAddr: 0x4ACC, symBinAddr: 0x2E55C, symSize: 0x90 }
  - { offset: 0x56425, size: 0x8, addend: 0x0, symName: '__ZN4core6result19Result$LT$T$C$E$GT$3map17ha8b4908ace729299E', symObjAddr: 0x4B5C, symBinAddr: 0x2E5EC, symSize: 0x90 }
  - { offset: 0x564DF, size: 0x8, addend: 0x0, symName: '__ZN4core6result19Result$LT$T$C$E$GT$3map17ha950800aa7c3b6d8E', symObjAddr: 0x4BEC, symBinAddr: 0x2E67C, symSize: 0x54 }
  - { offset: 0x56598, size: 0x8, addend: 0x0, symName: '__ZN4core6result19Result$LT$T$C$E$GT$3map17haa9056a8d5ba442bE', symObjAddr: 0x4C40, symBinAddr: 0x2E6D0, symSize: 0x54 }
  - { offset: 0x56651, size: 0x8, addend: 0x0, symName: '__ZN4core6result19Result$LT$T$C$E$GT$3map17hae25c76ef2f4297aE', symObjAddr: 0x4C94, symBinAddr: 0x2E724, symSize: 0x54 }
  - { offset: 0x566FB, size: 0x8, addend: 0x0, symName: '__ZN4core6result19Result$LT$T$C$E$GT$3map17hb11a8a16aa58d2edE', symObjAddr: 0x4CE8, symBinAddr: 0x2E778, symSize: 0x90 }
  - { offset: 0x567B5, size: 0x8, addend: 0x0, symName: '__ZN4core6result19Result$LT$T$C$E$GT$3map17hb4b6b6c19aa292cfE', symObjAddr: 0x4D78, symBinAddr: 0x2E808, symSize: 0x54 }
  - { offset: 0x5685F, size: 0x8, addend: 0x0, symName: '__ZN4core6result19Result$LT$T$C$E$GT$3map17hb9bec2ea8607695eE', symObjAddr: 0x4DCC, symBinAddr: 0x2E85C, symSize: 0x90 }
  - { offset: 0x56919, size: 0x8, addend: 0x0, symName: '__ZN4core6result19Result$LT$T$C$E$GT$3map17hc297565262a4f023E', symObjAddr: 0x4E5C, symBinAddr: 0x2E8EC, symSize: 0x54 }
  - { offset: 0x569D2, size: 0x8, addend: 0x0, symName: '__ZN4core6result19Result$LT$T$C$E$GT$3map17hcc8a61346967d17eE', symObjAddr: 0x4EB0, symBinAddr: 0x2E940, symSize: 0x54 }
  - { offset: 0x56A7C, size: 0x8, addend: 0x0, symName: '__ZN4core6result19Result$LT$T$C$E$GT$3map17hd0a25b98d034daccE', symObjAddr: 0x4F04, symBinAddr: 0x2E994, symSize: 0x90 }
  - { offset: 0x56B36, size: 0x8, addend: 0x0, symName: '__ZN4core6result19Result$LT$T$C$E$GT$3map17hd7299603e1e745bfE', symObjAddr: 0x4F94, symBinAddr: 0x2EA24, symSize: 0x54 }
  - { offset: 0x56BE0, size: 0x8, addend: 0x0, symName: '__ZN4core6result19Result$LT$T$C$E$GT$3map17hdfce5db031cbf6b0E', symObjAddr: 0x4FE8, symBinAddr: 0x2EA78, symSize: 0x90 }
  - { offset: 0x56C8B, size: 0x8, addend: 0x0, symName: '__ZN4core6result19Result$LT$T$C$E$GT$3map17he00f6056976ed053E', symObjAddr: 0x5078, symBinAddr: 0x2EB08, symSize: 0x90 }
  - { offset: 0x56D45, size: 0x8, addend: 0x0, symName: '__ZN4core6result19Result$LT$T$C$E$GT$3map17he038facd5a57e4f0E', symObjAddr: 0x5108, symBinAddr: 0x2EB98, symSize: 0x54 }
  - { offset: 0x56DEF, size: 0x8, addend: 0x0, symName: '__ZN4core6result19Result$LT$T$C$E$GT$3map17he3951530b961d455E', symObjAddr: 0x515C, symBinAddr: 0x2EBEC, symSize: 0x90 }
  - { offset: 0x56E9A, size: 0x8, addend: 0x0, symName: '__ZN4core6result19Result$LT$T$C$E$GT$3map17heaa9b921b5578dbcE', symObjAddr: 0x51EC, symBinAddr: 0x2EC7C, symSize: 0x90 }
  - { offset: 0x56F45, size: 0x8, addend: 0x0, symName: '__ZN4core6result19Result$LT$T$C$E$GT$3map17hec46569b69f935f8E', symObjAddr: 0x527C, symBinAddr: 0x2ED0C, symSize: 0x38 }
  - { offset: 0x56FD1, size: 0x8, addend: 0x0, symName: '__ZN4core6result19Result$LT$T$C$E$GT$3map17hf531927520f907feE', symObjAddr: 0x52B4, symBinAddr: 0x2ED44, symSize: 0x90 }
  - { offset: 0x5708B, size: 0x8, addend: 0x0, symName: '__ZN4core6result19Result$LT$T$C$E$GT$3map17hf63a1933c77af824E', symObjAddr: 0x5344, symBinAddr: 0x2EDD4, symSize: 0x54 }
  - { offset: 0x57135, size: 0x8, addend: 0x0, symName: '__ZN4core6result19Result$LT$T$C$E$GT$3map17hf8fd49ed4dd8c12dE', symObjAddr: 0x5398, symBinAddr: 0x2EE28, symSize: 0x90 }
  - { offset: 0x5721F, size: 0x8, addend: 0x0, symName: '__ZN4core6result19Result$LT$T$C$E$GT$5is_ok17h40b969dca6643b59E', symObjAddr: 0x5428, symBinAddr: 0x2EEB8, symSize: 0x2C }
  - { offset: 0x5726E, size: 0x8, addend: 0x0, symName: '__ZN4core6result19Result$LT$T$C$E$GT$5is_ok17h850a83815e06a38bE', symObjAddr: 0x5454, symBinAddr: 0x2EEE4, symSize: 0x2C }
  - { offset: 0x572BD, size: 0x8, addend: 0x0, symName: '__ZN4core6result19Result$LT$T$C$E$GT$5is_ok17h9d5eae0685d2f3a6E', symObjAddr: 0x5480, symBinAddr: 0x2EF10, symSize: 0x2C }
  - { offset: 0x5733B, size: 0x8, addend: 0x0, symName: '__ZN4core6result19Result$LT$T$C$E$GT$6expect17hefef7d0ce011205aE', symObjAddr: 0x54AC, symBinAddr: 0x2EF3C, symSize: 0xB0 }
  - { offset: 0x573D0, size: 0x8, addend: 0x0, symName: '__ZN4core6result19Result$LT$T$C$E$GT$6is_err17h785ef1f3e34c378bE', symObjAddr: 0x555C, symBinAddr: 0x2EFEC, symSize: 0x20 }
  - { offset: 0x5743B, size: 0x8, addend: 0x0, symName: '__ZN4core6result19Result$LT$T$C$E$GT$7map_err17h20ef779fa2225f63E', symObjAddr: 0x557C, symBinAddr: 0x2F00C, symSize: 0xB8 }
  - { offset: 0x574CE, size: 0x8, addend: 0x0, symName: '__ZN4core6result19Result$LT$T$C$E$GT$7map_err17h27f42d34b98906b6E', symObjAddr: 0x5634, symBinAddr: 0x2F0C4, symSize: 0xB8 }
  - { offset: 0x57579, size: 0x8, addend: 0x0, symName: '__ZN4core6result19Result$LT$T$C$E$GT$7map_err17h2d758b12abcfc321E', symObjAddr: 0x56EC, symBinAddr: 0x2F17C, symSize: 0x30 }
  - { offset: 0x575EF, size: 0x8, addend: 0x0, symName: '__ZN4core6result19Result$LT$T$C$E$GT$7map_err17h372c7a2619acce91E', symObjAddr: 0x571C, symBinAddr: 0x2F1AC, symSize: 0xE4 }
  - { offset: 0x57684, size: 0x8, addend: 0x0, symName: '__ZN4core6result19Result$LT$T$C$E$GT$7map_err17h5864db22e52aebecE', symObjAddr: 0x5800, symBinAddr: 0x2F290, symSize: 0x30 }
  - { offset: 0x576FA, size: 0x8, addend: 0x0, symName: '__ZN4core6result19Result$LT$T$C$E$GT$7map_err17h5a5ef25be0004a62E', symObjAddr: 0x5830, symBinAddr: 0x2F2C0, symSize: 0xE4 }
  - { offset: 0x5778F, size: 0x8, addend: 0x0, symName: '__ZN4core6result19Result$LT$T$C$E$GT$7map_err17h5bc584f68da7cfdcE', symObjAddr: 0x5914, symBinAddr: 0x2F3A4, symSize: 0xB8 }
  - { offset: 0x57822, size: 0x8, addend: 0x0, symName: '__ZN4core6result19Result$LT$T$C$E$GT$7map_err17h5ca31cf0fa4f5438E', symObjAddr: 0x59CC, symBinAddr: 0x2F45C, symSize: 0x48 }
  - { offset: 0x57898, size: 0x8, addend: 0x0, symName: '__ZN4core6result19Result$LT$T$C$E$GT$7map_err17h6495ba3a31552db2E', symObjAddr: 0x5A14, symBinAddr: 0x2F4A4, symSize: 0x20 }
  - { offset: 0x5790F, size: 0x8, addend: 0x0, symName: '__ZN4core6result19Result$LT$T$C$E$GT$7map_err17h6da1c77f922bad3fE', symObjAddr: 0x5A34, symBinAddr: 0x2F4C4, symSize: 0xA0 }
  - { offset: 0x579A2, size: 0x8, addend: 0x0, symName: '__ZN4core6result19Result$LT$T$C$E$GT$7map_err17h6f1162a969bde97bE', symObjAddr: 0x5AD4, symBinAddr: 0x2F564, symSize: 0xB8 }
  - { offset: 0x57A35, size: 0x8, addend: 0x0, symName: '__ZN4core6result19Result$LT$T$C$E$GT$7map_err17h74c0d001d839fb95E', symObjAddr: 0x5B8C, symBinAddr: 0x2F61C, symSize: 0xB8 }
  - { offset: 0x57AC8, size: 0x8, addend: 0x0, symName: '__ZN4core6result19Result$LT$T$C$E$GT$7map_err17h83edc7a169e5a9d8E', symObjAddr: 0x5C44, symBinAddr: 0x2F6D4, symSize: 0x3C }
  - { offset: 0x57B3E, size: 0x8, addend: 0x0, symName: '__ZN4core6result19Result$LT$T$C$E$GT$7map_err17h9aff5d38948b3723E', symObjAddr: 0x5C80, symBinAddr: 0x2F710, symSize: 0xB8 }
  - { offset: 0x57BD1, size: 0x8, addend: 0x0, symName: '__ZN4core6result19Result$LT$T$C$E$GT$7map_err17ha594384ae4fa32d8E', symObjAddr: 0x5D38, symBinAddr: 0x2F7C8, symSize: 0xB8 }
  - { offset: 0x57C64, size: 0x8, addend: 0x0, symName: '__ZN4core6result19Result$LT$T$C$E$GT$7map_err17ha5f0dc319afa94ecE', symObjAddr: 0x5DF0, symBinAddr: 0x2F880, symSize: 0x30 }
  - { offset: 0x57CDA, size: 0x8, addend: 0x0, symName: '__ZN4core6result19Result$LT$T$C$E$GT$7map_err17hb1993849a0d5ce8fE', symObjAddr: 0x5E20, symBinAddr: 0x2F8B0, symSize: 0xDC }
  - { offset: 0x57D6F, size: 0x8, addend: 0x0, symName: '__ZN4core6result19Result$LT$T$C$E$GT$7map_err17he3e2377bf9ce7b46E', symObjAddr: 0x5EFC, symBinAddr: 0x2F98C, symSize: 0xB8 }
  - { offset: 0x57E02, size: 0x8, addend: 0x0, symName: '__ZN4core6result19Result$LT$T$C$E$GT$8and_then17h01b47f513c8a890bE', symObjAddr: 0x5FB4, symBinAddr: 0x2FA44, symSize: 0x94 }
  - { offset: 0x57E95, size: 0x8, addend: 0x0, symName: '__ZN4core6result19Result$LT$T$C$E$GT$8and_then17h071e51c5d8083199E', symObjAddr: 0x6048, symBinAddr: 0x2FAD8, symSize: 0x94 }
  - { offset: 0x57F28, size: 0x8, addend: 0x0, symName: '__ZN4core6result19Result$LT$T$C$E$GT$8and_then17h5096edd020bc57baE', symObjAddr: 0x60DC, symBinAddr: 0x2FB6C, symSize: 0xB0 }
  - { offset: 0x57FBB, size: 0x8, addend: 0x0, symName: '__ZN4core6result19Result$LT$T$C$E$GT$8and_then17h5b670dc58a8ce987E', symObjAddr: 0x618C, symBinAddr: 0x2FC1C, symSize: 0x94 }
  - { offset: 0x5804E, size: 0x8, addend: 0x0, symName: '__ZN4core6result19Result$LT$T$C$E$GT$8and_then17h7332eabb62d0eb51E', symObjAddr: 0x6220, symBinAddr: 0x2FCB0, symSize: 0x94 }
  - { offset: 0x580E1, size: 0x8, addend: 0x0, symName: '__ZN4core6result19Result$LT$T$C$E$GT$8and_then17h783461f3774943c7E', symObjAddr: 0x62B4, symBinAddr: 0x2FD44, symSize: 0x94 }
  - { offset: 0x58174, size: 0x8, addend: 0x0, symName: '__ZN4core6result19Result$LT$T$C$E$GT$8and_then17h7baa8e7b2179bf53E', symObjAddr: 0x6348, symBinAddr: 0x2FDD8, symSize: 0xA0 }
  - { offset: 0x58207, size: 0x8, addend: 0x0, symName: '__ZN4core6result19Result$LT$T$C$E$GT$8and_then17h8f9f2cc77b5065cdE', symObjAddr: 0x63E8, symBinAddr: 0x2FE78, symSize: 0x94 }
  - { offset: 0x5829A, size: 0x8, addend: 0x0, symName: '__ZN4core6result19Result$LT$T$C$E$GT$8and_then17hd4f9b0838c4aecd7E', symObjAddr: 0x647C, symBinAddr: 0x2FF0C, symSize: 0x94 }
  - { offset: 0x5832D, size: 0x8, addend: 0x0, symName: '__ZN4core6result19Result$LT$T$C$E$GT$8and_then17heeb230b74ae023ceE', symObjAddr: 0x6510, symBinAddr: 0x2FFA0, symSize: 0x94 }
  - { offset: 0x58632, size: 0x8, addend: 0x0, symName: __ZN9hashbrown3raw11TableLayout20calculate_layout_for17h2fd437e6e5cff9f3E, symObjAddr: 0x0, symBinAddr: 0x33454, symSize: 0x210 }
  - { offset: 0x5A080, size: 0x8, addend: 0x0, symName: __ZN9hashbrown3raw11TableLayout20calculate_layout_for17h2fd437e6e5cff9f3E, symObjAddr: 0x0, symBinAddr: 0x33454, symSize: 0x210 }
  - { offset: 0x5A648, size: 0x8, addend: 0x0, symName: __ZN9hashbrown3raw13RawTableInner15fix_insert_slot17h46a32ae76c96a5f9E, symObjAddr: 0x210, symBinAddr: 0x33664, symSize: 0x12C }
  - { offset: 0x5AA31, size: 0x8, addend: 0x0, symName: __ZN9hashbrown3raw13RawTableInner15rehash_in_place17hd1a745372085e3adE, symObjAddr: 0x33C, symBinAddr: 0x33790, symSize: 0x4AC }
  - { offset: 0x5B246, size: 0x8, addend: 0x0, symName: __ZN9hashbrown3raw13RawTableInner16find_insert_slot17h62ddab77c77c03f6E, symObjAddr: 0x7E8, symBinAddr: 0x33C3C, symSize: 0x11C }
  - { offset: 0x5B441, size: 0x8, addend: 0x0, symName: __ZN9hashbrown3raw13RawTableInner19prepare_insert_slot17h567c48c6588791caE, symObjAddr: 0x904, symBinAddr: 0x33D58, symSize: 0x74 }
  - { offset: 0x5B732, size: 0x8, addend: 0x0, symName: __ZN9hashbrown3raw13RawTableInner23prepare_rehash_in_place17h918e8b7ca446fab4E, symObjAddr: 0x978, symBinAddr: 0x33DCC, symSize: 0x258 }
  - { offset: 0x5BE3E, size: 0x8, addend: 0x0, symName: __ZN9hashbrown3raw13RawTableInner25find_insert_slot_in_group17h930cc775b6678a26E, symObjAddr: 0xBD0, symBinAddr: 0x34024, symSize: 0x15C }
  - { offset: 0x5C131, size: 0x8, addend: 0x0, symName: __ZN9hashbrown3raw13RawTableInner30find_or_find_insert_slot_inner17haf78b0bf794d4741E, symObjAddr: 0xD2C, symBinAddr: 0x34180, symSize: 0x2C0 }
  - { offset: 0x5C4FB, size: 0x8, addend: 0x0, symName: '__ZN4pyo37pyclass5guard21PyClassGuard$LT$T$GT$15as_class_object17h0759d0ea084900a7E', symObjAddr: 0x0, symBinAddr: 0x34440, symSize: 0x38 }
  - { offset: 0x5F75B, size: 0x8, addend: 0x0, symName: '__ZN4pyo37pyclass5guard21PyClassGuard$LT$T$GT$21try_from_class_object28_$u7b$$u7b$closure$u7d$$u7d$17h4e448743cace8f76E', symObjAddr: 0x258, symBinAddr: 0x34698, symSize: 0x2C }
  - { offset: 0x5F79C, size: 0x8, addend: 0x0, symName: '__ZN4pyo37pyclass5guard21PyClassGuard$LT$T$GT$21try_from_class_object28_$u7b$$u7b$closure$u7d$$u7d$17h5d34eceba5f9557dE', symObjAddr: 0x284, symBinAddr: 0x346C4, symSize: 0x2C }
  - { offset: 0x5F7DD, size: 0x8, addend: 0x0, symName: '__ZN4pyo37pyclass5guard21PyClassGuard$LT$T$GT$21try_from_class_object28_$u7b$$u7b$closure$u7d$$u7d$17h925d4e2cc1ac2de8E', symObjAddr: 0x2B0, symBinAddr: 0x346F0, symSize: 0x2C }
  - { offset: 0x5F81E, size: 0x8, addend: 0x0, symName: '__ZN4pyo37pyclass5guard21PyClassGuard$LT$T$GT$21try_from_class_object28_$u7b$$u7b$closure$u7d$$u7d$17hc150c10d2e5d1886E', symObjAddr: 0x2DC, symBinAddr: 0x3471C, symSize: 0x2C }
  - { offset: 0x5F85F, size: 0x8, addend: 0x0, symName: '__ZN4pyo37pyclass5guard21PyClassGuard$LT$T$GT$21try_from_class_object28_$u7b$$u7b$closure$u7d$$u7d$17hdc40333dd564d950E', symObjAddr: 0x308, symBinAddr: 0x34748, symSize: 0x2C }
  - { offset: 0x60554, size: 0x8, addend: 0x0, symName: '__ZN4pyo37pyclass5guard24PyClassGuardMut$LT$T$GT$21try_from_class_object28_$u7b$$u7b$closure$u7d$$u7d$17h00422bba408bcf90E', symObjAddr: 0xF3C, symBinAddr: 0x3537C, symSize: 0x2C }
  - { offset: 0x60598, size: 0x8, addend: 0x0, symName: '__ZN4pyo37pyclass5guard24PyClassGuardMut$LT$T$GT$21try_from_class_object28_$u7b$$u7b$closure$u7d$$u7d$17h056bd105b1325416E', symObjAddr: 0xF68, symBinAddr: 0x353A8, symSize: 0x2C }
  - { offset: 0x605DC, size: 0x8, addend: 0x0, symName: '__ZN4pyo37pyclass5guard24PyClassGuardMut$LT$T$GT$21try_from_class_object28_$u7b$$u7b$closure$u7d$$u7d$17h05a6b896f69b8f02E', symObjAddr: 0xF94, symBinAddr: 0x353D4, symSize: 0x2C }
  - { offset: 0x60620, size: 0x8, addend: 0x0, symName: '__ZN4pyo37pyclass5guard24PyClassGuardMut$LT$T$GT$21try_from_class_object28_$u7b$$u7b$closure$u7d$$u7d$17h122f799199d5314cE', symObjAddr: 0xFC0, symBinAddr: 0x35400, symSize: 0x2C }
  - { offset: 0x60664, size: 0x8, addend: 0x0, symName: '__ZN4pyo37pyclass5guard24PyClassGuardMut$LT$T$GT$21try_from_class_object28_$u7b$$u7b$closure$u7d$$u7d$17h304520a7db9ea908E', symObjAddr: 0xFEC, symBinAddr: 0x3542C, symSize: 0x2C }
  - { offset: 0x606A8, size: 0x8, addend: 0x0, symName: '__ZN4pyo37pyclass5guard24PyClassGuardMut$LT$T$GT$21try_from_class_object28_$u7b$$u7b$closure$u7d$$u7d$17h3b18f507bad49472E', symObjAddr: 0x1018, symBinAddr: 0x35458, symSize: 0x2C }
  - { offset: 0x606EC, size: 0x8, addend: 0x0, symName: '__ZN4pyo37pyclass5guard24PyClassGuardMut$LT$T$GT$21try_from_class_object28_$u7b$$u7b$closure$u7d$$u7d$17h461e0bd25b817266E', symObjAddr: 0x1044, symBinAddr: 0x35484, symSize: 0x2C }
  - { offset: 0x60730, size: 0x8, addend: 0x0, symName: '__ZN4pyo37pyclass5guard24PyClassGuardMut$LT$T$GT$21try_from_class_object28_$u7b$$u7b$closure$u7d$$u7d$17h52904fc44ec981e5E', symObjAddr: 0x1070, symBinAddr: 0x354B0, symSize: 0x2C }
  - { offset: 0x60774, size: 0x8, addend: 0x0, symName: '__ZN4pyo37pyclass5guard24PyClassGuardMut$LT$T$GT$21try_from_class_object28_$u7b$$u7b$closure$u7d$$u7d$17h5669852cba7da390E', symObjAddr: 0x109C, symBinAddr: 0x354DC, symSize: 0x2C }
  - { offset: 0x607B8, size: 0x8, addend: 0x0, symName: '__ZN4pyo37pyclass5guard24PyClassGuardMut$LT$T$GT$21try_from_class_object28_$u7b$$u7b$closure$u7d$$u7d$17h5777261aafe15badE', symObjAddr: 0x10C8, symBinAddr: 0x35508, symSize: 0x2C }
  - { offset: 0x607FC, size: 0x8, addend: 0x0, symName: '__ZN4pyo37pyclass5guard24PyClassGuardMut$LT$T$GT$21try_from_class_object28_$u7b$$u7b$closure$u7d$$u7d$17h5e7721b98747c133E', symObjAddr: 0x10F4, symBinAddr: 0x35534, symSize: 0x2C }
  - { offset: 0x60840, size: 0x8, addend: 0x0, symName: '__ZN4pyo37pyclass5guard24PyClassGuardMut$LT$T$GT$21try_from_class_object28_$u7b$$u7b$closure$u7d$$u7d$17h89dea2be5e466936E', symObjAddr: 0x1120, symBinAddr: 0x35560, symSize: 0x2C }
  - { offset: 0x60884, size: 0x8, addend: 0x0, symName: '__ZN4pyo37pyclass5guard24PyClassGuardMut$LT$T$GT$21try_from_class_object28_$u7b$$u7b$closure$u7d$$u7d$17h8de4cc4e6120ea5cE', symObjAddr: 0x114C, symBinAddr: 0x3558C, symSize: 0x2C }
  - { offset: 0x608C8, size: 0x8, addend: 0x0, symName: '__ZN4pyo37pyclass5guard24PyClassGuardMut$LT$T$GT$21try_from_class_object28_$u7b$$u7b$closure$u7d$$u7d$17h9fb25b98f3a9ae3cE', symObjAddr: 0x1178, symBinAddr: 0x355B8, symSize: 0x2C }
  - { offset: 0x6090C, size: 0x8, addend: 0x0, symName: '__ZN4pyo37pyclass5guard24PyClassGuardMut$LT$T$GT$21try_from_class_object28_$u7b$$u7b$closure$u7d$$u7d$17ha13c7c4d4882c917E', symObjAddr: 0x11A4, symBinAddr: 0x355E4, symSize: 0x2C }
  - { offset: 0x60950, size: 0x8, addend: 0x0, symName: '__ZN4pyo37pyclass5guard24PyClassGuardMut$LT$T$GT$21try_from_class_object28_$u7b$$u7b$closure$u7d$$u7d$17had53abbb1a7c96fdE', symObjAddr: 0x11D0, symBinAddr: 0x35610, symSize: 0x2C }
  - { offset: 0x60994, size: 0x8, addend: 0x0, symName: '__ZN4pyo37pyclass5guard24PyClassGuardMut$LT$T$GT$21try_from_class_object28_$u7b$$u7b$closure$u7d$$u7d$17hb1de3db15cee8e31E', symObjAddr: 0x11FC, symBinAddr: 0x3563C, symSize: 0x2C }
  - { offset: 0x609D8, size: 0x8, addend: 0x0, symName: '__ZN4pyo37pyclass5guard24PyClassGuardMut$LT$T$GT$21try_from_class_object28_$u7b$$u7b$closure$u7d$$u7d$17hcd3424a89f65a8faE', symObjAddr: 0x1228, symBinAddr: 0x35668, symSize: 0x2C }
  - { offset: 0x60A1C, size: 0x8, addend: 0x0, symName: '__ZN4pyo37pyclass5guard24PyClassGuardMut$LT$T$GT$21try_from_class_object28_$u7b$$u7b$closure$u7d$$u7d$17hd21bae8fca6b6056E', symObjAddr: 0x1254, symBinAddr: 0x35694, symSize: 0x2C }
  - { offset: 0x60A60, size: 0x8, addend: 0x0, symName: '__ZN4pyo37pyclass5guard24PyClassGuardMut$LT$T$GT$21try_from_class_object28_$u7b$$u7b$closure$u7d$$u7d$17hd3e1fd2e94bd8f52E', symObjAddr: 0x1280, symBinAddr: 0x356C0, symSize: 0x2C }
  - { offset: 0x60AA4, size: 0x8, addend: 0x0, symName: '__ZN4pyo37pyclass5guard24PyClassGuardMut$LT$T$GT$21try_from_class_object28_$u7b$$u7b$closure$u7d$$u7d$17hde15c1d090b6d78fE', symObjAddr: 0x12AC, symBinAddr: 0x356EC, symSize: 0x2C }
  - { offset: 0x60AE8, size: 0x8, addend: 0x0, symName: '__ZN4pyo37pyclass5guard24PyClassGuardMut$LT$T$GT$21try_from_class_object28_$u7b$$u7b$closure$u7d$$u7d$17he5a0ce3d2e1acb4fE', symObjAddr: 0x12D8, symBinAddr: 0x35718, symSize: 0x2C }
  - { offset: 0x60B2C, size: 0x8, addend: 0x0, symName: '__ZN4pyo37pyclass5guard24PyClassGuardMut$LT$T$GT$21try_from_class_object28_$u7b$$u7b$closure$u7d$$u7d$17he9e3ce46a83a5d78E', symObjAddr: 0x1304, symBinAddr: 0x35744, symSize: 0x2C }
  - { offset: 0x60B70, size: 0x8, addend: 0x0, symName: '__ZN4pyo37pyclass5guard24PyClassGuardMut$LT$T$GT$21try_from_class_object28_$u7b$$u7b$closure$u7d$$u7d$17hfdecf3f7b47dd329E', symObjAddr: 0x1330, symBinAddr: 0x35770, symSize: 0x2C }
  - { offset: 0x60BBB, size: 0x8, addend: 0x0, symName: '__ZN87_$LT$pyo3..pyclass..guard..PyClassGuard$LT$T$GT$$u20$as$u20$core..ops..deref..Deref$GT$5deref17h2d2ebfbff50599bbE', symObjAddr: 0x171C, symBinAddr: 0x35B5C, symSize: 0x78 }
  - { offset: 0x60BF2, size: 0x8, addend: 0x0, symName: '__ZN87_$LT$pyo3..pyclass..guard..PyClassGuard$LT$T$GT$$u20$as$u20$core..ops..deref..Deref$GT$5deref17h8c374312c5f39d8fE', symObjAddr: 0x1794, symBinAddr: 0x35BD4, symSize: 0x78 }
  - { offset: 0x60C29, size: 0x8, addend: 0x0, symName: '__ZN87_$LT$pyo3..pyclass..guard..PyClassGuard$LT$T$GT$$u20$as$u20$core..ops..deref..Deref$GT$5deref17h91aedbfc8776704eE', symObjAddr: 0x180C, symBinAddr: 0x35C4C, symSize: 0x78 }
  - { offset: 0x60C60, size: 0x8, addend: 0x0, symName: '__ZN87_$LT$pyo3..pyclass..guard..PyClassGuard$LT$T$GT$$u20$as$u20$core..ops..deref..Deref$GT$5deref17hcee29db711200f66E', symObjAddr: 0x1884, symBinAddr: 0x35CC4, symSize: 0x78 }
  - { offset: 0x60C97, size: 0x8, addend: 0x0, symName: '__ZN87_$LT$pyo3..pyclass..guard..PyClassGuard$LT$T$GT$$u20$as$u20$core..ops..deref..Deref$GT$5deref17hfbb66bbd384a4ffdE', symObjAddr: 0x18FC, symBinAddr: 0x35D3C, symSize: 0x78 }
  - { offset: 0x60CD4, size: 0x8, addend: 0x0, symName: '__ZN93_$LT$pyo3..pyclass..guard..PyClassGuardMut$LT$T$GT$$u20$as$u20$core..ops..deref..DerefMut$GT$9deref_mut17h09eaff88b42943f9E', symObjAddr: 0x1974, symBinAddr: 0x35DB4, symSize: 0x74 }
  - { offset: 0x60D0B, size: 0x8, addend: 0x0, symName: '__ZN93_$LT$pyo3..pyclass..guard..PyClassGuardMut$LT$T$GT$$u20$as$u20$core..ops..deref..DerefMut$GT$9deref_mut17h12ffbf29e0b2722bE', symObjAddr: 0x19E8, symBinAddr: 0x35E28, symSize: 0x74 }
  - { offset: 0x60D42, size: 0x8, addend: 0x0, symName: '__ZN93_$LT$pyo3..pyclass..guard..PyClassGuardMut$LT$T$GT$$u20$as$u20$core..ops..deref..DerefMut$GT$9deref_mut17h3850b060cc3ec75bE', symObjAddr: 0x1A5C, symBinAddr: 0x35E9C, symSize: 0x74 }
  - { offset: 0x60D79, size: 0x8, addend: 0x0, symName: '__ZN93_$LT$pyo3..pyclass..guard..PyClassGuardMut$LT$T$GT$$u20$as$u20$core..ops..deref..DerefMut$GT$9deref_mut17h4921b8d49e9b7238E', symObjAddr: 0x1AD0, symBinAddr: 0x35F10, symSize: 0x74 }
  - { offset: 0x60DB0, size: 0x8, addend: 0x0, symName: '__ZN93_$LT$pyo3..pyclass..guard..PyClassGuardMut$LT$T$GT$$u20$as$u20$core..ops..deref..DerefMut$GT$9deref_mut17h4dac46aa1cdb2ed4E', symObjAddr: 0x1B44, symBinAddr: 0x35F84, symSize: 0x74 }
  - { offset: 0x60DE7, size: 0x8, addend: 0x0, symName: '__ZN93_$LT$pyo3..pyclass..guard..PyClassGuardMut$LT$T$GT$$u20$as$u20$core..ops..deref..DerefMut$GT$9deref_mut17h68b125768c9b6573E', symObjAddr: 0x1BB8, symBinAddr: 0x35FF8, symSize: 0x78 }
  - { offset: 0x60E1E, size: 0x8, addend: 0x0, symName: '__ZN93_$LT$pyo3..pyclass..guard..PyClassGuardMut$LT$T$GT$$u20$as$u20$core..ops..deref..DerefMut$GT$9deref_mut17h7061388df13bda6aE', symObjAddr: 0x1C30, symBinAddr: 0x36070, symSize: 0x74 }
  - { offset: 0x60E55, size: 0x8, addend: 0x0, symName: '__ZN93_$LT$pyo3..pyclass..guard..PyClassGuardMut$LT$T$GT$$u20$as$u20$core..ops..deref..DerefMut$GT$9deref_mut17h81da93918ae86e87E', symObjAddr: 0x1CA4, symBinAddr: 0x360E4, symSize: 0x74 }
  - { offset: 0x60E8C, size: 0x8, addend: 0x0, symName: '__ZN93_$LT$pyo3..pyclass..guard..PyClassGuardMut$LT$T$GT$$u20$as$u20$core..ops..deref..DerefMut$GT$9deref_mut17h91bdac3da897d1aaE', symObjAddr: 0x1D18, symBinAddr: 0x36158, symSize: 0x74 }
  - { offset: 0x60EC3, size: 0x8, addend: 0x0, symName: '__ZN93_$LT$pyo3..pyclass..guard..PyClassGuardMut$LT$T$GT$$u20$as$u20$core..ops..deref..DerefMut$GT$9deref_mut17h96e5af86f58c1738E', symObjAddr: 0x1D8C, symBinAddr: 0x361CC, symSize: 0x74 }
  - { offset: 0x60EFA, size: 0x8, addend: 0x0, symName: '__ZN93_$LT$pyo3..pyclass..guard..PyClassGuardMut$LT$T$GT$$u20$as$u20$core..ops..deref..DerefMut$GT$9deref_mut17h97d7d120c3251b34E', symObjAddr: 0x1E00, symBinAddr: 0x36240, symSize: 0x74 }
  - { offset: 0x60F31, size: 0x8, addend: 0x0, symName: '__ZN93_$LT$pyo3..pyclass..guard..PyClassGuardMut$LT$T$GT$$u20$as$u20$core..ops..deref..DerefMut$GT$9deref_mut17h9a9c07c3a6e07634E', symObjAddr: 0x1E74, symBinAddr: 0x362B4, symSize: 0x74 }
  - { offset: 0x60F68, size: 0x8, addend: 0x0, symName: '__ZN93_$LT$pyo3..pyclass..guard..PyClassGuardMut$LT$T$GT$$u20$as$u20$core..ops..deref..DerefMut$GT$9deref_mut17ha29779a3c561efcdE', symObjAddr: 0x1EE8, symBinAddr: 0x36328, symSize: 0x74 }
  - { offset: 0x60F9F, size: 0x8, addend: 0x0, symName: '__ZN93_$LT$pyo3..pyclass..guard..PyClassGuardMut$LT$T$GT$$u20$as$u20$core..ops..deref..DerefMut$GT$9deref_mut17hb28207ae33a37aa9E', symObjAddr: 0x1F5C, symBinAddr: 0x3639C, symSize: 0x74 }
  - { offset: 0x60FD6, size: 0x8, addend: 0x0, symName: '__ZN93_$LT$pyo3..pyclass..guard..PyClassGuardMut$LT$T$GT$$u20$as$u20$core..ops..deref..DerefMut$GT$9deref_mut17hbdb9c4034f8282bdE', symObjAddr: 0x1FD0, symBinAddr: 0x36410, symSize: 0x74 }
  - { offset: 0x6100D, size: 0x8, addend: 0x0, symName: '__ZN93_$LT$pyo3..pyclass..guard..PyClassGuardMut$LT$T$GT$$u20$as$u20$core..ops..deref..DerefMut$GT$9deref_mut17hc0e3fc918bba6f1aE', symObjAddr: 0x2044, symBinAddr: 0x36484, symSize: 0x74 }
  - { offset: 0x61044, size: 0x8, addend: 0x0, symName: '__ZN93_$LT$pyo3..pyclass..guard..PyClassGuardMut$LT$T$GT$$u20$as$u20$core..ops..deref..DerefMut$GT$9deref_mut17hce0a341529f68758E', symObjAddr: 0x20B8, symBinAddr: 0x364F8, symSize: 0x74 }
  - { offset: 0x6107B, size: 0x8, addend: 0x0, symName: '__ZN93_$LT$pyo3..pyclass..guard..PyClassGuardMut$LT$T$GT$$u20$as$u20$core..ops..deref..DerefMut$GT$9deref_mut17hce9be7b6d0e943efE', symObjAddr: 0x212C, symBinAddr: 0x3656C, symSize: 0x74 }
  - { offset: 0x610B2, size: 0x8, addend: 0x0, symName: '__ZN93_$LT$pyo3..pyclass..guard..PyClassGuardMut$LT$T$GT$$u20$as$u20$core..ops..deref..DerefMut$GT$9deref_mut17hcf43f8ac604fcb3eE', symObjAddr: 0x21A0, symBinAddr: 0x365E0, symSize: 0x74 }
  - { offset: 0x610E9, size: 0x8, addend: 0x0, symName: '__ZN93_$LT$pyo3..pyclass..guard..PyClassGuardMut$LT$T$GT$$u20$as$u20$core..ops..deref..DerefMut$GT$9deref_mut17hd7f3c9daf5932ab5E', symObjAddr: 0x2214, symBinAddr: 0x36654, symSize: 0x74 }
  - { offset: 0x61120, size: 0x8, addend: 0x0, symName: '__ZN93_$LT$pyo3..pyclass..guard..PyClassGuardMut$LT$T$GT$$u20$as$u20$core..ops..deref..DerefMut$GT$9deref_mut17hda8853e093833a29E', symObjAddr: 0x2288, symBinAddr: 0x366C8, symSize: 0x74 }
  - { offset: 0x61157, size: 0x8, addend: 0x0, symName: '__ZN93_$LT$pyo3..pyclass..guard..PyClassGuardMut$LT$T$GT$$u20$as$u20$core..ops..deref..DerefMut$GT$9deref_mut17he6501d3e6d239035E', symObjAddr: 0x22FC, symBinAddr: 0x3673C, symSize: 0x74 }
  - { offset: 0x6118E, size: 0x8, addend: 0x0, symName: '__ZN93_$LT$pyo3..pyclass..guard..PyClassGuardMut$LT$T$GT$$u20$as$u20$core..ops..deref..DerefMut$GT$9deref_mut17he675c1f2f4eb73f3E', symObjAddr: 0x2370, symBinAddr: 0x367B0, symSize: 0x74 }
  - { offset: 0x611C5, size: 0x8, addend: 0x0, symName: '__ZN93_$LT$pyo3..pyclass..guard..PyClassGuardMut$LT$T$GT$$u20$as$u20$core..ops..deref..DerefMut$GT$9deref_mut17hf97616ac09417b19E', symObjAddr: 0x23E4, symBinAddr: 0x36824, symSize: 0x74 }
  - { offset: 0x62B91, size: 0x8, addend: 0x0, symName: '__ZN4pyo37pyclass5guard21PyClassGuard$LT$T$GT$15as_class_object17h0759d0ea084900a7E', symObjAddr: 0x0, symBinAddr: 0x34440, symSize: 0x38 }
  - { offset: 0x62C36, size: 0x8, addend: 0x0, symName: '__ZN4pyo37pyclass5guard21PyClassGuard$LT$T$GT$15as_class_object17h2c0ff7e8f0867ed9E', symObjAddr: 0x38, symBinAddr: 0x34478, symSize: 0x38 }
  - { offset: 0x62CDB, size: 0x8, addend: 0x0, symName: '__ZN4pyo37pyclass5guard21PyClassGuard$LT$T$GT$15as_class_object17h3c62f64cfb292149E', symObjAddr: 0x70, symBinAddr: 0x344B0, symSize: 0x38 }
  - { offset: 0x62F34, size: 0x8, addend: 0x0, symName: '__ZN4pyo37pyclass5guard21PyClassGuard$LT$T$GT$15as_class_object17hc33dfe34ef979971E', symObjAddr: 0xA8, symBinAddr: 0x344E8, symSize: 0x38 }
  - { offset: 0x62FD9, size: 0x8, addend: 0x0, symName: '__ZN4pyo37pyclass5guard21PyClassGuard$LT$T$GT$15as_class_object17hfeb87b52865ee8b2E', symObjAddr: 0xE0, symBinAddr: 0x34520, symSize: 0x38 }
  - { offset: 0x6302F, size: 0x8, addend: 0x0, symName: '__ZN4pyo37pyclass5guard21PyClassGuard$LT$T$GT$21try_from_class_object17h7831b59a180e0af9E', symObjAddr: 0x118, symBinAddr: 0x34558, symSize: 0x40 }
  - { offset: 0x6305A, size: 0x8, addend: 0x0, symName: '__ZN4pyo37pyclass5guard21PyClassGuard$LT$T$GT$21try_from_class_object17h83c6183128885f8bE', symObjAddr: 0x158, symBinAddr: 0x34598, symSize: 0x40 }
  - { offset: 0x63085, size: 0x8, addend: 0x0, symName: '__ZN4pyo37pyclass5guard21PyClassGuard$LT$T$GT$21try_from_class_object17hb7cd73aa09f4a39eE', symObjAddr: 0x198, symBinAddr: 0x345D8, symSize: 0x40 }
  - { offset: 0x630B0, size: 0x8, addend: 0x0, symName: '__ZN4pyo37pyclass5guard21PyClassGuard$LT$T$GT$21try_from_class_object17hd5f1071d5a23e181E', symObjAddr: 0x1D8, symBinAddr: 0x34618, symSize: 0x40 }
  - { offset: 0x630DB, size: 0x8, addend: 0x0, symName: '__ZN4pyo37pyclass5guard21PyClassGuard$LT$T$GT$21try_from_class_object17hdf2646e59265ab8dE', symObjAddr: 0x218, symBinAddr: 0x34658, symSize: 0x40 }
  - { offset: 0x63120, size: 0x8, addend: 0x0, symName: '__ZN4pyo37pyclass5guard21PyClassGuard$LT$T$GT$24try_borrow_from_borrowed17h128604768c603f3eE', symObjAddr: 0x334, symBinAddr: 0x34774, symSize: 0x28 }
  - { offset: 0x6314B, size: 0x8, addend: 0x0, symName: '__ZN4pyo37pyclass5guard21PyClassGuard$LT$T$GT$24try_borrow_from_borrowed17h4d4ac4311072f93fE', symObjAddr: 0x35C, symBinAddr: 0x3479C, symSize: 0x28 }
  - { offset: 0x63176, size: 0x8, addend: 0x0, symName: '__ZN4pyo37pyclass5guard21PyClassGuard$LT$T$GT$24try_borrow_from_borrowed17h55aa71ad441e14b7E', symObjAddr: 0x384, symBinAddr: 0x347C4, symSize: 0x28 }
  - { offset: 0x631A1, size: 0x8, addend: 0x0, symName: '__ZN4pyo37pyclass5guard21PyClassGuard$LT$T$GT$24try_borrow_from_borrowed17hd0fc59428d750acbE', symObjAddr: 0x3AC, symBinAddr: 0x347EC, symSize: 0x28 }
  - { offset: 0x631CC, size: 0x8, addend: 0x0, symName: '__ZN4pyo37pyclass5guard21PyClassGuard$LT$T$GT$24try_borrow_from_borrowed17hd3b17b4e67009dc6E', symObjAddr: 0x3D4, symBinAddr: 0x34814, symSize: 0x28 }
  - { offset: 0x63284, size: 0x8, addend: 0x0, symName: '__ZN4pyo37pyclass5guard24PyClassGuardMut$LT$T$GT$15as_class_object17h109b8db03bebaba1E', symObjAddr: 0x3FC, symBinAddr: 0x3483C, symSize: 0x38 }
  - { offset: 0x63338, size: 0x8, addend: 0x0, symName: '__ZN4pyo37pyclass5guard24PyClassGuardMut$LT$T$GT$15as_class_object17h1a424f2620be86c5E', symObjAddr: 0x434, symBinAddr: 0x34874, symSize: 0x38 }
  - { offset: 0x633DF, size: 0x8, addend: 0x0, symName: '__ZN4pyo37pyclass5guard24PyClassGuardMut$LT$T$GT$15as_class_object17h2b4e0831b5ea8801E', symObjAddr: 0x46C, symBinAddr: 0x348AC, symSize: 0x38 }
  - { offset: 0x63486, size: 0x8, addend: 0x0, symName: '__ZN4pyo37pyclass5guard24PyClassGuardMut$LT$T$GT$15as_class_object17h305df6a5cdc1b982E', symObjAddr: 0x4A4, symBinAddr: 0x348E4, symSize: 0x38 }
  - { offset: 0x6352D, size: 0x8, addend: 0x0, symName: '__ZN4pyo37pyclass5guard24PyClassGuardMut$LT$T$GT$15as_class_object17h4a0a88bafc0412b1E', symObjAddr: 0x4DC, symBinAddr: 0x3491C, symSize: 0x38 }
  - { offset: 0x635D4, size: 0x8, addend: 0x0, symName: '__ZN4pyo37pyclass5guard24PyClassGuardMut$LT$T$GT$15as_class_object17h4abd0cfa0bbb6538E', symObjAddr: 0x514, symBinAddr: 0x34954, symSize: 0x38 }
  - { offset: 0x636C7, size: 0x8, addend: 0x0, symName: '__ZN4pyo37pyclass5guard24PyClassGuardMut$LT$T$GT$15as_class_object17h4c9d18dfa2178dd6E', symObjAddr: 0x54C, symBinAddr: 0x3498C, symSize: 0x38 }
  - { offset: 0x6376E, size: 0x8, addend: 0x0, symName: '__ZN4pyo37pyclass5guard24PyClassGuardMut$LT$T$GT$15as_class_object17h4ccbad906701cb7dE', symObjAddr: 0x584, symBinAddr: 0x349C4, symSize: 0x38 }
  - { offset: 0x63822, size: 0x8, addend: 0x0, symName: '__ZN4pyo37pyclass5guard24PyClassGuardMut$LT$T$GT$15as_class_object17h51cb12816190637eE', symObjAddr: 0x5BC, symBinAddr: 0x349FC, symSize: 0x38 }
  - { offset: 0x638C9, size: 0x8, addend: 0x0, symName: '__ZN4pyo37pyclass5guard24PyClassGuardMut$LT$T$GT$15as_class_object17h6f2bf9ef70c7f02bE', symObjAddr: 0x5F4, symBinAddr: 0x34A34, symSize: 0x38 }
  - { offset: 0x63970, size: 0x8, addend: 0x0, symName: '__ZN4pyo37pyclass5guard24PyClassGuardMut$LT$T$GT$15as_class_object17h8608e128f0d37268E', symObjAddr: 0x62C, symBinAddr: 0x34A6C, symSize: 0x38 }
  - { offset: 0x63A17, size: 0x8, addend: 0x0, symName: '__ZN4pyo37pyclass5guard24PyClassGuardMut$LT$T$GT$15as_class_object17h91155b990256a8dcE', symObjAddr: 0x664, symBinAddr: 0x34AA4, symSize: 0x38 }
  - { offset: 0x63ABE, size: 0x8, addend: 0x0, symName: '__ZN4pyo37pyclass5guard24PyClassGuardMut$LT$T$GT$15as_class_object17h93cc5892ca37ea6eE', symObjAddr: 0x69C, symBinAddr: 0x34ADC, symSize: 0x38 }
  - { offset: 0x63B15, size: 0x8, addend: 0x0, symName: '__ZN4pyo37pyclass5guard24PyClassGuardMut$LT$T$GT$15as_class_object17h9bd32ae03c3370f8E', symObjAddr: 0x6D4, symBinAddr: 0x34B14, symSize: 0x38 }
  - { offset: 0x63BBC, size: 0x8, addend: 0x0, symName: '__ZN4pyo37pyclass5guard24PyClassGuardMut$LT$T$GT$15as_class_object17ha47665b61b068e8eE', symObjAddr: 0x70C, symBinAddr: 0x34B4C, symSize: 0x38 }
  - { offset: 0x63C63, size: 0x8, addend: 0x0, symName: '__ZN4pyo37pyclass5guard24PyClassGuardMut$LT$T$GT$15as_class_object17hae80539e94545ab3E', symObjAddr: 0x744, symBinAddr: 0x34B84, symSize: 0x38 }
  - { offset: 0x63D0A, size: 0x8, addend: 0x0, symName: '__ZN4pyo37pyclass5guard24PyClassGuardMut$LT$T$GT$15as_class_object17haf061c1c4c625c2aE', symObjAddr: 0x77C, symBinAddr: 0x34BBC, symSize: 0x38 }
  - { offset: 0x63DB1, size: 0x8, addend: 0x0, symName: '__ZN4pyo37pyclass5guard24PyClassGuardMut$LT$T$GT$15as_class_object17hbadf891f4e100228E', symObjAddr: 0x7B4, symBinAddr: 0x34BF4, symSize: 0x38 }
  - { offset: 0x63E58, size: 0x8, addend: 0x0, symName: '__ZN4pyo37pyclass5guard24PyClassGuardMut$LT$T$GT$15as_class_object17hc4a35f6d8efddfe6E', symObjAddr: 0x7EC, symBinAddr: 0x34C2C, symSize: 0x38 }
  - { offset: 0x63EFF, size: 0x8, addend: 0x0, symName: '__ZN4pyo37pyclass5guard24PyClassGuardMut$LT$T$GT$15as_class_object17he9748fbaf511a11bE', symObjAddr: 0x824, symBinAddr: 0x34C64, symSize: 0x38 }
  - { offset: 0x63FA6, size: 0x8, addend: 0x0, symName: '__ZN4pyo37pyclass5guard24PyClassGuardMut$LT$T$GT$15as_class_object17hef830f47627558f5E', symObjAddr: 0x85C, symBinAddr: 0x34C9C, symSize: 0x38 }
  - { offset: 0x6404D, size: 0x8, addend: 0x0, symName: '__ZN4pyo37pyclass5guard24PyClassGuardMut$LT$T$GT$15as_class_object17hf123e21f4150b8aeE', symObjAddr: 0x894, symBinAddr: 0x34CD4, symSize: 0x38 }
  - { offset: 0x640F4, size: 0x8, addend: 0x0, symName: '__ZN4pyo37pyclass5guard24PyClassGuardMut$LT$T$GT$15as_class_object17hf14bbace1678e6bbE', symObjAddr: 0x8CC, symBinAddr: 0x34D0C, symSize: 0x38 }
  - { offset: 0x6419B, size: 0x8, addend: 0x0, symName: '__ZN4pyo37pyclass5guard24PyClassGuardMut$LT$T$GT$15as_class_object17hf5e4a979bdb3359eE', symObjAddr: 0x904, symBinAddr: 0x34D44, symSize: 0x38 }
  - { offset: 0x641E5, size: 0x8, addend: 0x0, symName: '__ZN4pyo37pyclass5guard24PyClassGuardMut$LT$T$GT$21try_from_class_object17h044fb40393ee6137E', symObjAddr: 0x93C, symBinAddr: 0x34D7C, symSize: 0x40 }
  - { offset: 0x64211, size: 0x8, addend: 0x0, symName: '__ZN4pyo37pyclass5guard24PyClassGuardMut$LT$T$GT$21try_from_class_object17h0e78f9c24dc66e4fE', symObjAddr: 0x97C, symBinAddr: 0x34DBC, symSize: 0x40 }
  - { offset: 0x6423D, size: 0x8, addend: 0x0, symName: '__ZN4pyo37pyclass5guard24PyClassGuardMut$LT$T$GT$21try_from_class_object17h23f90e4389e9e18eE', symObjAddr: 0x9BC, symBinAddr: 0x34DFC, symSize: 0x40 }
  - { offset: 0x64269, size: 0x8, addend: 0x0, symName: '__ZN4pyo37pyclass5guard24PyClassGuardMut$LT$T$GT$21try_from_class_object17h28432c3556c9cbd2E', symObjAddr: 0x9FC, symBinAddr: 0x34E3C, symSize: 0x40 }
  - { offset: 0x64295, size: 0x8, addend: 0x0, symName: '__ZN4pyo37pyclass5guard24PyClassGuardMut$LT$T$GT$21try_from_class_object17h2ecf42887f76f058E', symObjAddr: 0xA3C, symBinAddr: 0x34E7C, symSize: 0x40 }
  - { offset: 0x642C1, size: 0x8, addend: 0x0, symName: '__ZN4pyo37pyclass5guard24PyClassGuardMut$LT$T$GT$21try_from_class_object17h3f0ffe669caa98e3E', symObjAddr: 0xA7C, symBinAddr: 0x34EBC, symSize: 0x40 }
  - { offset: 0x642ED, size: 0x8, addend: 0x0, symName: '__ZN4pyo37pyclass5guard24PyClassGuardMut$LT$T$GT$21try_from_class_object17h495dcc3bf0a411dfE', symObjAddr: 0xABC, symBinAddr: 0x34EFC, symSize: 0x40 }
  - { offset: 0x64319, size: 0x8, addend: 0x0, symName: '__ZN4pyo37pyclass5guard24PyClassGuardMut$LT$T$GT$21try_from_class_object17h4d7fdec8ba2717d7E', symObjAddr: 0xAFC, symBinAddr: 0x34F3C, symSize: 0x40 }
  - { offset: 0x64345, size: 0x8, addend: 0x0, symName: '__ZN4pyo37pyclass5guard24PyClassGuardMut$LT$T$GT$21try_from_class_object17h52176ec2017ea40aE', symObjAddr: 0xB3C, symBinAddr: 0x34F7C, symSize: 0x40 }
  - { offset: 0x64371, size: 0x8, addend: 0x0, symName: '__ZN4pyo37pyclass5guard24PyClassGuardMut$LT$T$GT$21try_from_class_object17h52efcb04f27220bbE', symObjAddr: 0xB7C, symBinAddr: 0x34FBC, symSize: 0x40 }
  - { offset: 0x6439D, size: 0x8, addend: 0x0, symName: '__ZN4pyo37pyclass5guard24PyClassGuardMut$LT$T$GT$21try_from_class_object17h6627b1e95e3f0841E', symObjAddr: 0xBBC, symBinAddr: 0x34FFC, symSize: 0x40 }
  - { offset: 0x643C9, size: 0x8, addend: 0x0, symName: '__ZN4pyo37pyclass5guard24PyClassGuardMut$LT$T$GT$21try_from_class_object17h7027357350e566cbE', symObjAddr: 0xBFC, symBinAddr: 0x3503C, symSize: 0x40 }
  - { offset: 0x643F5, size: 0x8, addend: 0x0, symName: '__ZN4pyo37pyclass5guard24PyClassGuardMut$LT$T$GT$21try_from_class_object17h7dc581f951472e0bE', symObjAddr: 0xC3C, symBinAddr: 0x3507C, symSize: 0x40 }
  - { offset: 0x64421, size: 0x8, addend: 0x0, symName: '__ZN4pyo37pyclass5guard24PyClassGuardMut$LT$T$GT$21try_from_class_object17h7f3043238032d201E', symObjAddr: 0xC7C, symBinAddr: 0x350BC, symSize: 0x40 }
  - { offset: 0x6444D, size: 0x8, addend: 0x0, symName: '__ZN4pyo37pyclass5guard24PyClassGuardMut$LT$T$GT$21try_from_class_object17h804cb2e4a5527267E', symObjAddr: 0xCBC, symBinAddr: 0x350FC, symSize: 0x40 }
  - { offset: 0x64479, size: 0x8, addend: 0x0, symName: '__ZN4pyo37pyclass5guard24PyClassGuardMut$LT$T$GT$21try_from_class_object17haad5991b60a3498bE', symObjAddr: 0xCFC, symBinAddr: 0x3513C, symSize: 0x40 }
  - { offset: 0x644A5, size: 0x8, addend: 0x0, symName: '__ZN4pyo37pyclass5guard24PyClassGuardMut$LT$T$GT$21try_from_class_object17hb099b03c02ed34a3E', symObjAddr: 0xD3C, symBinAddr: 0x3517C, symSize: 0x40 }
  - { offset: 0x644D1, size: 0x8, addend: 0x0, symName: '__ZN4pyo37pyclass5guard24PyClassGuardMut$LT$T$GT$21try_from_class_object17hbde8f86e40df03aaE', symObjAddr: 0xD7C, symBinAddr: 0x351BC, symSize: 0x40 }
  - { offset: 0x644FD, size: 0x8, addend: 0x0, symName: '__ZN4pyo37pyclass5guard24PyClassGuardMut$LT$T$GT$21try_from_class_object17hdd85c3fbf632e54eE', symObjAddr: 0xDBC, symBinAddr: 0x351FC, symSize: 0x40 }
  - { offset: 0x64529, size: 0x8, addend: 0x0, symName: '__ZN4pyo37pyclass5guard24PyClassGuardMut$LT$T$GT$21try_from_class_object17hdfaa99b60462b4a1E', symObjAddr: 0xDFC, symBinAddr: 0x3523C, symSize: 0x40 }
  - { offset: 0x64555, size: 0x8, addend: 0x0, symName: '__ZN4pyo37pyclass5guard24PyClassGuardMut$LT$T$GT$21try_from_class_object17he9a1a3e0f1e97699E', symObjAddr: 0xE3C, symBinAddr: 0x3527C, symSize: 0x40 }
  - { offset: 0x64581, size: 0x8, addend: 0x0, symName: '__ZN4pyo37pyclass5guard24PyClassGuardMut$LT$T$GT$21try_from_class_object17heacd8425a7165ddcE', symObjAddr: 0xE7C, symBinAddr: 0x352BC, symSize: 0x40 }
  - { offset: 0x645AD, size: 0x8, addend: 0x0, symName: '__ZN4pyo37pyclass5guard24PyClassGuardMut$LT$T$GT$21try_from_class_object17hed40d516bf18f219E', symObjAddr: 0xEBC, symBinAddr: 0x352FC, symSize: 0x40 }
  - { offset: 0x645D9, size: 0x8, addend: 0x0, symName: '__ZN4pyo37pyclass5guard24PyClassGuardMut$LT$T$GT$21try_from_class_object17hf328b10ecccd6a21E', symObjAddr: 0xEFC, symBinAddr: 0x3533C, symSize: 0x40 }
  - { offset: 0x64605, size: 0x8, addend: 0x0, symName: '__ZN4pyo37pyclass5guard24PyClassGuardMut$LT$T$GT$28try_borrow_mut_from_borrowed17h0c03a24a3d256016E', symObjAddr: 0x135C, symBinAddr: 0x3579C, symSize: 0x28 }
  - { offset: 0x64631, size: 0x8, addend: 0x0, symName: '__ZN4pyo37pyclass5guard24PyClassGuardMut$LT$T$GT$28try_borrow_mut_from_borrowed17h1f57aac8e591e848E', symObjAddr: 0x1384, symBinAddr: 0x357C4, symSize: 0x28 }
  - { offset: 0x6465D, size: 0x8, addend: 0x0, symName: '__ZN4pyo37pyclass5guard24PyClassGuardMut$LT$T$GT$28try_borrow_mut_from_borrowed17h237ab79aaba65614E', symObjAddr: 0x13AC, symBinAddr: 0x357EC, symSize: 0x28 }
  - { offset: 0x64689, size: 0x8, addend: 0x0, symName: '__ZN4pyo37pyclass5guard24PyClassGuardMut$LT$T$GT$28try_borrow_mut_from_borrowed17h26cdeae67e6e7d04E', symObjAddr: 0x13D4, symBinAddr: 0x35814, symSize: 0x28 }
  - { offset: 0x646B5, size: 0x8, addend: 0x0, symName: '__ZN4pyo37pyclass5guard24PyClassGuardMut$LT$T$GT$28try_borrow_mut_from_borrowed17h2d054aadf3d123fbE', symObjAddr: 0x13FC, symBinAddr: 0x3583C, symSize: 0x28 }
  - { offset: 0x646E1, size: 0x8, addend: 0x0, symName: '__ZN4pyo37pyclass5guard24PyClassGuardMut$LT$T$GT$28try_borrow_mut_from_borrowed17h34135f4ca436f017E', symObjAddr: 0x1424, symBinAddr: 0x35864, symSize: 0x28 }
  - { offset: 0x6470D, size: 0x8, addend: 0x0, symName: '__ZN4pyo37pyclass5guard24PyClassGuardMut$LT$T$GT$28try_borrow_mut_from_borrowed17h34b1beeb50c9d05eE', symObjAddr: 0x144C, symBinAddr: 0x3588C, symSize: 0x28 }
  - { offset: 0x64739, size: 0x8, addend: 0x0, symName: '__ZN4pyo37pyclass5guard24PyClassGuardMut$LT$T$GT$28try_borrow_mut_from_borrowed17h3c719bf3125b6aceE', symObjAddr: 0x1474, symBinAddr: 0x358B4, symSize: 0x28 }
  - { offset: 0x64765, size: 0x8, addend: 0x0, symName: '__ZN4pyo37pyclass5guard24PyClassGuardMut$LT$T$GT$28try_borrow_mut_from_borrowed17h4f398f54691774aeE', symObjAddr: 0x149C, symBinAddr: 0x358DC, symSize: 0x28 }
  - { offset: 0x64791, size: 0x8, addend: 0x0, symName: '__ZN4pyo37pyclass5guard24PyClassGuardMut$LT$T$GT$28try_borrow_mut_from_borrowed17h52d7ab854ffce2b7E', symObjAddr: 0x14C4, symBinAddr: 0x35904, symSize: 0x28 }
  - { offset: 0x647BD, size: 0x8, addend: 0x0, symName: '__ZN4pyo37pyclass5guard24PyClassGuardMut$LT$T$GT$28try_borrow_mut_from_borrowed17h5c56638cbed60a77E', symObjAddr: 0x14EC, symBinAddr: 0x3592C, symSize: 0x28 }
  - { offset: 0x647E9, size: 0x8, addend: 0x0, symName: '__ZN4pyo37pyclass5guard24PyClassGuardMut$LT$T$GT$28try_borrow_mut_from_borrowed17h61de8cdfaf813078E', symObjAddr: 0x1514, symBinAddr: 0x35954, symSize: 0x28 }
  - { offset: 0x64815, size: 0x8, addend: 0x0, symName: '__ZN4pyo37pyclass5guard24PyClassGuardMut$LT$T$GT$28try_borrow_mut_from_borrowed17h855e872835d0fa10E', symObjAddr: 0x153C, symBinAddr: 0x3597C, symSize: 0x28 }
  - { offset: 0x64841, size: 0x8, addend: 0x0, symName: '__ZN4pyo37pyclass5guard24PyClassGuardMut$LT$T$GT$28try_borrow_mut_from_borrowed17h931cfcd160310677E', symObjAddr: 0x1564, symBinAddr: 0x359A4, symSize: 0x28 }
  - { offset: 0x6486D, size: 0x8, addend: 0x0, symName: '__ZN4pyo37pyclass5guard24PyClassGuardMut$LT$T$GT$28try_borrow_mut_from_borrowed17h9bae05445cba5a3dE', symObjAddr: 0x158C, symBinAddr: 0x359CC, symSize: 0x28 }
  - { offset: 0x64899, size: 0x8, addend: 0x0, symName: '__ZN4pyo37pyclass5guard24PyClassGuardMut$LT$T$GT$28try_borrow_mut_from_borrowed17ha9a79c762e3037edE', symObjAddr: 0x15B4, symBinAddr: 0x359F4, symSize: 0x28 }
  - { offset: 0x648C5, size: 0x8, addend: 0x0, symName: '__ZN4pyo37pyclass5guard24PyClassGuardMut$LT$T$GT$28try_borrow_mut_from_borrowed17hae25c8336a265954E', symObjAddr: 0x15DC, symBinAddr: 0x35A1C, symSize: 0x28 }
  - { offset: 0x648F1, size: 0x8, addend: 0x0, symName: '__ZN4pyo37pyclass5guard24PyClassGuardMut$LT$T$GT$28try_borrow_mut_from_borrowed17hb7319fbe95d2084eE', symObjAddr: 0x1604, symBinAddr: 0x35A44, symSize: 0x28 }
  - { offset: 0x6491D, size: 0x8, addend: 0x0, symName: '__ZN4pyo37pyclass5guard24PyClassGuardMut$LT$T$GT$28try_borrow_mut_from_borrowed17hc2055e7a5b4680d4E', symObjAddr: 0x162C, symBinAddr: 0x35A6C, symSize: 0x28 }
  - { offset: 0x64949, size: 0x8, addend: 0x0, symName: '__ZN4pyo37pyclass5guard24PyClassGuardMut$LT$T$GT$28try_borrow_mut_from_borrowed17hc517a7e78f53c434E', symObjAddr: 0x1654, symBinAddr: 0x35A94, symSize: 0x28 }
  - { offset: 0x64975, size: 0x8, addend: 0x0, symName: '__ZN4pyo37pyclass5guard24PyClassGuardMut$LT$T$GT$28try_borrow_mut_from_borrowed17hd8bbb2490e48882aE', symObjAddr: 0x167C, symBinAddr: 0x35ABC, symSize: 0x28 }
  - { offset: 0x649A1, size: 0x8, addend: 0x0, symName: '__ZN4pyo37pyclass5guard24PyClassGuardMut$LT$T$GT$28try_borrow_mut_from_borrowed17he176ad17d5058a68E', symObjAddr: 0x16A4, symBinAddr: 0x35AE4, symSize: 0x28 }
  - { offset: 0x649CD, size: 0x8, addend: 0x0, symName: '__ZN4pyo37pyclass5guard24PyClassGuardMut$LT$T$GT$28try_borrow_mut_from_borrowed17hf8cf64cc5c728d9dE', symObjAddr: 0x16CC, symBinAddr: 0x35B0C, symSize: 0x28 }
  - { offset: 0x649F9, size: 0x8, addend: 0x0, symName: '__ZN4pyo37pyclass5guard24PyClassGuardMut$LT$T$GT$28try_borrow_mut_from_borrowed17hfccbec469cc6428fE', symObjAddr: 0x16F4, symBinAddr: 0x35B34, symSize: 0x28 }
  - { offset: 0x64CF4, size: 0x8, addend: 0x0, symName: __ZN4core3cmp9PartialEq2ne17h37f7dee92db1758fE, symObjAddr: 0x0, symBinAddr: 0x36898, symSize: 0x30 }
  - { offset: 0x64D59, size: 0x8, addend: 0x0, symName: __ZN4core3cmp9PartialEq2ne17h37f7dee92db1758fE, symObjAddr: 0x0, symBinAddr: 0x36898, symSize: 0x30 }
  - { offset: 0x64DDD, size: 0x8, addend: 0x0, symName: '__ZN9orion_sdr10demodulate3qam19QamDecider$LT$_$GT$3new17h2f2e681b7bbbb3c6E', symObjAddr: 0x0, symBinAddr: 0x368C8, symSize: 0x50 }
  - { offset: 0x64E83, size: 0x8, addend: 0x0, symName: '__ZN9orion_sdr10demodulate3qam19QamDecider$LT$_$GT$3new17h2f2e681b7bbbb3c6E', symObjAddr: 0x0, symBinAddr: 0x368C8, symSize: 0x50 }
  - { offset: 0x64E96, size: 0x8, addend: 0x0, symName: '__ZN9orion_sdr10demodulate3qam19QamDecider$LT$_$GT$3new17hd1e41b4cdfc5de49E', symObjAddr: 0x50, symBinAddr: 0x36918, symSize: 0x50 }
  - { offset: 0x64EA9, size: 0x8, addend: 0x0, symName: '__ZN9orion_sdr10demodulate3qam19QamDecider$LT$_$GT$3new17hd6dc89bf70a2c124E', symObjAddr: 0xA0, symBinAddr: 0x36968, symSize: 0x50 }
  - { offset: 0x64EFD, size: 0x8, addend: 0x0, symName: __ZN9orion_sdr6python3ft88ft4_sync9_PYO3_DEF17h21f15b4f4750dc4eE, symObjAddr: 0xF0, symBinAddr: 0x1DCAE8, symSize: 0x0 }
  - { offset: 0x651A9, size: 0x8, addend: 0x0, symName: '__ZN4core3str6traits108_$LT$impl$u20$core..slice..index..SliceIndex$LT$str$GT$$u20$for$u20$core..ops..range..Range$LT$usize$GT$$GT$3get17he381eb2c472821ccE', symObjAddr: 0x0, symBinAddr: 0x369B8, symSize: 0x208 }
  - { offset: 0x65268, size: 0x8, addend: 0x0, symName: '__ZN4core3str6traits108_$LT$impl$u20$core..slice..index..SliceIndex$LT$str$GT$$u20$for$u20$core..ops..range..Range$LT$usize$GT$$GT$3get17he381eb2c472821ccE', symObjAddr: 0x0, symBinAddr: 0x369B8, symSize: 0x208 }
  - { offset: 0x653A7, size: 0x8, addend: 0x0, symName: '__ZN4core3str6traits108_$LT$impl$u20$core..slice..index..SliceIndex$LT$str$GT$$u20$for$u20$core..ops..range..Range$LT$usize$GT$$GT$5index17h0272dceed62ae280E', symObjAddr: 0x208, symBinAddr: 0x36BC0, symSize: 0x90 }
  - { offset: 0x6547B, size: 0x8, addend: 0x0, symName: '__ZN4core3str6traits110_$LT$impl$u20$core..slice..index..SliceIndex$LT$str$GT$$u20$for$u20$core..ops..range..RangeTo$LT$usize$GT$$GT$3get17h5df0c5191fda5e10E', symObjAddr: 0x298, symBinAddr: 0x36C50, symSize: 0x140 }
  - { offset: 0x65594, size: 0x8, addend: 0x0, symName: '__ZN4core3str6traits110_$LT$impl$u20$core..slice..index..SliceIndex$LT$str$GT$$u20$for$u20$core..ops..range..RangeTo$LT$usize$GT$$GT$5index17h4d717776e80c9717E', symObjAddr: 0x3D8, symBinAddr: 0x36D90, symSize: 0x84 }
  - { offset: 0x65865, size: 0x8, addend: 0x0, symName: __ZN9orion_sdr3dsp3nco3Nco3new17had68f3ca4437c450E, symObjAddr: 0x0, symBinAddr: 0x36E14, symSize: 0xB4 }
  - { offset: 0x658F5, size: 0x8, addend: 0x0, symName: __ZN9orion_sdr3dsp3nco12mix_with_nco17h62d4fb38f9783d96E, symObjAddr: 0xB4, symBinAddr: 0x36EC8, symSize: 0x144 }
  - { offset: 0x65A20, size: 0x8, addend: 0x0, symName: __ZN9orion_sdr3dsp3nco3Nco3new17had68f3ca4437c450E, symObjAddr: 0x0, symBinAddr: 0x36E14, symSize: 0xB4 }
  - { offset: 0x65B5A, size: 0x8, addend: 0x0, symName: __ZN4core4hint16assert_unchecked18precondition_check17h7ffea5e4ef46e784E, symObjAddr: 0x0, symBinAddr: 0x3700C, symSize: 0xA4 }
  - { offset: 0x65E7C, size: 0x8, addend: 0x0, symName: __ZN4core4hint16assert_unchecked18precondition_check17h7ffea5e4ef46e784E, symObjAddr: 0x0, symBinAddr: 0x3700C, symSize: 0xA4 }
  - { offset: 0x65EDC, size: 0x8, addend: 0x0, symName: __ZN4core4hint21unreachable_unchecked18precondition_check17h277469dda6239536E, symObjAddr: 0xA4, symBinAddr: 0x370B0, symSize: 0x84 }
  - { offset: 0x660EF, size: 0x8, addend: 0x0, symName: '__ZN95_$LT$pyo3..types..list..BoundListIterator$u20$as$u20$core..iter..traits..iterator..Iterator$GT$4next17h1e879b1428f7eca4E', symObjAddr: 0x0, symBinAddr: 0x37134, symSize: 0x48 }
  - { offset: 0x66195, size: 0x8, addend: 0x0, symName: '__ZN95_$LT$pyo3..types..list..BoundListIterator$u20$as$u20$core..iter..traits..iterator..Iterator$GT$4next17h1e879b1428f7eca4E', symObjAddr: 0x0, symBinAddr: 0x37134, symSize: 0x48 }
  - { offset: 0x665F6, size: 0x8, addend: 0x0, symName: __ZN4core9ub_checks23maybe_is_nonoverlapping7runtime17hef1cc4250bd97962E, symObjAddr: 0x0, symBinAddr: 0x3717C, symSize: 0xD8 }
  - { offset: 0x6677B, size: 0x8, addend: 0x0, symName: __ZN4core9ub_checks23maybe_is_nonoverlapping7runtime17hef1cc4250bd97962E, symObjAddr: 0x0, symBinAddr: 0x3717C, symSize: 0xD8 }
  - { offset: 0x6698A, size: 0x8, addend: 0x0, symName: '__ZN104_$LT$core..ops..index_range..IndexRange$u20$as$u20$core..slice..index..SliceIndex$LT$$u5b$T$u5d$$GT$$GT$17get_unchecked_mut18precondition_check17h5fc3872dd2e7efaeE', symObjAddr: 0x0, symBinAddr: 0x37254, symSize: 0xAC }
  - { offset: 0x66CB6, size: 0x8, addend: 0x0, symName: '__ZN104_$LT$core..ops..index_range..IndexRange$u20$as$u20$core..slice..index..SliceIndex$LT$$u5b$T$u5d$$GT$$GT$17get_unchecked_mut18precondition_check17h5fc3872dd2e7efaeE', symObjAddr: 0x0, symBinAddr: 0x37254, symSize: 0xAC }
  - { offset: 0x66D2A, size: 0x8, addend: 0x0, symName: '__ZN106_$LT$core..ops..range..Range$LT$usize$GT$$u20$as$u20$core..slice..index..SliceIndex$LT$$u5b$T$u5d$$GT$$GT$13get_unchecked18precondition_check17hccf7c768d25445a1E', symObjAddr: 0xAC, symBinAddr: 0x37300, symSize: 0xCC }
  - { offset: 0x66DA6, size: 0x8, addend: 0x0, symName: '__ZN106_$LT$core..ops..range..Range$LT$usize$GT$$u20$as$u20$core..slice..index..SliceIndex$LT$$u5b$T$u5d$$GT$$GT$17get_unchecked_mut18precondition_check17h72fc828a8177b7e8E', symObjAddr: 0x178, symBinAddr: 0x373CC, symSize: 0xCC }
  - { offset: 0x66E28, size: 0x8, addend: 0x0, symName: '__ZN75_$LT$usize$u20$as$u20$core..slice..index..SliceIndex$LT$$u5b$T$u5d$$GT$$GT$13get_unchecked18precondition_check17h4d77d8a43f7cdd48E', symObjAddr: 0x244, symBinAddr: 0x37498, symSize: 0xAC }
  - { offset: 0x66E96, size: 0x8, addend: 0x0, symName: '__ZN75_$LT$usize$u20$as$u20$core..slice..index..SliceIndex$LT$$u5b$T$u5d$$GT$$GT$17get_unchecked_mut18precondition_check17hb8644d4400132789E', symObjAddr: 0x2F0, symBinAddr: 0x37544, symSize: 0xAC }
  - { offset: 0x670EE, size: 0x8, addend: 0x0, symName: __ZN4pyo35impl_10trampoline6noargs5inner17hb5527973e7b42cf8E, symObjAddr: 0x0, symBinAddr: 0x375F0, symSize: 0x30 }
  - { offset: 0x67194, size: 0x8, addend: 0x0, symName: __ZN4pyo35impl_10trampoline6noargs5inner17hb5527973e7b42cf8E, symObjAddr: 0x0, symBinAddr: 0x375F0, symSize: 0x30 }
  - { offset: 0x67980, size: 0x8, addend: 0x0, symName: __ZN4core3fmt2rt8Argument11new_display17h5309f64ce716b8ceE, symObjAddr: 0x0, symBinAddr: 0x37620, symSize: 0x2C }
  - { offset: 0x67C70, size: 0x8, addend: 0x0, symName: __ZN4core3fmt2rt8Argument11new_display17h5309f64ce716b8ceE, symObjAddr: 0x0, symBinAddr: 0x37620, symSize: 0x2C }
  - { offset: 0x67CA8, size: 0x8, addend: 0x0, symName: __ZN4core3fmt2rt8Argument11new_display17h5bf7a3900815bcb1E, symObjAddr: 0x2C, symBinAddr: 0x3764C, symSize: 0x2C }
  - { offset: 0x67CF4, size: 0x8, addend: 0x0, symName: __ZN4core3fmt2rt8Argument11new_display17hbe11f37449913a38E, symObjAddr: 0x58, symBinAddr: 0x37678, symSize: 0x2C }
  - { offset: 0x67D3D, size: 0x8, addend: 0x0, symName: __ZN9orion_sdr8modulate4qpsk10QpskMapper3new17h43eed35583f8bcafE, symObjAddr: 0x0, symBinAddr: 0x376A4, symSize: 0x4 }
  - { offset: 0x67DFF, size: 0x8, addend: 0x0, symName: __ZN9orion_sdr8modulate4qpsk10QpskMapper3new17h43eed35583f8bcafE, symObjAddr: 0x0, symBinAddr: 0x376A4, symSize: 0x4 }
  - { offset: 0x67E50, size: 0x8, addend: 0x0, symName: __ZN9orion_sdr8modulate4qpsk7QpskMod3new17h9343d0982f6b559bE, symObjAddr: 0x4, symBinAddr: 0x376A8, symSize: 0x5C }
  - { offset: 0x67E9B, size: 0x8, addend: 0x0, symName: __ZN9orion_sdr8modulate4qpsk7QpskMod8set_gain17h1abcd88445d7b989E, symObjAddr: 0x60, symBinAddr: 0x37704, symSize: 0x1C }
  - { offset: 0x67EE9, size: 0x8, addend: 0x0, symName: __ZN3std9panicking12catch_unwind7do_call17h3c2f1b57041eebedE, symObjAddr: 0x0, symBinAddr: 0x37720, symSize: 0x84 }
  - { offset: 0x68B4D, size: 0x8, addend: 0x0, symName: __ZN3std9panicking12catch_unwind7do_call17h3c2f1b57041eebedE, symObjAddr: 0x0, symBinAddr: 0x37720, symSize: 0x84 }
  - { offset: 0x68C34, size: 0x8, addend: 0x0, symName: __ZN3std9panicking12catch_unwind7do_call17h56cf75259b146474E, symObjAddr: 0x84, symBinAddr: 0x377A4, symSize: 0x80 }
  - { offset: 0x68D1B, size: 0x8, addend: 0x0, symName: __ZN3std9panicking12catch_unwind7do_call17ha164b786a5b6eb9bE, symObjAddr: 0x104, symBinAddr: 0x37824, symSize: 0x90 }
  - { offset: 0x68E02, size: 0x8, addend: 0x0, symName: __ZN3std9panicking12catch_unwind7do_call17he268db8d32643955E, symObjAddr: 0x194, symBinAddr: 0x378B4, symSize: 0x80 }
  - { offset: 0x68EE9, size: 0x8, addend: 0x0, symName: __ZN3std9panicking12catch_unwind8do_catch17h1f51504af48d8b2aE, symObjAddr: 0x214, symBinAddr: 0x37934, symSize: 0x70 }
  - { offset: 0x68F7E, size: 0x8, addend: 0x0, symName: __ZN3std9panicking12catch_unwind8do_catch17h7f14b427b310caa6E, symObjAddr: 0x284, symBinAddr: 0x379A4, symSize: 0x70 }
  - { offset: 0x69013, size: 0x8, addend: 0x0, symName: __ZN3std9panicking12catch_unwind8do_catch17h9d2600dfe4a632d1E, symObjAddr: 0x2F4, symBinAddr: 0x37A14, symSize: 0x70 }
  - { offset: 0x690A8, size: 0x8, addend: 0x0, symName: __ZN3std9panicking12catch_unwind8do_catch17hf0529ec76f02366eE, symObjAddr: 0x364, symBinAddr: 0x37A84, symSize: 0x70 }
  - { offset: 0x69586, size: 0x8, addend: 0x0, symName: __ZN4pyo35types4none6PyNone3get17haa3820aa473c8bedE, symObjAddr: 0x0, symBinAddr: 0x37AF4, symSize: 0x24 }
  - { offset: 0x6988F, size: 0x8, addend: 0x0, symName: __ZN4pyo35types4none6PyNone3get17haa3820aa473c8bedE, symObjAddr: 0x0, symBinAddr: 0x37AF4, symSize: 0x24 }
  - { offset: 0x698DA, size: 0x8, addend: 0x0, symName: __ZN4core3ptr19swap_nonoverlapping17h28a413c93a1e8a8cE, symObjAddr: 0x0, symBinAddr: 0x37B18, symSize: 0xC4 }
  - { offset: 0x69A9A, size: 0x8, addend: 0x0, symName: __ZN4core3ptr19swap_nonoverlapping17h28a413c93a1e8a8cE, symObjAddr: 0x0, symBinAddr: 0x37B18, symSize: 0xC4 }
  - { offset: 0x69C08, size: 0x8, addend: 0x0, symName: __ZN4core3ptr19swap_nonoverlapping17he6081ab3b7a162a0E, symObjAddr: 0x184, symBinAddr: 0x37BDC, symSize: 0xBC }
  - { offset: 0x69DBB, size: 0x8, addend: 0x0, symName: __ZN4core3ptr4swap17h1e9d0e3f9627bc92E, symObjAddr: 0x240, symBinAddr: 0x37C98, symSize: 0x128 }
  - { offset: 0x69F42, size: 0x8, addend: 0x0, symName: __ZN4core3ptr4swap17h7fe0fa7a5464be29E, symObjAddr: 0x368, symBinAddr: 0x37DC0, symSize: 0x14C }
  - { offset: 0x6A5C9, size: 0x8, addend: 0x0, symName: '__ZN4core3num20_$LT$impl$u20$i8$GT$16from_ascii_radix17hee900e4a24f72945E', symObjAddr: 0x0, symBinAddr: 0x37F0C, symSize: 0x884 }
  - { offset: 0x6A7DC, size: 0x8, addend: 0x0, symName: '__ZN4core3num20_$LT$impl$u20$i8$GT$16from_ascii_radix17hee900e4a24f72945E', symObjAddr: 0x0, symBinAddr: 0x37F0C, symSize: 0x884 }
  - { offset: 0x6AC91, size: 0x8, addend: 0x0, symName: '__ZN4core3num20_$LT$impl$u20$u8$GT$13unchecked_sub18precondition_check17h9e8b0259c6af6f02E', symObjAddr: 0x884, symBinAddr: 0x38790, symSize: 0xB0 }
  - { offset: 0x6AD20, size: 0x8, addend: 0x0, symName: '__ZN4core3num20_$LT$impl$u20$u8$GT$14is_ascii_digit17hf07a0049b646dcd8E', symObjAddr: 0x934, symBinAddr: 0x38840, symSize: 0x64 }
  - { offset: 0x6AD4E, size: 0x8, addend: 0x0, symName: '__ZN4core3num20_$LT$impl$u20$u8$GT$18is_ascii_uppercase17ha46c4529ef44b4d3E', symObjAddr: 0x998, symBinAddr: 0x388A4, symSize: 0x64 }
  - { offset: 0x6AE7E, size: 0x8, addend: 0x0, symName: '__ZN4core3num21_$LT$impl$u20$u32$GT$16from_ascii_radix17h908158a6ab0309d1E', symObjAddr: 0x9FC, symBinAddr: 0x38908, symSize: 0x594 }
  - { offset: 0x6B11B, size: 0x8, addend: 0x0, symName: '__ZN4core3num23_$LT$impl$u20$isize$GT$13unchecked_neg18precondition_check17hfd53432983075afcE', symObjAddr: 0xF90, symBinAddr: 0x38E9C, symSize: 0xB8 }
  - { offset: 0x6B1E7, size: 0x8, addend: 0x0, symName: '__ZN4core3num23_$LT$impl$u20$usize$GT$13unchecked_add18precondition_check17h33324a1e15986baeE', symObjAddr: 0x1048, symBinAddr: 0x38F54, symSize: 0xB0 }
  - { offset: 0x6B27B, size: 0x8, addend: 0x0, symName: '__ZN4core3num23_$LT$impl$u20$usize$GT$13unchecked_sub18precondition_check17h57e7e122dd13b187E', symObjAddr: 0x10F8, symBinAddr: 0x39004, symSize: 0xAC }
  - { offset: 0x6B2EA, size: 0x8, addend: 0x0, symName: '__ZN4core3num59_$LT$impl$u20$core..str..traits..FromStr$u20$for$u20$i8$GT$8from_str17hdde286df02eac482E', symObjAddr: 0x11A4, symBinAddr: 0x390B0, symSize: 0x34 }
  - { offset: 0x6B344, size: 0x8, addend: 0x0, symName: '__ZN4core3num60_$LT$impl$u20$core..str..traits..FromStr$u20$for$u20$u32$GT$8from_str17h3fb10bf2a5cbfcc8E', symObjAddr: 0x11D8, symBinAddr: 0x390E4, symSize: 0x40 }
  - { offset: 0x6BB81, size: 0x8, addend: 0x0, symName: '__ZN145_$LT$core..option..Option$LT$T$GT$$u20$as$u20$core..ops..try_trait..FromResidual$LT$core..option..Option$LT$core..convert..Infallible$GT$$GT$$GT$13from_residual17h01149ab9f3766e8bE', symObjAddr: 0x0, symBinAddr: 0x39124, symSize: 0x18 }
  - { offset: 0x6BC46, size: 0x8, addend: 0x0, symName: '__ZN145_$LT$core..option..Option$LT$T$GT$$u20$as$u20$core..ops..try_trait..FromResidual$LT$core..option..Option$LT$core..convert..Infallible$GT$$GT$$GT$13from_residual17h01149ab9f3766e8bE', symObjAddr: 0x0, symBinAddr: 0x39124, symSize: 0x18 }
  - { offset: 0x6BC79, size: 0x8, addend: 0x0, symName: '__ZN145_$LT$core..option..Option$LT$T$GT$$u20$as$u20$core..ops..try_trait..FromResidual$LT$core..option..Option$LT$core..convert..Infallible$GT$$GT$$GT$13from_residual17h40de6f69baf516a1E', symObjAddr: 0x18, symBinAddr: 0x3913C, symSize: 0x10 }
  - { offset: 0x6BCAC, size: 0x8, addend: 0x0, symName: '__ZN145_$LT$core..option..Option$LT$T$GT$$u20$as$u20$core..ops..try_trait..FromResidual$LT$core..option..Option$LT$core..convert..Infallible$GT$$GT$$GT$13from_residual17hf7ca744daacd9371E', symObjAddr: 0x28, symBinAddr: 0x3914C, symSize: 0x10 }
  - { offset: 0x6EBCA, size: 0x8, addend: 0x0, symName: '__ZN70_$LT$core..option..Option$LT$T$GT$$u20$as$u20$core..cmp..PartialEq$GT$2eq17h496f6a80fbc52b2aE', symObjAddr: 0x2094, symBinAddr: 0x3B1B8, symSize: 0xAC }
  - { offset: 0x6EC44, size: 0x8, addend: 0x0, symName: '__ZN75_$LT$core..option..Option$LT$T$GT$$u20$as$u20$core..ops..try_trait..Try$GT$6branch17h83eae3e8874d84d0E', symObjAddr: 0x2140, symBinAddr: 0x3B264, symSize: 0x68 }
  - { offset: 0x6EC9A, size: 0x8, addend: 0x0, symName: '__ZN75_$LT$core..option..Option$LT$T$GT$$u20$as$u20$core..ops..try_trait..Try$GT$6branch17h8c5091fc8cfc42b4E', symObjAddr: 0x21A8, symBinAddr: 0x3B2CC, symSize: 0x60 }
  - { offset: 0x6EF55, size: 0x8, addend: 0x0, symName: '__ZN4core3ptr9const_ptr33_$LT$impl$u20$$BP$const$u20$T$GT$7is_null17h1c9de39be3f0e38bE', symObjAddr: 0x38, symBinAddr: 0x3915C, symSize: 0x18 }
  - { offset: 0x6F15F, size: 0x8, addend: 0x0, symName: '__ZN4core5slice29_$LT$impl$u20$$u5b$T$u5d$$GT$15copy_from_slice17h154e4d1a8d7950ddE', symObjAddr: 0x50, symBinAddr: 0x39174, symSize: 0xAC }
  - { offset: 0x6F22A, size: 0x8, addend: 0x0, symName: '__ZN4core5slice29_$LT$impl$u20$$u5b$T$u5d$$GT$18split_at_unchecked17h405c06d99a557086E', symObjAddr: 0xFC, symBinAddr: 0x39220, symSize: 0xEC }
  - { offset: 0x6F3B6, size: 0x8, addend: 0x0, symName: '__ZN4core5slice29_$LT$impl$u20$$u5b$T$u5d$$GT$8split_at17haaa81c8a5538a586E', symObjAddr: 0x1E8, symBinAddr: 0x3930C, symSize: 0xD8 }
  - { offset: 0x70A6D, size: 0x8, addend: 0x0, symName: '__ZN4pyo311conversions3std6option90_$LT$impl$u20$pyo3..conversion..IntoPyObject$u20$for$u20$core..option..Option$LT$T$GT$$GT$13into_pyobject17h7bd507bb4eba6dddE', symObjAddr: 0x2068, symBinAddr: 0x3B18C, symSize: 0x2C }
  - { offset: 0x70FC3, size: 0x8, addend: 0x0, symName: __ZN4pyo310conversion15IntoPyObjectExt17into_bound_py_any17h5b512de524c9e880E, symObjAddr: 0x2018, symBinAddr: 0x3B13C, symSize: 0x50 }
  - { offset: 0x7138C, size: 0x8, addend: 0x0, symName: '__ZN4core6option15Option$LT$T$GT$11map_or_else17h7dab898af7057008E', symObjAddr: 0x2C0, symBinAddr: 0x393E4, symSize: 0xDC }
  - { offset: 0x724E7, size: 0x8, addend: 0x0, symName: '__ZN4core6option15Option$LT$T$GT$14unwrap_or_else17h1993f3a6cc4c4726E', symObjAddr: 0x39C, symBinAddr: 0x394C0, symSize: 0x70 }
  - { offset: 0x7254A, size: 0x8, addend: 0x0, symName: '__ZN4core6option15Option$LT$T$GT$14unwrap_or_else17h31427975e7a094a0E', symObjAddr: 0x40C, symBinAddr: 0x39530, symSize: 0x70 }
  - { offset: 0x725AD, size: 0x8, addend: 0x0, symName: '__ZN4core6option15Option$LT$T$GT$14unwrap_or_else17h5f47908af6a0879dE', symObjAddr: 0x47C, symBinAddr: 0x395A0, symSize: 0x70 }
  - { offset: 0x72610, size: 0x8, addend: 0x0, symName: '__ZN4core6option15Option$LT$T$GT$14unwrap_or_else17he98a53a49966dbb0E', symObjAddr: 0x4EC, symBinAddr: 0x39610, symSize: 0x70 }
  - { offset: 0x7267A, size: 0x8, addend: 0x0, symName: '__ZN4core6option15Option$LT$T$GT$3map17h051ae0b55a514b0cE', symObjAddr: 0x55C, symBinAddr: 0x39680, symSize: 0x54 }
  - { offset: 0x726E5, size: 0x8, addend: 0x0, symName: '__ZN4core6option15Option$LT$T$GT$3map17h3430c6462ce9582aE', symObjAddr: 0x5B0, symBinAddr: 0x396D4, symSize: 0x54 }
  - { offset: 0x72750, size: 0x8, addend: 0x0, symName: '__ZN4core6option15Option$LT$T$GT$3map17h444a4758430f0ae3E', symObjAddr: 0x604, symBinAddr: 0x39728, symSize: 0x78 }
  - { offset: 0x727C8, size: 0x8, addend: 0x0, symName: '__ZN4core6option15Option$LT$T$GT$3map17h72f095a78c2106bcE', symObjAddr: 0x67C, symBinAddr: 0x397A0, symSize: 0x50 }
  - { offset: 0x72840, size: 0x8, addend: 0x0, symName: '__ZN4core6option15Option$LT$T$GT$3map17h8d12a03bd0f77405E', symObjAddr: 0x6CC, symBinAddr: 0x397F0, symSize: 0x50 }
  - { offset: 0x728DD, size: 0x8, addend: 0x0, symName: '__ZN4core6option15Option$LT$T$GT$3map17hac2d12aeaf60f48dE', symObjAddr: 0x71C, symBinAddr: 0x39840, symSize: 0x64 }
  - { offset: 0x72948, size: 0x8, addend: 0x0, symName: '__ZN4core6option15Option$LT$T$GT$3map17hcd7e29219c76a724E', symObjAddr: 0x780, symBinAddr: 0x398A4, symSize: 0x78 }
  - { offset: 0x729DE, size: 0x8, addend: 0x0, symName: '__ZN4core6option15Option$LT$T$GT$3map17hdfc43c8eb0d65536E', symObjAddr: 0x7F8, symBinAddr: 0x3991C, symSize: 0x68 }
  - { offset: 0x72A49, size: 0x8, addend: 0x0, symName: '__ZN4core6option15Option$LT$T$GT$3map17he60536ec899634c5E', symObjAddr: 0x860, symBinAddr: 0x39984, symSize: 0x68 }
  - { offset: 0x72AC1, size: 0x8, addend: 0x0, symName: '__ZN4core6option15Option$LT$T$GT$3map17hf7efa51495fae938E', symObjAddr: 0x8C8, symBinAddr: 0x399EC, symSize: 0x58 }
  - { offset: 0x72B39, size: 0x8, addend: 0x0, symName: '__ZN4core6option15Option$LT$T$GT$4take17h083cd9cf8d8fc0daE', symObjAddr: 0x920, symBinAddr: 0x39A44, symSize: 0x34 }
  - { offset: 0x72C00, size: 0x8, addend: 0x0, symName: '__ZN4core6option15Option$LT$T$GT$6insert17h000da8c008013698E', symObjAddr: 0x954, symBinAddr: 0x39A78, symSize: 0xAC }
  - { offset: 0x72D3F, size: 0x8, addend: 0x0, symName: '__ZN4core6option15Option$LT$T$GT$6insert17h021b1c9b3395c629E', symObjAddr: 0xA00, symBinAddr: 0x39B24, symSize: 0xAC }
  - { offset: 0x72E4E, size: 0x8, addend: 0x0, symName: '__ZN4core6option15Option$LT$T$GT$6insert17h13731e1e1bdce234E', symObjAddr: 0xAAC, symBinAddr: 0x39BD0, symSize: 0xAC }
  - { offset: 0x72F5D, size: 0x8, addend: 0x0, symName: '__ZN4core6option15Option$LT$T$GT$6insert17h374693e65f97013fE', symObjAddr: 0xB58, symBinAddr: 0x39C7C, symSize: 0xAC }
  - { offset: 0x73079, size: 0x8, addend: 0x0, symName: '__ZN4core6option15Option$LT$T$GT$6insert17h3bfa0f1ba92c5b7bE', symObjAddr: 0xC04, symBinAddr: 0x39D28, symSize: 0xAC }
  - { offset: 0x73188, size: 0x8, addend: 0x0, symName: '__ZN4core6option15Option$LT$T$GT$6insert17h4516be5c5eeacaf3E', symObjAddr: 0xCB0, symBinAddr: 0x39DD4, symSize: 0xAC }
  - { offset: 0x73297, size: 0x8, addend: 0x0, symName: '__ZN4core6option15Option$LT$T$GT$6insert17h52778e88a192f7b5E', symObjAddr: 0xD5C, symBinAddr: 0x39E80, symSize: 0xAC }
  - { offset: 0x733A6, size: 0x8, addend: 0x0, symName: '__ZN4core6option15Option$LT$T$GT$6insert17h5be9ff266c992475E', symObjAddr: 0xE08, symBinAddr: 0x39F2C, symSize: 0xAC }
  - { offset: 0x734B5, size: 0x8, addend: 0x0, symName: '__ZN4core6option15Option$LT$T$GT$6insert17h67fbeac0b8aa8a03E', symObjAddr: 0xEB4, symBinAddr: 0x39FD8, symSize: 0xAC }
  - { offset: 0x735C4, size: 0x8, addend: 0x0, symName: '__ZN4core6option15Option$LT$T$GT$6insert17h6b2ec439f14bfebfE', symObjAddr: 0xF60, symBinAddr: 0x3A084, symSize: 0xAC }
  - { offset: 0x736D3, size: 0x8, addend: 0x0, symName: '__ZN4core6option15Option$LT$T$GT$6insert17h6d33abc58d60318cE', symObjAddr: 0x100C, symBinAddr: 0x3A130, symSize: 0xAC }
  - { offset: 0x737E2, size: 0x8, addend: 0x0, symName: '__ZN4core6option15Option$LT$T$GT$6insert17h7c08193e98081310E', symObjAddr: 0x10B8, symBinAddr: 0x3A1DC, symSize: 0xAC }
  - { offset: 0x738F1, size: 0x8, addend: 0x0, symName: '__ZN4core6option15Option$LT$T$GT$6insert17h804abb4a50a9b00dE', symObjAddr: 0x1164, symBinAddr: 0x3A288, symSize: 0x80 }
  - { offset: 0x73A00, size: 0x8, addend: 0x0, symName: '__ZN4core6option15Option$LT$T$GT$6insert17h8fa421c0b980db9aE', symObjAddr: 0x11E4, symBinAddr: 0x3A308, symSize: 0xAC }
  - { offset: 0x73B0F, size: 0x8, addend: 0x0, symName: '__ZN4core6option15Option$LT$T$GT$6insert17h9fbb2f335cea3b5fE', symObjAddr: 0x1290, symBinAddr: 0x3A3B4, symSize: 0xAC }
  - { offset: 0x73C2B, size: 0x8, addend: 0x0, symName: '__ZN4core6option15Option$LT$T$GT$6insert17ha3015c34755edeabE', symObjAddr: 0x133C, symBinAddr: 0x3A460, symSize: 0xAC }
  - { offset: 0x73D7F, size: 0x8, addend: 0x0, symName: '__ZN4core6option15Option$LT$T$GT$6insert17ha4a71258549059c7E', symObjAddr: 0x13E8, symBinAddr: 0x3A50C, symSize: 0xAC }
  - { offset: 0x73E8E, size: 0x8, addend: 0x0, symName: '__ZN4core6option15Option$LT$T$GT$6insert17haf21a85ee5970f30E', symObjAddr: 0x1494, symBinAddr: 0x3A5B8, symSize: 0xAC }
  - { offset: 0x73F9D, size: 0x8, addend: 0x0, symName: '__ZN4core6option15Option$LT$T$GT$6insert17hb287ba5998694dfaE', symObjAddr: 0x1540, symBinAddr: 0x3A664, symSize: 0xAC }
  - { offset: 0x740AC, size: 0x8, addend: 0x0, symName: '__ZN4core6option15Option$LT$T$GT$6insert17hb3aa2d6d7f689d6eE', symObjAddr: 0x15EC, symBinAddr: 0x3A710, symSize: 0xAC }
  - { offset: 0x741BB, size: 0x8, addend: 0x0, symName: '__ZN4core6option15Option$LT$T$GT$6insert17hc1b16aa49bc369d7E', symObjAddr: 0x1698, symBinAddr: 0x3A7BC, symSize: 0xAC }
  - { offset: 0x742CA, size: 0x8, addend: 0x0, symName: '__ZN4core6option15Option$LT$T$GT$6insert17hc259661f08c3db5fE', symObjAddr: 0x1744, symBinAddr: 0x3A868, symSize: 0xAC }
  - { offset: 0x743D9, size: 0x8, addend: 0x0, symName: '__ZN4core6option15Option$LT$T$GT$6insert17hc381cc1b8bc3e27eE', symObjAddr: 0x17F0, symBinAddr: 0x3A914, symSize: 0xAC }
  - { offset: 0x744E8, size: 0x8, addend: 0x0, symName: '__ZN4core6option15Option$LT$T$GT$6insert17hc5bf4fec23a48c97E', symObjAddr: 0x189C, symBinAddr: 0x3A9C0, symSize: 0xAC }
  - { offset: 0x745F7, size: 0x8, addend: 0x0, symName: '__ZN4core6option15Option$LT$T$GT$6insert17hc5ca726b84bf4148E', symObjAddr: 0x1948, symBinAddr: 0x3AA6C, symSize: 0xAC }
  - { offset: 0x74706, size: 0x8, addend: 0x0, symName: '__ZN4core6option15Option$LT$T$GT$6insert17hc78d097db12e2596E', symObjAddr: 0x19F4, symBinAddr: 0x3AB18, symSize: 0xAC }
  - { offset: 0x74815, size: 0x8, addend: 0x0, symName: '__ZN4core6option15Option$LT$T$GT$6insert17hccc6f45f58555060E', symObjAddr: 0x1AA0, symBinAddr: 0x3ABC4, symSize: 0xAC }
  - { offset: 0x74917, size: 0x8, addend: 0x0, symName: '__ZN4core6option15Option$LT$T$GT$6insert17hd09521f0bd949353E', symObjAddr: 0x1B4C, symBinAddr: 0x3AC70, symSize: 0xAC }
  - { offset: 0x74A26, size: 0x8, addend: 0x0, symName: '__ZN4core6option15Option$LT$T$GT$6insert17hd699f6cb861c4c3eE', symObjAddr: 0x1BF8, symBinAddr: 0x3AD1C, symSize: 0xAC }
  - { offset: 0x74B35, size: 0x8, addend: 0x0, symName: '__ZN4core6option15Option$LT$T$GT$6insert17hdd33c79e78ea2f03E', symObjAddr: 0x1CA4, symBinAddr: 0x3ADC8, symSize: 0xAC }
  - { offset: 0x74BDF, size: 0x8, addend: 0x0, symName: '__ZN4core6option15Option$LT$T$GT$6map_or17he7c85f5784d05ef0E', symObjAddr: 0x1D50, symBinAddr: 0x3AE74, symSize: 0xA8 }
  - { offset: 0x74C7A, size: 0x8, addend: 0x0, symName: '__ZN4core6option15Option$LT$T$GT$7is_none17h38d5f7a95c03d3b7E', symObjAddr: 0x1DF8, symBinAddr: 0x3AF1C, symSize: 0x20 }
  - { offset: 0x74CD1, size: 0x8, addend: 0x0, symName: '__ZN4core6option15Option$LT$T$GT$7is_some17h9e91a3dbfdee8dccE', symObjAddr: 0x1E18, symBinAddr: 0x3AF3C, symSize: 0x28 }
  - { offset: 0x74D0A, size: 0x8, addend: 0x0, symName: '__ZN4core6option15Option$LT$T$GT$7is_some17ha30df612120860b4E', symObjAddr: 0x1E40, symBinAddr: 0x3AF64, symSize: 0x24 }
  - { offset: 0x74D43, size: 0x8, addend: 0x0, symName: '__ZN4core6option15Option$LT$T$GT$7replace17hfd1d03066ca5f1f1E', symObjAddr: 0x1E64, symBinAddr: 0x3AF88, symSize: 0x30 }
  - { offset: 0x74D9C, size: 0x8, addend: 0x0, symName: '__ZN4core6option15Option$LT$T$GT$9unwrap_or17h1cdab8690ba4dfccE', symObjAddr: 0x1E94, symBinAddr: 0x3AFB8, symSize: 0x4C }
  - { offset: 0x74DF5, size: 0x8, addend: 0x0, symName: '__ZN4core6option15Option$LT$T$GT$9unwrap_or17h29844a6f1d4cb9a5E', symObjAddr: 0x1EE0, symBinAddr: 0x3B004, symSize: 0x4C }
  - { offset: 0x74E4E, size: 0x8, addend: 0x0, symName: '__ZN4core6option15Option$LT$T$GT$9unwrap_or17h5fd055a068c4f22bE', symObjAddr: 0x1F2C, symBinAddr: 0x3B050, symSize: 0x5C }
  - { offset: 0x74EA7, size: 0x8, addend: 0x0, symName: '__ZN4core6option15Option$LT$T$GT$9unwrap_or17h7d5d197f190f238cE', symObjAddr: 0x1F88, symBinAddr: 0x3B0AC, symSize: 0x48 }
  - { offset: 0x74F00, size: 0x8, addend: 0x0, symName: '__ZN4core6option15Option$LT$T$GT$9unwrap_or17h8e090093b609ac01E', symObjAddr: 0x1FD0, symBinAddr: 0x3B0F4, symSize: 0x48 }
  - { offset: 0x7519F, size: 0x8, addend: 0x0, symName: __ZN9orion_sdr10demodulate3qam10axis_scale17h56dde9725e83a0bcE, symObjAddr: 0x0, symBinAddr: 0x3B32C, symSize: 0xC8 }
  - { offset: 0x751BB, size: 0x8, addend: 0x0, symName: __ZN9orion_sdr10demodulate3qam10axis_scale17h56dde9725e83a0bcE, symObjAddr: 0x0, symBinAddr: 0x3B32C, symSize: 0xC8 }
  - { offset: 0x75219, size: 0x8, addend: 0x0, symName: __ZN9orion_sdr10demodulate3qam21build_threshold_table17h1c5308a589720750E, symObjAddr: 0xC8, symBinAddr: 0x3B3F4, symSize: 0x1F4 }
  - { offset: 0x75307, size: 0x8, addend: 0x0, symName: __ZN9orion_sdr10demodulate3qam8QamDemod3new17h6cbc11f7a0d1abceE, symObjAddr: 0x2BC, symBinAddr: 0x3B5E8, symSize: 0x10 }
  - { offset: 0x75336, size: 0x8, addend: 0x0, symName: __ZN9orion_sdr10demodulate3qam8QamDemod8set_gain17h18686229ab14dc03E, symObjAddr: 0x2CC, symBinAddr: 0x3B5F8, symSize: 0x1C }
  - { offset: 0x753A6, size: 0x8, addend: 0x0, symName: __ZN9orion_sdr4sync10psk31_sync10psk31_sync17h62aa7bb03afb23daE, symObjAddr: 0x0, symBinAddr: 0x3B614, symSize: 0x7E8 }
  - { offset: 0x753C2, size: 0x8, addend: 0x0, symName: __ZN9orion_sdr4sync10psk31_sync10psk31_sync17h62aa7bb03afb23daE, symObjAddr: 0x0, symBinAddr: 0x3B614, symSize: 0x7E8 }
  - { offset: 0x756A3, size: 0x8, addend: 0x0, symName: __ZN9orion_sdr4sync10psk31_sync16record_candidate17hf281b166d0e3570aE, symObjAddr: 0x7E8, symBinAddr: 0x3BDFC, symSize: 0x2AC }
  - { offset: 0x757FB, size: 0x8, addend: 0x0, symName: __ZN9orion_sdr4sync10psk31_sync10median_f3217h0f4dc76f15f9a8b5E, symObjAddr: 0xA94, symBinAddr: 0x3C0A8, symSize: 0x164 }
  - { offset: 0x75DCC, size: 0x8, addend: 0x0, symName: __ZN4core5slice3raw14from_raw_parts17h1b9cf8d52cfb6842E, symObjAddr: 0x0, symBinAddr: 0x3C20C, symSize: 0x5C }
  - { offset: 0x75E6D, size: 0x8, addend: 0x0, symName: __ZN4core5slice3raw14from_raw_parts17h1b9cf8d52cfb6842E, symObjAddr: 0x0, symBinAddr: 0x3C20C, symSize: 0x5C }
  - { offset: 0x75EB0, size: 0x8, addend: 0x0, symName: __ZN4core5slice3raw14from_raw_parts17h6f3a2b5c121b4ff6E, symObjAddr: 0x5C, symBinAddr: 0x3C268, symSize: 0x58 }
  - { offset: 0x75EF3, size: 0x8, addend: 0x0, symName: __ZN4core5slice3raw14from_raw_parts17h8157d6911556bdf6E, symObjAddr: 0xB4, symBinAddr: 0x3C2C0, symSize: 0x58 }
  - { offset: 0x75F36, size: 0x8, addend: 0x0, symName: __ZN4core5slice3raw14from_raw_parts17hab80d12917b6e48fE, symObjAddr: 0x10C, symBinAddr: 0x3C318, symSize: 0x58 }
  - { offset: 0x76357, size: 0x8, addend: 0x0, symName: __ZN9orion_sdr8modulate2am8AmDsbMod3new17h2c0871f12a512bc9E, symObjAddr: 0x0, symBinAddr: 0x3C370, symSize: 0x80 }
  - { offset: 0x76495, size: 0x8, addend: 0x0, symName: __ZN9orion_sdr8modulate2am8AmDsbMod3new17h2c0871f12a512bc9E, symObjAddr: 0x0, symBinAddr: 0x3C370, symSize: 0x80 }
  - { offset: 0x764EE, size: 0x8, addend: 0x0, symName: __ZN9orion_sdr8modulate2am8AmDsbMod8set_gain17h2ee97d6c657b7223E, symObjAddr: 0x80, symBinAddr: 0x3C3F0, symSize: 0x1C }
  - { offset: 0x7651E, size: 0x8, addend: 0x0, symName: __ZN9orion_sdr8modulate2am8AmDsbMod9set_clamp17h51f4a175785c7d2bE, symObjAddr: 0x9C, symBinAddr: 0x3C40C, symSize: 0x1C }
  - { offset: 0x7656C, size: 0x8, addend: 0x0, symName: '__ZN4core3ops8function5impls79_$LT$impl$u20$core..ops..function..FnMut$LT$A$GT$$u20$for$u20$$RF$mut$u20$F$GT$8call_mut17hd45dc0f6096c48c8E', symObjAddr: 0x0, symBinAddr: 0x3C428, symSize: 0x30 }
  - { offset: 0x765B6, size: 0x8, addend: 0x0, symName: '__ZN4core3ops8function5impls79_$LT$impl$u20$core..ops..function..FnMut$LT$A$GT$$u20$for$u20$$RF$mut$u20$F$GT$8call_mut17hd45dc0f6096c48c8E', symObjAddr: 0x0, symBinAddr: 0x3C428, symSize: 0x30 }
  - { offset: 0x7660B, size: 0x8, addend: 0x0, symName: '__ZN4core3ops8function5impls80_$LT$impl$u20$core..ops..function..FnOnce$LT$A$GT$$u20$for$u20$$RF$mut$u20$F$GT$9call_once17h4ca5b21ec1eb6e3cE', symObjAddr: 0x30, symBinAddr: 0x3C458, symSize: 0x34 }
  - { offset: 0x7671A, size: 0x8, addend: 0x0, symName: '__ZN9orion_sdr4util9best_sync28_$u7b$$u7b$closure$u7d$$u7d$17hce9d916702d644a8E', symObjAddr: 0x64, symBinAddr: 0x3C48C, symSize: 0x60 }
  - { offset: 0x7676A, size: 0x8, addend: 0x0, symName: '__ZN9orion_sdr4util9best_sync28_$u7b$$u7b$closure$u7d$$u7d$17h78a238fc8049efa1E', symObjAddr: 0xC4, symBinAddr: 0x3C4EC, symSize: 0xD0 }
  - { offset: 0x767EF, size: 0x8, addend: 0x0, symName: '__ZN9orion_sdr4util9best_sync28_$u7b$$u7b$closure$u7d$$u7d$17h7e8a8250511ba6efE', symObjAddr: 0x194, symBinAddr: 0x3C5BC, symSize: 0x1C }
  - { offset: 0x76A51, size: 0x8, addend: 0x0, symName: '__ZN63_$LT$I$u20$as$u20$core..iter..traits..collect..IntoIterator$GT$9into_iter17h16463dd23523aa42E', symObjAddr: 0x0, symBinAddr: 0x3C5D8, symSize: 0x14 }
  - { offset: 0x76A77, size: 0x8, addend: 0x0, symName: '__ZN63_$LT$I$u20$as$u20$core..iter..traits..collect..IntoIterator$GT$9into_iter17h16463dd23523aa42E', symObjAddr: 0x0, symBinAddr: 0x3C5D8, symSize: 0x14 }
  - { offset: 0x76AC0, size: 0x8, addend: 0x0, symName: '__ZN98_$LT$core..iter..adapters..rev..Rev$LT$I$GT$$u20$as$u20$core..iter..traits..iterator..Iterator$GT$4next17h7b124ca0e2555260E', symObjAddr: 0x14, symBinAddr: 0x3C5EC, symSize: 0x28 }
  - { offset: 0x76BE8, size: 0x8, addend: 0x0, symName: __ZN4core5slice4sort6stable5drift10create_run17h1d773f18e122cfe1E, symObjAddr: 0x0, symBinAddr: 0x3C614, symSize: 0x3A4 }
  - { offset: 0x771FD, size: 0x8, addend: 0x0, symName: __ZN4core5slice4sort6stable5drift10create_run17h1d773f18e122cfe1E, symObjAddr: 0x0, symBinAddr: 0x3C614, symSize: 0x3A4 }
  - { offset: 0x77625, size: 0x8, addend: 0x0, symName: __ZN4core5slice4sort6stable5drift10create_run17h54c2598f6c845ebbE, symObjAddr: 0x3A4, symBinAddr: 0x3C9B8, symSize: 0x3A4 }
  - { offset: 0x77A4D, size: 0x8, addend: 0x0, symName: __ZN4core5slice4sort6stable5drift10create_run17h5b2327a4617ec798E, symObjAddr: 0x748, symBinAddr: 0x3CD5C, symSize: 0x3A4 }
  - { offset: 0x77E75, size: 0x8, addend: 0x0, symName: __ZN4core5slice4sort6stable5drift10create_run17hb409761a84369d42E, symObjAddr: 0xAEC, symBinAddr: 0x3D100, symSize: 0x3A4 }
  - { offset: 0x7829D, size: 0x8, addend: 0x0, symName: __ZN4core5slice4sort6stable5drift10create_run17hdd04602a4f103f9dE, symObjAddr: 0xE90, symBinAddr: 0x3D4A4, symSize: 0x3A4 }
  - { offset: 0x786C5, size: 0x8, addend: 0x0, symName: __ZN4core5slice4sort6stable5drift10create_run17hdd419b59fbef6bb9E, symObjAddr: 0x1234, symBinAddr: 0x3D848, symSize: 0x3A4 }
  - { offset: 0x78AED, size: 0x8, addend: 0x0, symName: __ZN4core5slice4sort6stable5drift16stable_quicksort17h125de6ba62dbb4eeE, symObjAddr: 0x15D8, symBinAddr: 0x3DBEC, symSize: 0xB4 }
  - { offset: 0x78C1F, size: 0x8, addend: 0x0, symName: __ZN4core5slice4sort6stable5drift16stable_quicksort17h2673e654310f3e8eE, symObjAddr: 0x168C, symBinAddr: 0x3DCA0, symSize: 0xB4 }
  - { offset: 0x78D51, size: 0x8, addend: 0x0, symName: __ZN4core5slice4sort6stable5drift16stable_quicksort17h541681bc5c387bccE, symObjAddr: 0x1740, symBinAddr: 0x3DD54, symSize: 0xB4 }
  - { offset: 0x78E83, size: 0x8, addend: 0x0, symName: __ZN4core5slice4sort6stable5drift16stable_quicksort17h617aea7a74369d55E, symObjAddr: 0x17F4, symBinAddr: 0x3DE08, symSize: 0xB4 }
  - { offset: 0x78FB5, size: 0x8, addend: 0x0, symName: __ZN4core5slice4sort6stable5drift16stable_quicksort17h781fbe6df4fee1aeE, symObjAddr: 0x18A8, symBinAddr: 0x3DEBC, symSize: 0xB4 }
  - { offset: 0x790E7, size: 0x8, addend: 0x0, symName: __ZN4core5slice4sort6stable5drift16stable_quicksort17hefdab7d208fc0315E, symObjAddr: 0x195C, symBinAddr: 0x3DF70, symSize: 0xB4 }
  - { offset: 0x79304, size: 0x8, addend: 0x0, symName: __ZN4core5slice4sort6stable5drift4sort17h130b6a955468b838E, symObjAddr: 0x1A10, symBinAddr: 0x3E024, symSize: 0x528 }
  - { offset: 0x79ABA, size: 0x8, addend: 0x0, symName: __ZN4core5slice4sort6stable5drift4sort17h2a9e877b12a9610aE, symObjAddr: 0x1F38, symBinAddr: 0x3E54C, symSize: 0x528 }
  - { offset: 0x7A270, size: 0x8, addend: 0x0, symName: __ZN4core5slice4sort6stable5drift4sort17h5de0bf5a8710369dE, symObjAddr: 0x2460, symBinAddr: 0x3EA74, symSize: 0x528 }
  - { offset: 0x7AA26, size: 0x8, addend: 0x0, symName: __ZN4core5slice4sort6stable5drift4sort17h5e96433108ee97d8E, symObjAddr: 0x2988, symBinAddr: 0x3EF9C, symSize: 0x528 }
  - { offset: 0x7B1DC, size: 0x8, addend: 0x0, symName: __ZN4core5slice4sort6stable5drift4sort17h80a9cfe964b8e44bE, symObjAddr: 0x2EB0, symBinAddr: 0x3F4C4, symSize: 0x528 }
  - { offset: 0x7B992, size: 0x8, addend: 0x0, symName: __ZN4core5slice4sort6stable5drift4sort17h92ffefd29b568e65E, symObjAddr: 0x33D8, symBinAddr: 0x3F9EC, symSize: 0x528 }
  - { offset: 0x7E853, size: 0x8, addend: 0x0, symName: '__ZN4core5slice29_$LT$impl$u20$$u5b$T$u5d$$GT$22split_at_mut_unchecked17h133ad853160fa946E', symObjAddr: 0x0, symBinAddr: 0x3FF14, symSize: 0x100 }
  - { offset: 0x7E8BA, size: 0x8, addend: 0x0, symName: '__ZN4core5slice29_$LT$impl$u20$$u5b$T$u5d$$GT$22split_at_mut_unchecked17h133ad853160fa946E', symObjAddr: 0x0, symBinAddr: 0x3FF14, symSize: 0x100 }
  - { offset: 0x7EA5A, size: 0x8, addend: 0x0, symName: '__ZN4core5slice29_$LT$impl$u20$$u5b$T$u5d$$GT$7reverse17h7aef7056a31d6a5aE', symObjAddr: 0x100, symBinAddr: 0x40014, symSize: 0x114 }
  - { offset: 0x7EC65, size: 0x8, addend: 0x0, symName: '__ZN68_$LT$T$u20$as$u20$core..slice..sort..stable..quicksort..IsFreeze$GT$9is_freeze17h5218742f68a62a5aE', symObjAddr: 0x3C4, symBinAddr: 0x402D8, symSize: 0xC }
  - { offset: 0x7EF19, size: 0x8, addend: 0x0, symName: '__ZN9orion_sdr4sync6costas15find_candidates28_$u7b$$u7b$closure$u7d$$u7d$17h02aaa9974524b354E', symObjAddr: 0x3D0, symBinAddr: 0x402E4, symSize: 0x5C }
  - { offset: 0x7EF7A, size: 0x8, addend: 0x0, symName: '__ZN9orion_sdr4sync6costas15find_candidates28_$u7b$$u7b$closure$u7d$$u7d$17h453c60ea3a295114E', symObjAddr: 0x42C, symBinAddr: 0x40340, symSize: 0x5C }
  - { offset: 0x7EFDB, size: 0x8, addend: 0x0, symName: '__ZN9orion_sdr4sync6costas15find_candidates28_$u7b$$u7b$closure$u7d$$u7d$17hb3fcea16eda80766E', symObjAddr: 0x488, symBinAddr: 0x4039C, symSize: 0x5C }
  - { offset: 0x7F0EC, size: 0x8, addend: 0x0, symName: '__ZN5alloc5slice29_$LT$impl$u20$$u5b$T$u5d$$GT$7sort_by17h47b20d45e990969bE', symObjAddr: 0x214, symBinAddr: 0x40128, symSize: 0x48 }
  - { offset: 0x7F134, size: 0x8, addend: 0x0, symName: '__ZN5alloc5slice29_$LT$impl$u20$$u5b$T$u5d$$GT$7sort_by17h4cfbf0384c41cfceE', symObjAddr: 0x25C, symBinAddr: 0x40170, symSize: 0x48 }
  - { offset: 0x7F17C, size: 0x8, addend: 0x0, symName: '__ZN5alloc5slice29_$LT$impl$u20$$u5b$T$u5d$$GT$7sort_by17h51bffbbbab33df2aE', symObjAddr: 0x2A4, symBinAddr: 0x401B8, symSize: 0x48 }
  - { offset: 0x7F1C4, size: 0x8, addend: 0x0, symName: '__ZN5alloc5slice29_$LT$impl$u20$$u5b$T$u5d$$GT$7sort_by17he905732d30b010bfE', symObjAddr: 0x2EC, symBinAddr: 0x40200, symSize: 0x48 }
  - { offset: 0x7F20C, size: 0x8, addend: 0x0, symName: '__ZN5alloc5slice29_$LT$impl$u20$$u5b$T$u5d$$GT$7sort_by17hf51ebf6d3939c2a2E', symObjAddr: 0x334, symBinAddr: 0x40248, symSize: 0x48 }
  - { offset: 0x7F254, size: 0x8, addend: 0x0, symName: '__ZN5alloc5slice29_$LT$impl$u20$$u5b$T$u5d$$GT$7sort_by17hf580c8e40ef09078E', symObjAddr: 0x37C, symBinAddr: 0x40290, symSize: 0x48 }
  - { offset: 0x7F383, size: 0x8, addend: 0x0, symName: __ZN5alloc6string6String3new17h0e71a1d1a0cb0b7bE, symObjAddr: 0x0, symBinAddr: 0x403F8, symSize: 0x30 }
  - { offset: 0x7FA3A, size: 0x8, addend: 0x0, symName: '__ZN65_$LT$alloc..string..String$u20$as$u20$core..ops..deref..Deref$GT$5deref17hfbb1bb66a6be1b5dE', symObjAddr: 0x1F8, symBinAddr: 0x405F0, symSize: 0x24 }
  - { offset: 0x7FA6E, size: 0x8, addend: 0x0, symName: '__ZN76_$LT$alloc..string..String$u20$as$u20$core..convert..From$LT$$RF$str$GT$$GT$4from17hd7632e9e259a0960E', symObjAddr: 0x21C, symBinAddr: 0x40614, symSize: 0x50 }
  - { offset: 0x7FC48, size: 0x8, addend: 0x0, symName: __ZN5alloc6string6String3new17h0e71a1d1a0cb0b7bE, symObjAddr: 0x0, symBinAddr: 0x403F8, symSize: 0x30 }
  - { offset: 0x7FE0A, size: 0x8, addend: 0x0, symName: __ZN5alloc6string6String4push17hbefd56bfaead7719E, symObjAddr: 0x30, symBinAddr: 0x40428, symSize: 0xF8 }
  - { offset: 0x800D3, size: 0x8, addend: 0x0, symName: __ZN5alloc6string6String6as_str17h5df4b49b7dde5bf3E, symObjAddr: 0x128, symBinAddr: 0x40520, symSize: 0x78 }
  - { offset: 0x802BC, size: 0x8, addend: 0x0, symName: __ZN5alloc6string6String8push_str17h2eb3389f067c3e63E, symObjAddr: 0x1A0, symBinAddr: 0x40598, symSize: 0x58 }
  - { offset: 0x80447, size: 0x8, addend: 0x0, symName: '__ZN11num_complex16Complex$LT$T$GT$3new17hd7d71bc307fcf493E', symObjAddr: 0x0, symBinAddr: 0x40664, symSize: 0x14 }
  - { offset: 0x804EC, size: 0x8, addend: 0x0, symName: '__ZN11num_complex8opassign87_$LT$impl$u20$core..ops..arith..AddAssign$u20$for$u20$num_complex..Complex$LT$T$GT$$GT$10add_assign17h465c09167b267d75E', symObjAddr: 0x238, symBinAddr: 0x4089C, symSize: 0x90 }
  - { offset: 0x80535, size: 0x8, addend: 0x0, symName: '__ZN68_$LT$num_complex..Complex$LT$T$GT$$u20$as$u20$core..clone..Clone$GT$5clone17h747f9211ec3ad55fE', symObjAddr: 0x400, symBinAddr: 0x40A64, symSize: 0x40 }
  - { offset: 0x805AA, size: 0x8, addend: 0x0, symName: '__ZN71_$LT$num_complex..Complex$LT$T$GT$$u20$as$u20$core..ops..arith..Mul$GT$3mul17hb6393ef4cab1b255E', symObjAddr: 0x440, symBinAddr: 0x40AA4, symSize: 0x2D4 }
  - { offset: 0x806A3, size: 0x8, addend: 0x0, symName: '__ZN80_$LT$num_complex..Complex$LT$T$GT$$u20$as$u20$core..ops..arith..Mul$LT$T$GT$$GT$3mul17hd24dec5381fb2102E', symObjAddr: 0x714, symBinAddr: 0x40D78, symSize: 0x140 }
  - { offset: 0x80710, size: 0x8, addend: 0x0, symName: '__ZN11num_complex16Complex$LT$T$GT$3new17hd7d71bc307fcf493E', symObjAddr: 0x0, symBinAddr: 0x40664, symSize: 0x14 }
  - { offset: 0x80788, size: 0x8, addend: 0x0, symName: '__ZN4core5slice29_$LT$impl$u20$$u5b$T$u5d$$GT$4iter17hd9bc6c3138f0e900E', symObjAddr: 0x2C8, symBinAddr: 0x4092C, symSize: 0x28 }
  - { offset: 0x807BF, size: 0x8, addend: 0x0, symName: '__ZN4core5slice29_$LT$impl$u20$$u5b$T$u5d$$GT$8is_empty17h95db2e11f24738a5E', symObjAddr: 0x2F0, symBinAddr: 0x40954, symSize: 0x1C }
  - { offset: 0x80A23, size: 0x8, addend: 0x0, symName: '__ZN11num_complex16Complex$LT$T$GT$4conj17h9d22728b39c6d46bE', symObjAddr: 0x14, symBinAddr: 0x40678, symSize: 0xB0 }
  - { offset: 0x80A88, size: 0x8, addend: 0x0, symName: '__ZN11num_complex16Complex$LT$T$GT$8norm_sqr17h42312619a8800213E', symObjAddr: 0xC4, symBinAddr: 0x40728, symSize: 0x174 }
  - { offset: 0x80D17, size: 0x8, addend: 0x0, symName: '__ZN62_$LT$T$u20$as$u20$alloc..vec..spec_from_elem..SpecFromElem$GT$9from_elem17hb9408d52a78f699fE', symObjAddr: 0x30C, symBinAddr: 0x40970, symSize: 0xF4 }
  - { offset: 0x80DE0, size: 0x8, addend: 0x0, symName: '__ZN87_$LT$T$u20$as$u20$alloc..slice..$LT$impl$u20$$u5b$T$u5d$$GT$..to_vec_in..ConvertVec$GT$6to_vec17hec6c65e025310aa7E', symObjAddr: 0x854, symBinAddr: 0x40EB8, symSize: 0xE8 }
  - { offset: 0x81215, size: 0x8, addend: 0x0, symName: '__ZN52_$LT$char$u20$as$u20$core..str..pattern..Pattern$GT$12is_prefix_of17h15ea26a9adbd98f3E', symObjAddr: 0x0, symBinAddr: 0x40FA0, symSize: 0x78 }
  - { offset: 0x813EA, size: 0x8, addend: 0x0, symName: '__ZN55_$LT$$RF$str$u20$as$u20$core..str..pattern..Pattern$GT$12is_prefix_of17h129326291874a774E', symObjAddr: 0x204, symBinAddr: 0x411A4, symSize: 0x4C }
  - { offset: 0x81427, size: 0x8, addend: 0x0, symName: '__ZN55_$LT$$RF$str$u20$as$u20$core..str..pattern..Pattern$GT$12is_suffix_of17h135b5e7fc3f84e6eE', symObjAddr: 0x250, symBinAddr: 0x411F0, symSize: 0x4C }
  - { offset: 0x8146A, size: 0x8, addend: 0x0, symName: '__ZN52_$LT$char$u20$as$u20$core..str..pattern..Pattern$GT$12is_prefix_of17h15ea26a9adbd98f3E', symObjAddr: 0x0, symBinAddr: 0x40FA0, symSize: 0x78 }
  - { offset: 0x81511, size: 0x8, addend: 0x0, symName: '__ZN52_$LT$char$u20$as$u20$core..str..pattern..Pattern$GT$12is_suffix_of17h36395ddc959e4ae3E', symObjAddr: 0x78, symBinAddr: 0x41018, symSize: 0x78 }
  - { offset: 0x815B8, size: 0x8, addend: 0x0, symName: '__ZN52_$LT$char$u20$as$u20$core..str..pattern..Pattern$GT$13into_searcher17h51f7198a8396db48E', symObjAddr: 0xF0, symBinAddr: 0x41090, symSize: 0x114 }
  - { offset: 0x816D6, size: 0x8, addend: 0x0, symName: '__ZN81_$LT$core..str..pattern..CharSearcher$u20$as$u20$core..str..pattern..Searcher$GT$4next17h80637147624a48b0E', symObjAddr: 0x29C, symBinAddr: 0x4123C, symSize: 0x1E4 }
  - { offset: 0x81998, size: 0x8, addend: 0x0, symName: '__ZN88_$LT$core..str..pattern..CharSearcher$u20$as$u20$core..str..pattern..ReverseSearcher$GT$9next_back17h25abbbc999f1febaE', symObjAddr: 0x480, symBinAddr: 0x41420, symSize: 0x1E4 }
  - { offset: 0x826A5, size: 0x8, addend: 0x0, symName: '__ZN100_$LT$pyo3..pycell..impl_..MutableClass$u20$as$u20$pyo3..pycell..impl_..GetBorrowChecker$LT$T$GT$$GT$14borrow_checker17h147427fd257ccee8E', symObjAddr: 0x0, symBinAddr: 0x41604, symSize: 0x28 }
  - { offset: 0x8274B, size: 0x8, addend: 0x0, symName: '__ZN100_$LT$pyo3..pycell..impl_..MutableClass$u20$as$u20$pyo3..pycell..impl_..GetBorrowChecker$LT$T$GT$$GT$14borrow_checker17h147427fd257ccee8E', symObjAddr: 0x0, symBinAddr: 0x41604, symSize: 0x28 }
  - { offset: 0x82780, size: 0x8, addend: 0x0, symName: '__ZN100_$LT$pyo3..pycell..impl_..MutableClass$u20$as$u20$pyo3..pycell..impl_..GetBorrowChecker$LT$T$GT$$GT$14borrow_checker17h1d263d6da428cefbE', symObjAddr: 0x28, symBinAddr: 0x4162C, symSize: 0x28 }
  - { offset: 0x827B5, size: 0x8, addend: 0x0, symName: '__ZN100_$LT$pyo3..pycell..impl_..MutableClass$u20$as$u20$pyo3..pycell..impl_..GetBorrowChecker$LT$T$GT$$GT$14borrow_checker17h268174791c679109E', symObjAddr: 0x50, symBinAddr: 0x41654, symSize: 0x28 }
  - { offset: 0x827EA, size: 0x8, addend: 0x0, symName: '__ZN100_$LT$pyo3..pycell..impl_..MutableClass$u20$as$u20$pyo3..pycell..impl_..GetBorrowChecker$LT$T$GT$$GT$14borrow_checker17h2e10316ccf7417abE', symObjAddr: 0x78, symBinAddr: 0x4167C, symSize: 0x28 }
  - { offset: 0x8281F, size: 0x8, addend: 0x0, symName: '__ZN100_$LT$pyo3..pycell..impl_..MutableClass$u20$as$u20$pyo3..pycell..impl_..GetBorrowChecker$LT$T$GT$$GT$14borrow_checker17h39028cd1175c2095E', symObjAddr: 0xA0, symBinAddr: 0x416A4, symSize: 0x28 }
  - { offset: 0x82854, size: 0x8, addend: 0x0, symName: '__ZN100_$LT$pyo3..pycell..impl_..MutableClass$u20$as$u20$pyo3..pycell..impl_..GetBorrowChecker$LT$T$GT$$GT$14borrow_checker17h402cccd9f1a3b79dE', symObjAddr: 0xC8, symBinAddr: 0x416CC, symSize: 0x28 }
  - { offset: 0x82889, size: 0x8, addend: 0x0, symName: '__ZN100_$LT$pyo3..pycell..impl_..MutableClass$u20$as$u20$pyo3..pycell..impl_..GetBorrowChecker$LT$T$GT$$GT$14borrow_checker17h5c8c9daa79689cc1E', symObjAddr: 0xF0, symBinAddr: 0x416F4, symSize: 0x28 }
  - { offset: 0x828BE, size: 0x8, addend: 0x0, symName: '__ZN100_$LT$pyo3..pycell..impl_..MutableClass$u20$as$u20$pyo3..pycell..impl_..GetBorrowChecker$LT$T$GT$$GT$14borrow_checker17h61f34f964eaed01dE', symObjAddr: 0x118, symBinAddr: 0x4171C, symSize: 0x28 }
  - { offset: 0x828F3, size: 0x8, addend: 0x0, symName: '__ZN100_$LT$pyo3..pycell..impl_..MutableClass$u20$as$u20$pyo3..pycell..impl_..GetBorrowChecker$LT$T$GT$$GT$14borrow_checker17h67e1221f862e9760E', symObjAddr: 0x140, symBinAddr: 0x41744, symSize: 0x28 }
  - { offset: 0x82928, size: 0x8, addend: 0x0, symName: '__ZN100_$LT$pyo3..pycell..impl_..MutableClass$u20$as$u20$pyo3..pycell..impl_..GetBorrowChecker$LT$T$GT$$GT$14borrow_checker17h68105288eece2a21E', symObjAddr: 0x168, symBinAddr: 0x4176C, symSize: 0x28 }
  - { offset: 0x8295D, size: 0x8, addend: 0x0, symName: '__ZN100_$LT$pyo3..pycell..impl_..MutableClass$u20$as$u20$pyo3..pycell..impl_..GetBorrowChecker$LT$T$GT$$GT$14borrow_checker17h6b1abe0247ea8ee8E', symObjAddr: 0x190, symBinAddr: 0x41794, symSize: 0x28 }
  - { offset: 0x82992, size: 0x8, addend: 0x0, symName: '__ZN100_$LT$pyo3..pycell..impl_..MutableClass$u20$as$u20$pyo3..pycell..impl_..GetBorrowChecker$LT$T$GT$$GT$14borrow_checker17h7f8499aee9fe204dE', symObjAddr: 0x1B8, symBinAddr: 0x417BC, symSize: 0x28 }
  - { offset: 0x829C7, size: 0x8, addend: 0x0, symName: '__ZN100_$LT$pyo3..pycell..impl_..MutableClass$u20$as$u20$pyo3..pycell..impl_..GetBorrowChecker$LT$T$GT$$GT$14borrow_checker17h8239cf2a466af817E', symObjAddr: 0x1E0, symBinAddr: 0x417E4, symSize: 0x28 }
  - { offset: 0x829FC, size: 0x8, addend: 0x0, symName: '__ZN100_$LT$pyo3..pycell..impl_..MutableClass$u20$as$u20$pyo3..pycell..impl_..GetBorrowChecker$LT$T$GT$$GT$14borrow_checker17h9574483068565177E', symObjAddr: 0x208, symBinAddr: 0x4180C, symSize: 0x28 }
  - { offset: 0x82A31, size: 0x8, addend: 0x0, symName: '__ZN100_$LT$pyo3..pycell..impl_..MutableClass$u20$as$u20$pyo3..pycell..impl_..GetBorrowChecker$LT$T$GT$$GT$14borrow_checker17ha0bca5916da03d92E', symObjAddr: 0x230, symBinAddr: 0x41834, symSize: 0x28 }
  - { offset: 0x82A66, size: 0x8, addend: 0x0, symName: '__ZN100_$LT$pyo3..pycell..impl_..MutableClass$u20$as$u20$pyo3..pycell..impl_..GetBorrowChecker$LT$T$GT$$GT$14borrow_checker17ha2c3307a3bef6d37E', symObjAddr: 0x258, symBinAddr: 0x4185C, symSize: 0x28 }
  - { offset: 0x82A9B, size: 0x8, addend: 0x0, symName: '__ZN100_$LT$pyo3..pycell..impl_..MutableClass$u20$as$u20$pyo3..pycell..impl_..GetBorrowChecker$LT$T$GT$$GT$14borrow_checker17hac081d8354cc6045E', symObjAddr: 0x280, symBinAddr: 0x41884, symSize: 0x24 }
  - { offset: 0x82AD0, size: 0x8, addend: 0x0, symName: '__ZN100_$LT$pyo3..pycell..impl_..MutableClass$u20$as$u20$pyo3..pycell..impl_..GetBorrowChecker$LT$T$GT$$GT$14borrow_checker17haf8a7cdf70cf8433E', symObjAddr: 0x2A4, symBinAddr: 0x418A8, symSize: 0x28 }
  - { offset: 0x82B05, size: 0x8, addend: 0x0, symName: '__ZN100_$LT$pyo3..pycell..impl_..MutableClass$u20$as$u20$pyo3..pycell..impl_..GetBorrowChecker$LT$T$GT$$GT$14borrow_checker17hbc4fef2e133cedf7E', symObjAddr: 0x2CC, symBinAddr: 0x418D0, symSize: 0x28 }
  - { offset: 0x82B3A, size: 0x8, addend: 0x0, symName: '__ZN100_$LT$pyo3..pycell..impl_..MutableClass$u20$as$u20$pyo3..pycell..impl_..GetBorrowChecker$LT$T$GT$$GT$14borrow_checker17hc1cae635ab20258aE', symObjAddr: 0x2F4, symBinAddr: 0x418F8, symSize: 0x28 }
  - { offset: 0x82B6F, size: 0x8, addend: 0x0, symName: '__ZN100_$LT$pyo3..pycell..impl_..MutableClass$u20$as$u20$pyo3..pycell..impl_..GetBorrowChecker$LT$T$GT$$GT$14borrow_checker17hc631f7ade2ab0713E', symObjAddr: 0x31C, symBinAddr: 0x41920, symSize: 0x28 }
  - { offset: 0x82BA4, size: 0x8, addend: 0x0, symName: '__ZN100_$LT$pyo3..pycell..impl_..MutableClass$u20$as$u20$pyo3..pycell..impl_..GetBorrowChecker$LT$T$GT$$GT$14borrow_checker17hc78fe6313ee1d277E', symObjAddr: 0x344, symBinAddr: 0x41948, symSize: 0x28 }
  - { offset: 0x82BD9, size: 0x8, addend: 0x0, symName: '__ZN100_$LT$pyo3..pycell..impl_..MutableClass$u20$as$u20$pyo3..pycell..impl_..GetBorrowChecker$LT$T$GT$$GT$14borrow_checker17hd79cf7b1bfadbc8cE', symObjAddr: 0x36C, symBinAddr: 0x41970, symSize: 0x28 }
  - { offset: 0x82C0E, size: 0x8, addend: 0x0, symName: '__ZN100_$LT$pyo3..pycell..impl_..MutableClass$u20$as$u20$pyo3..pycell..impl_..GetBorrowChecker$LT$T$GT$$GT$14borrow_checker17hd8514e589fcda5b2E', symObjAddr: 0x394, symBinAddr: 0x41998, symSize: 0x28 }
  - { offset: 0x82C43, size: 0x8, addend: 0x0, symName: '__ZN100_$LT$pyo3..pycell..impl_..MutableClass$u20$as$u20$pyo3..pycell..impl_..GetBorrowChecker$LT$T$GT$$GT$14borrow_checker17hdf34e41188b013ddE', symObjAddr: 0x3BC, symBinAddr: 0x419C0, symSize: 0x28 }
  - { offset: 0x82C78, size: 0x8, addend: 0x0, symName: '__ZN100_$LT$pyo3..pycell..impl_..MutableClass$u20$as$u20$pyo3..pycell..impl_..GetBorrowChecker$LT$T$GT$$GT$14borrow_checker17he02200fe6b133b35E', symObjAddr: 0x3E4, symBinAddr: 0x419E8, symSize: 0x28 }
  - { offset: 0x82CAD, size: 0x8, addend: 0x0, symName: '__ZN100_$LT$pyo3..pycell..impl_..MutableClass$u20$as$u20$pyo3..pycell..impl_..GetBorrowChecker$LT$T$GT$$GT$14borrow_checker17heb473b0623e7aea7E', symObjAddr: 0x40C, symBinAddr: 0x41A10, symSize: 0x28 }
  - { offset: 0x82CE2, size: 0x8, addend: 0x0, symName: '__ZN100_$LT$pyo3..pycell..impl_..MutableClass$u20$as$u20$pyo3..pycell..impl_..GetBorrowChecker$LT$T$GT$$GT$14borrow_checker17hffff269b2ebbae74E', symObjAddr: 0x434, symBinAddr: 0x41A38, symSize: 0x28 }
  - { offset: 0x82D1D, size: 0x8, addend: 0x0, symName: '__ZN119_$LT$pyo3..pycell..impl_..PyStaticClassObject$LT$T$GT$$u20$as$u20$pyo3..pycell..impl_..PyClassObjectLayout$LT$T$GT$$GT$12contents_mut17h07fdf3cd4cb17ca5E', symObjAddr: 0x45C, symBinAddr: 0x41A60, symSize: 0x14 }
  - { offset: 0x82D54, size: 0x8, addend: 0x0, symName: '__ZN119_$LT$pyo3..pycell..impl_..PyStaticClassObject$LT$T$GT$$u20$as$u20$pyo3..pycell..impl_..PyClassObjectLayout$LT$T$GT$$GT$12contents_mut17h0d55d6416944dc62E', symObjAddr: 0x470, symBinAddr: 0x41A74, symSize: 0x14 }
  - { offset: 0x82D8B, size: 0x8, addend: 0x0, symName: '__ZN119_$LT$pyo3..pycell..impl_..PyStaticClassObject$LT$T$GT$$u20$as$u20$pyo3..pycell..impl_..PyClassObjectLayout$LT$T$GT$$GT$12contents_mut17h217bc81c0e67d1d6E', symObjAddr: 0x484, symBinAddr: 0x41A88, symSize: 0x14 }
  - { offset: 0x82DC2, size: 0x8, addend: 0x0, symName: '__ZN119_$LT$pyo3..pycell..impl_..PyStaticClassObject$LT$T$GT$$u20$as$u20$pyo3..pycell..impl_..PyClassObjectLayout$LT$T$GT$$GT$12contents_mut17h23d9a701d3466ff2E', symObjAddr: 0x498, symBinAddr: 0x41A9C, symSize: 0x14 }
  - { offset: 0x82DF9, size: 0x8, addend: 0x0, symName: '__ZN119_$LT$pyo3..pycell..impl_..PyStaticClassObject$LT$T$GT$$u20$as$u20$pyo3..pycell..impl_..PyClassObjectLayout$LT$T$GT$$GT$12contents_mut17h24c374d876bd98ddE', symObjAddr: 0x4AC, symBinAddr: 0x41AB0, symSize: 0x14 }
  - { offset: 0x82E30, size: 0x8, addend: 0x0, symName: '__ZN119_$LT$pyo3..pycell..impl_..PyStaticClassObject$LT$T$GT$$u20$as$u20$pyo3..pycell..impl_..PyClassObjectLayout$LT$T$GT$$GT$12contents_mut17h26865ff2f26ce3aaE', symObjAddr: 0x4C0, symBinAddr: 0x41AC4, symSize: 0x14 }
  - { offset: 0x82E67, size: 0x8, addend: 0x0, symName: '__ZN119_$LT$pyo3..pycell..impl_..PyStaticClassObject$LT$T$GT$$u20$as$u20$pyo3..pycell..impl_..PyClassObjectLayout$LT$T$GT$$GT$12contents_mut17h2b7f377bde777163E', symObjAddr: 0x4D4, symBinAddr: 0x41AD8, symSize: 0x14 }
  - { offset: 0x82E9E, size: 0x8, addend: 0x0, symName: '__ZN119_$LT$pyo3..pycell..impl_..PyStaticClassObject$LT$T$GT$$u20$as$u20$pyo3..pycell..impl_..PyClassObjectLayout$LT$T$GT$$GT$12contents_mut17h3aff1d39f74ccc02E', symObjAddr: 0x4E8, symBinAddr: 0x41AEC, symSize: 0x14 }
  - { offset: 0x82ED5, size: 0x8, addend: 0x0, symName: '__ZN119_$LT$pyo3..pycell..impl_..PyStaticClassObject$LT$T$GT$$u20$as$u20$pyo3..pycell..impl_..PyClassObjectLayout$LT$T$GT$$GT$12contents_mut17h59ff67e88b6b73d0E', symObjAddr: 0x4FC, symBinAddr: 0x41B00, symSize: 0x14 }
  - { offset: 0x82F0C, size: 0x8, addend: 0x0, symName: '__ZN119_$LT$pyo3..pycell..impl_..PyStaticClassObject$LT$T$GT$$u20$as$u20$pyo3..pycell..impl_..PyClassObjectLayout$LT$T$GT$$GT$12contents_mut17h6870299b6f3aee0eE', symObjAddr: 0x510, symBinAddr: 0x41B14, symSize: 0x14 }
  - { offset: 0x82F43, size: 0x8, addend: 0x0, symName: '__ZN119_$LT$pyo3..pycell..impl_..PyStaticClassObject$LT$T$GT$$u20$as$u20$pyo3..pycell..impl_..PyClassObjectLayout$LT$T$GT$$GT$12contents_mut17h6a276dd80d97ee33E', symObjAddr: 0x524, symBinAddr: 0x41B28, symSize: 0x14 }
  - { offset: 0x82F7A, size: 0x8, addend: 0x0, symName: '__ZN119_$LT$pyo3..pycell..impl_..PyStaticClassObject$LT$T$GT$$u20$as$u20$pyo3..pycell..impl_..PyClassObjectLayout$LT$T$GT$$GT$12contents_mut17h6c1207f1eae75b1eE', symObjAddr: 0x538, symBinAddr: 0x41B3C, symSize: 0x14 }
  - { offset: 0x82FB1, size: 0x8, addend: 0x0, symName: '__ZN119_$LT$pyo3..pycell..impl_..PyStaticClassObject$LT$T$GT$$u20$as$u20$pyo3..pycell..impl_..PyClassObjectLayout$LT$T$GT$$GT$12contents_mut17h70d6a458eaa39450E', symObjAddr: 0x54C, symBinAddr: 0x41B50, symSize: 0x14 }
  - { offset: 0x82FE8, size: 0x8, addend: 0x0, symName: '__ZN119_$LT$pyo3..pycell..impl_..PyStaticClassObject$LT$T$GT$$u20$as$u20$pyo3..pycell..impl_..PyClassObjectLayout$LT$T$GT$$GT$12contents_mut17h733da3355eb5a130E', symObjAddr: 0x560, symBinAddr: 0x41B64, symSize: 0x14 }
  - { offset: 0x8301F, size: 0x8, addend: 0x0, symName: '__ZN119_$LT$pyo3..pycell..impl_..PyStaticClassObject$LT$T$GT$$u20$as$u20$pyo3..pycell..impl_..PyClassObjectLayout$LT$T$GT$$GT$12contents_mut17h768a3b38eac8c6aaE', symObjAddr: 0x574, symBinAddr: 0x41B78, symSize: 0x14 }
  - { offset: 0x83056, size: 0x8, addend: 0x0, symName: '__ZN119_$LT$pyo3..pycell..impl_..PyStaticClassObject$LT$T$GT$$u20$as$u20$pyo3..pycell..impl_..PyClassObjectLayout$LT$T$GT$$GT$12contents_mut17h78f6e47f1c0c4659E', symObjAddr: 0x588, symBinAddr: 0x41B8C, symSize: 0x14 }
  - { offset: 0x8308D, size: 0x8, addend: 0x0, symName: '__ZN119_$LT$pyo3..pycell..impl_..PyStaticClassObject$LT$T$GT$$u20$as$u20$pyo3..pycell..impl_..PyClassObjectLayout$LT$T$GT$$GT$12contents_mut17h79950c07098637a0E', symObjAddr: 0x59C, symBinAddr: 0x41BA0, symSize: 0x14 }
  - { offset: 0x830C4, size: 0x8, addend: 0x0, symName: '__ZN119_$LT$pyo3..pycell..impl_..PyStaticClassObject$LT$T$GT$$u20$as$u20$pyo3..pycell..impl_..PyClassObjectLayout$LT$T$GT$$GT$12contents_mut17h8d1f5aec55f0a9d8E', symObjAddr: 0x5B0, symBinAddr: 0x41BB4, symSize: 0x14 }
  - { offset: 0x830FB, size: 0x8, addend: 0x0, symName: '__ZN119_$LT$pyo3..pycell..impl_..PyStaticClassObject$LT$T$GT$$u20$as$u20$pyo3..pycell..impl_..PyClassObjectLayout$LT$T$GT$$GT$12contents_mut17h90acc8223e77656bE', symObjAddr: 0x5C4, symBinAddr: 0x41BC8, symSize: 0x14 }
  - { offset: 0x83132, size: 0x8, addend: 0x0, symName: '__ZN119_$LT$pyo3..pycell..impl_..PyStaticClassObject$LT$T$GT$$u20$as$u20$pyo3..pycell..impl_..PyClassObjectLayout$LT$T$GT$$GT$12contents_mut17h9cc8df77b839126fE', symObjAddr: 0x5D8, symBinAddr: 0x41BDC, symSize: 0x14 }
  - { offset: 0x83169, size: 0x8, addend: 0x0, symName: '__ZN119_$LT$pyo3..pycell..impl_..PyStaticClassObject$LT$T$GT$$u20$as$u20$pyo3..pycell..impl_..PyClassObjectLayout$LT$T$GT$$GT$12contents_mut17ha2ee84823b2bfd0aE', symObjAddr: 0x5EC, symBinAddr: 0x41BF0, symSize: 0x14 }
  - { offset: 0x831A0, size: 0x8, addend: 0x0, symName: '__ZN119_$LT$pyo3..pycell..impl_..PyStaticClassObject$LT$T$GT$$u20$as$u20$pyo3..pycell..impl_..PyClassObjectLayout$LT$T$GT$$GT$12contents_mut17hb960db9c6445623eE', symObjAddr: 0x600, symBinAddr: 0x41C04, symSize: 0x14 }
  - { offset: 0x831D7, size: 0x8, addend: 0x0, symName: '__ZN119_$LT$pyo3..pycell..impl_..PyStaticClassObject$LT$T$GT$$u20$as$u20$pyo3..pycell..impl_..PyClassObjectLayout$LT$T$GT$$GT$12contents_mut17hc6a7ee32d2003913E', symObjAddr: 0x614, symBinAddr: 0x41C18, symSize: 0x14 }
  - { offset: 0x8320E, size: 0x8, addend: 0x0, symName: '__ZN119_$LT$pyo3..pycell..impl_..PyStaticClassObject$LT$T$GT$$u20$as$u20$pyo3..pycell..impl_..PyClassObjectLayout$LT$T$GT$$GT$12contents_mut17hc780fc2b9d778172E', symObjAddr: 0x628, symBinAddr: 0x41C2C, symSize: 0x14 }
  - { offset: 0x83245, size: 0x8, addend: 0x0, symName: '__ZN119_$LT$pyo3..pycell..impl_..PyStaticClassObject$LT$T$GT$$u20$as$u20$pyo3..pycell..impl_..PyClassObjectLayout$LT$T$GT$$GT$12contents_mut17hec791dd54d05f5daE', symObjAddr: 0x63C, symBinAddr: 0x41C40, symSize: 0x14 }
  - { offset: 0x8327C, size: 0x8, addend: 0x0, symName: '__ZN119_$LT$pyo3..pycell..impl_..PyStaticClassObject$LT$T$GT$$u20$as$u20$pyo3..pycell..impl_..PyClassObjectLayout$LT$T$GT$$GT$12contents_mut17hee0d6b122e7fc357E', symObjAddr: 0x650, symBinAddr: 0x41C54, symSize: 0x14 }
  - { offset: 0x832B3, size: 0x8, addend: 0x0, symName: '__ZN119_$LT$pyo3..pycell..impl_..PyStaticClassObject$LT$T$GT$$u20$as$u20$pyo3..pycell..impl_..PyClassObjectLayout$LT$T$GT$$GT$12contents_mut17hf04612bc5cc592bfE', symObjAddr: 0x664, symBinAddr: 0x41C68, symSize: 0x14 }
  - { offset: 0x832EA, size: 0x8, addend: 0x0, symName: '__ZN119_$LT$pyo3..pycell..impl_..PyStaticClassObject$LT$T$GT$$u20$as$u20$pyo3..pycell..impl_..PyClassObjectLayout$LT$T$GT$$GT$12contents_mut17hf1a3f1dd08ac1cebE', symObjAddr: 0x678, symBinAddr: 0x41C7C, symSize: 0x14 }
  - { offset: 0x83321, size: 0x8, addend: 0x0, symName: '__ZN119_$LT$pyo3..pycell..impl_..PyStaticClassObject$LT$T$GT$$u20$as$u20$pyo3..pycell..impl_..PyClassObjectLayout$LT$T$GT$$GT$12contents_mut17hf1d30d926351c316E', symObjAddr: 0x68C, symBinAddr: 0x41C90, symSize: 0x14 }
  - { offset: 0x83358, size: 0x8, addend: 0x0, symName: '__ZN119_$LT$pyo3..pycell..impl_..PyStaticClassObject$LT$T$GT$$u20$as$u20$pyo3..pycell..impl_..PyClassObjectLayout$LT$T$GT$$GT$12contents_mut17hf3a82e02c5e9accdE', symObjAddr: 0x6A0, symBinAddr: 0x41CA4, symSize: 0x14 }
  - { offset: 0x8338F, size: 0x8, addend: 0x0, symName: '__ZN119_$LT$pyo3..pycell..impl_..PyStaticClassObject$LT$T$GT$$u20$as$u20$pyo3..pycell..impl_..PyClassObjectLayout$LT$T$GT$$GT$14borrow_checker17h0317989e89abadc3E', symObjAddr: 0x6B4, symBinAddr: 0x41CB8, symSize: 0x24 }
  - { offset: 0x833C6, size: 0x8, addend: 0x0, symName: '__ZN119_$LT$pyo3..pycell..impl_..PyStaticClassObject$LT$T$GT$$u20$as$u20$pyo3..pycell..impl_..PyClassObjectLayout$LT$T$GT$$GT$14borrow_checker17h06d6dce3e927f128E', symObjAddr: 0x6D8, symBinAddr: 0x41CDC, symSize: 0x24 }
  - { offset: 0x833FD, size: 0x8, addend: 0x0, symName: '__ZN119_$LT$pyo3..pycell..impl_..PyStaticClassObject$LT$T$GT$$u20$as$u20$pyo3..pycell..impl_..PyClassObjectLayout$LT$T$GT$$GT$14borrow_checker17h1ed7f27a6973c5ffE', symObjAddr: 0x6FC, symBinAddr: 0x41D00, symSize: 0x24 }
  - { offset: 0x83434, size: 0x8, addend: 0x0, symName: '__ZN119_$LT$pyo3..pycell..impl_..PyStaticClassObject$LT$T$GT$$u20$as$u20$pyo3..pycell..impl_..PyClassObjectLayout$LT$T$GT$$GT$14borrow_checker17h284d49a49c1bbc8eE', symObjAddr: 0x720, symBinAddr: 0x41D24, symSize: 0x24 }
  - { offset: 0x8346B, size: 0x8, addend: 0x0, symName: '__ZN119_$LT$pyo3..pycell..impl_..PyStaticClassObject$LT$T$GT$$u20$as$u20$pyo3..pycell..impl_..PyClassObjectLayout$LT$T$GT$$GT$14borrow_checker17h39ae3f084f5efa4bE', symObjAddr: 0x744, symBinAddr: 0x41D48, symSize: 0x24 }
  - { offset: 0x834A2, size: 0x8, addend: 0x0, symName: '__ZN119_$LT$pyo3..pycell..impl_..PyStaticClassObject$LT$T$GT$$u20$as$u20$pyo3..pycell..impl_..PyClassObjectLayout$LT$T$GT$$GT$14borrow_checker17h3f6df8ca3c30e291E', symObjAddr: 0x768, symBinAddr: 0x41D6C, symSize: 0x24 }
  - { offset: 0x834D9, size: 0x8, addend: 0x0, symName: '__ZN119_$LT$pyo3..pycell..impl_..PyStaticClassObject$LT$T$GT$$u20$as$u20$pyo3..pycell..impl_..PyClassObjectLayout$LT$T$GT$$GT$14borrow_checker17h46e50478f4258a62E', symObjAddr: 0x78C, symBinAddr: 0x41D90, symSize: 0x24 }
  - { offset: 0x83510, size: 0x8, addend: 0x0, symName: '__ZN119_$LT$pyo3..pycell..impl_..PyStaticClassObject$LT$T$GT$$u20$as$u20$pyo3..pycell..impl_..PyClassObjectLayout$LT$T$GT$$GT$14borrow_checker17h4e93a79daba43706E', symObjAddr: 0x7B0, symBinAddr: 0x41DB4, symSize: 0x24 }
  - { offset: 0x83547, size: 0x8, addend: 0x0, symName: '__ZN119_$LT$pyo3..pycell..impl_..PyStaticClassObject$LT$T$GT$$u20$as$u20$pyo3..pycell..impl_..PyClassObjectLayout$LT$T$GT$$GT$14borrow_checker17h5796ee3174094e11E', symObjAddr: 0x7D4, symBinAddr: 0x41DD8, symSize: 0x24 }
  - { offset: 0x8357E, size: 0x8, addend: 0x0, symName: '__ZN119_$LT$pyo3..pycell..impl_..PyStaticClassObject$LT$T$GT$$u20$as$u20$pyo3..pycell..impl_..PyClassObjectLayout$LT$T$GT$$GT$14borrow_checker17h60d11a2b87095937E', symObjAddr: 0x7F8, symBinAddr: 0x41DFC, symSize: 0x24 }
  - { offset: 0x835B5, size: 0x8, addend: 0x0, symName: '__ZN119_$LT$pyo3..pycell..impl_..PyStaticClassObject$LT$T$GT$$u20$as$u20$pyo3..pycell..impl_..PyClassObjectLayout$LT$T$GT$$GT$14borrow_checker17h7f60dc678e626b93E', symObjAddr: 0x81C, symBinAddr: 0x41E20, symSize: 0x24 }
  - { offset: 0x835EC, size: 0x8, addend: 0x0, symName: '__ZN119_$LT$pyo3..pycell..impl_..PyStaticClassObject$LT$T$GT$$u20$as$u20$pyo3..pycell..impl_..PyClassObjectLayout$LT$T$GT$$GT$14borrow_checker17h830849745ae0edddE', symObjAddr: 0x840, symBinAddr: 0x41E44, symSize: 0x24 }
  - { offset: 0x83623, size: 0x8, addend: 0x0, symName: '__ZN119_$LT$pyo3..pycell..impl_..PyStaticClassObject$LT$T$GT$$u20$as$u20$pyo3..pycell..impl_..PyClassObjectLayout$LT$T$GT$$GT$14borrow_checker17h893288f2cd552bf3E', symObjAddr: 0x864, symBinAddr: 0x41E68, symSize: 0x24 }
  - { offset: 0x8365A, size: 0x8, addend: 0x0, symName: '__ZN119_$LT$pyo3..pycell..impl_..PyStaticClassObject$LT$T$GT$$u20$as$u20$pyo3..pycell..impl_..PyClassObjectLayout$LT$T$GT$$GT$14borrow_checker17h8f877d074578fd37E', symObjAddr: 0x888, symBinAddr: 0x41E8C, symSize: 0x24 }
  - { offset: 0x83691, size: 0x8, addend: 0x0, symName: '__ZN119_$LT$pyo3..pycell..impl_..PyStaticClassObject$LT$T$GT$$u20$as$u20$pyo3..pycell..impl_..PyClassObjectLayout$LT$T$GT$$GT$14borrow_checker17h9faec2c186646f04E', symObjAddr: 0x8AC, symBinAddr: 0x41EB0, symSize: 0x24 }
  - { offset: 0x836C8, size: 0x8, addend: 0x0, symName: '__ZN119_$LT$pyo3..pycell..impl_..PyStaticClassObject$LT$T$GT$$u20$as$u20$pyo3..pycell..impl_..PyClassObjectLayout$LT$T$GT$$GT$14borrow_checker17ha27f367060791fdeE', symObjAddr: 0x8D0, symBinAddr: 0x41ED4, symSize: 0x24 }
  - { offset: 0x836FF, size: 0x8, addend: 0x0, symName: '__ZN119_$LT$pyo3..pycell..impl_..PyStaticClassObject$LT$T$GT$$u20$as$u20$pyo3..pycell..impl_..PyClassObjectLayout$LT$T$GT$$GT$14borrow_checker17ha62368549629ff6cE', symObjAddr: 0x8F4, symBinAddr: 0x41EF8, symSize: 0x24 }
  - { offset: 0x83736, size: 0x8, addend: 0x0, symName: '__ZN119_$LT$pyo3..pycell..impl_..PyStaticClassObject$LT$T$GT$$u20$as$u20$pyo3..pycell..impl_..PyClassObjectLayout$LT$T$GT$$GT$14borrow_checker17hb7be651b75b986f4E', symObjAddr: 0x918, symBinAddr: 0x41F1C, symSize: 0x24 }
  - { offset: 0x8376D, size: 0x8, addend: 0x0, symName: '__ZN119_$LT$pyo3..pycell..impl_..PyStaticClassObject$LT$T$GT$$u20$as$u20$pyo3..pycell..impl_..PyClassObjectLayout$LT$T$GT$$GT$14borrow_checker17hc3b9594374bde678E', symObjAddr: 0x93C, symBinAddr: 0x41F40, symSize: 0x24 }
  - { offset: 0x837A4, size: 0x8, addend: 0x0, symName: '__ZN119_$LT$pyo3..pycell..impl_..PyStaticClassObject$LT$T$GT$$u20$as$u20$pyo3..pycell..impl_..PyClassObjectLayout$LT$T$GT$$GT$14borrow_checker17hc9fc9074496277c5E', symObjAddr: 0x960, symBinAddr: 0x41F64, symSize: 0x24 }
  - { offset: 0x837DB, size: 0x8, addend: 0x0, symName: '__ZN119_$LT$pyo3..pycell..impl_..PyStaticClassObject$LT$T$GT$$u20$as$u20$pyo3..pycell..impl_..PyClassObjectLayout$LT$T$GT$$GT$14borrow_checker17hcb97d1b917ef8275E', symObjAddr: 0x984, symBinAddr: 0x41F88, symSize: 0x24 }
  - { offset: 0x83812, size: 0x8, addend: 0x0, symName: '__ZN119_$LT$pyo3..pycell..impl_..PyStaticClassObject$LT$T$GT$$u20$as$u20$pyo3..pycell..impl_..PyClassObjectLayout$LT$T$GT$$GT$14borrow_checker17hd002446e4639e484E', symObjAddr: 0x9A8, symBinAddr: 0x41FAC, symSize: 0x24 }
  - { offset: 0x83849, size: 0x8, addend: 0x0, symName: '__ZN119_$LT$pyo3..pycell..impl_..PyStaticClassObject$LT$T$GT$$u20$as$u20$pyo3..pycell..impl_..PyClassObjectLayout$LT$T$GT$$GT$14borrow_checker17hd82a2a6baf228faaE', symObjAddr: 0x9CC, symBinAddr: 0x41FD0, symSize: 0x24 }
  - { offset: 0x83880, size: 0x8, addend: 0x0, symName: '__ZN119_$LT$pyo3..pycell..impl_..PyStaticClassObject$LT$T$GT$$u20$as$u20$pyo3..pycell..impl_..PyClassObjectLayout$LT$T$GT$$GT$14borrow_checker17he1c9cc34cc043ddbE', symObjAddr: 0x9F0, symBinAddr: 0x41FF4, symSize: 0x24 }
  - { offset: 0x838B7, size: 0x8, addend: 0x0, symName: '__ZN119_$LT$pyo3..pycell..impl_..PyStaticClassObject$LT$T$GT$$u20$as$u20$pyo3..pycell..impl_..PyClassObjectLayout$LT$T$GT$$GT$14borrow_checker17he271ef96b671150aE', symObjAddr: 0xA14, symBinAddr: 0x42018, symSize: 0x24 }
  - { offset: 0x838EE, size: 0x8, addend: 0x0, symName: '__ZN119_$LT$pyo3..pycell..impl_..PyStaticClassObject$LT$T$GT$$u20$as$u20$pyo3..pycell..impl_..PyClassObjectLayout$LT$T$GT$$GT$14borrow_checker17he30448fd12e5dda1E', symObjAddr: 0xA38, symBinAddr: 0x4203C, symSize: 0x24 }
  - { offset: 0x83925, size: 0x8, addend: 0x0, symName: '__ZN119_$LT$pyo3..pycell..impl_..PyStaticClassObject$LT$T$GT$$u20$as$u20$pyo3..pycell..impl_..PyClassObjectLayout$LT$T$GT$$GT$14borrow_checker17he46102908e0890faE', symObjAddr: 0xA5C, symBinAddr: 0x42060, symSize: 0x24 }
  - { offset: 0x8395C, size: 0x8, addend: 0x0, symName: '__ZN119_$LT$pyo3..pycell..impl_..PyStaticClassObject$LT$T$GT$$u20$as$u20$pyo3..pycell..impl_..PyClassObjectLayout$LT$T$GT$$GT$14borrow_checker17he4d9227ce3465be8E', symObjAddr: 0xA80, symBinAddr: 0x42084, symSize: 0x24 }
  - { offset: 0x83993, size: 0x8, addend: 0x0, symName: '__ZN119_$LT$pyo3..pycell..impl_..PyStaticClassObject$LT$T$GT$$u20$as$u20$pyo3..pycell..impl_..PyClassObjectLayout$LT$T$GT$$GT$15contents_uninit17h056f303e2872ae28E', symObjAddr: 0xAA4, symBinAddr: 0x420A8, symSize: 0x1C }
  - { offset: 0x839E8, size: 0x8, addend: 0x0, symName: '__ZN119_$LT$pyo3..pycell..impl_..PyStaticClassObject$LT$T$GT$$u20$as$u20$pyo3..pycell..impl_..PyClassObjectLayout$LT$T$GT$$GT$15contents_uninit17h08846e566b2caf59E', symObjAddr: 0xAC0, symBinAddr: 0x420C4, symSize: 0x1C }
  - { offset: 0x83A3D, size: 0x8, addend: 0x0, symName: '__ZN119_$LT$pyo3..pycell..impl_..PyStaticClassObject$LT$T$GT$$u20$as$u20$pyo3..pycell..impl_..PyClassObjectLayout$LT$T$GT$$GT$15contents_uninit17h0a4c5dc5cfe85345E', symObjAddr: 0xADC, symBinAddr: 0x420E0, symSize: 0x1C }
  - { offset: 0x83A92, size: 0x8, addend: 0x0, symName: '__ZN119_$LT$pyo3..pycell..impl_..PyStaticClassObject$LT$T$GT$$u20$as$u20$pyo3..pycell..impl_..PyClassObjectLayout$LT$T$GT$$GT$15contents_uninit17h0c062331a8735206E', symObjAddr: 0xAF8, symBinAddr: 0x420FC, symSize: 0x1C }
  - { offset: 0x83AE7, size: 0x8, addend: 0x0, symName: '__ZN119_$LT$pyo3..pycell..impl_..PyStaticClassObject$LT$T$GT$$u20$as$u20$pyo3..pycell..impl_..PyClassObjectLayout$LT$T$GT$$GT$15contents_uninit17h19f45b108aade7aaE', symObjAddr: 0xB14, symBinAddr: 0x42118, symSize: 0x1C }
  - { offset: 0x83B3C, size: 0x8, addend: 0x0, symName: '__ZN119_$LT$pyo3..pycell..impl_..PyStaticClassObject$LT$T$GT$$u20$as$u20$pyo3..pycell..impl_..PyClassObjectLayout$LT$T$GT$$GT$15contents_uninit17h1a56ac1e1d06b67cE', symObjAddr: 0xB30, symBinAddr: 0x42134, symSize: 0x1C }
  - { offset: 0x83B91, size: 0x8, addend: 0x0, symName: '__ZN119_$LT$pyo3..pycell..impl_..PyStaticClassObject$LT$T$GT$$u20$as$u20$pyo3..pycell..impl_..PyClassObjectLayout$LT$T$GT$$GT$15contents_uninit17h2d68f1ae821a99b0E', symObjAddr: 0xB4C, symBinAddr: 0x42150, symSize: 0x1C }
  - { offset: 0x83BE6, size: 0x8, addend: 0x0, symName: '__ZN119_$LT$pyo3..pycell..impl_..PyStaticClassObject$LT$T$GT$$u20$as$u20$pyo3..pycell..impl_..PyClassObjectLayout$LT$T$GT$$GT$15contents_uninit17h3182c425748b55cbE', symObjAddr: 0xB68, symBinAddr: 0x4216C, symSize: 0x1C }
  - { offset: 0x83C3B, size: 0x8, addend: 0x0, symName: '__ZN119_$LT$pyo3..pycell..impl_..PyStaticClassObject$LT$T$GT$$u20$as$u20$pyo3..pycell..impl_..PyClassObjectLayout$LT$T$GT$$GT$15contents_uninit17h358e1afe346e4acbE', symObjAddr: 0xB84, symBinAddr: 0x42188, symSize: 0x1C }
  - { offset: 0x83C90, size: 0x8, addend: 0x0, symName: '__ZN119_$LT$pyo3..pycell..impl_..PyStaticClassObject$LT$T$GT$$u20$as$u20$pyo3..pycell..impl_..PyClassObjectLayout$LT$T$GT$$GT$15contents_uninit17h455225ac5028b2acE', symObjAddr: 0xBA0, symBinAddr: 0x421A4, symSize: 0x1C }
  - { offset: 0x83CE5, size: 0x8, addend: 0x0, symName: '__ZN119_$LT$pyo3..pycell..impl_..PyStaticClassObject$LT$T$GT$$u20$as$u20$pyo3..pycell..impl_..PyClassObjectLayout$LT$T$GT$$GT$15contents_uninit17h49579c17f9080ea3E', symObjAddr: 0xBBC, symBinAddr: 0x421C0, symSize: 0x1C }
  - { offset: 0x83D3A, size: 0x8, addend: 0x0, symName: '__ZN119_$LT$pyo3..pycell..impl_..PyStaticClassObject$LT$T$GT$$u20$as$u20$pyo3..pycell..impl_..PyClassObjectLayout$LT$T$GT$$GT$15contents_uninit17h620eb522ca927a86E', symObjAddr: 0xBD8, symBinAddr: 0x421DC, symSize: 0x1C }
  - { offset: 0x83D8F, size: 0x8, addend: 0x0, symName: '__ZN119_$LT$pyo3..pycell..impl_..PyStaticClassObject$LT$T$GT$$u20$as$u20$pyo3..pycell..impl_..PyClassObjectLayout$LT$T$GT$$GT$15contents_uninit17h743f0f2932df5333E', symObjAddr: 0xBF4, symBinAddr: 0x421F8, symSize: 0x1C }
  - { offset: 0x83DE4, size: 0x8, addend: 0x0, symName: '__ZN119_$LT$pyo3..pycell..impl_..PyStaticClassObject$LT$T$GT$$u20$as$u20$pyo3..pycell..impl_..PyClassObjectLayout$LT$T$GT$$GT$15contents_uninit17h77058d109dc056f6E', symObjAddr: 0xC10, symBinAddr: 0x42214, symSize: 0x1C }
  - { offset: 0x83E39, size: 0x8, addend: 0x0, symName: '__ZN119_$LT$pyo3..pycell..impl_..PyStaticClassObject$LT$T$GT$$u20$as$u20$pyo3..pycell..impl_..PyClassObjectLayout$LT$T$GT$$GT$15contents_uninit17h9e1dea2a626cc712E', symObjAddr: 0xC2C, symBinAddr: 0x42230, symSize: 0x1C }
  - { offset: 0x83E8E, size: 0x8, addend: 0x0, symName: '__ZN119_$LT$pyo3..pycell..impl_..PyStaticClassObject$LT$T$GT$$u20$as$u20$pyo3..pycell..impl_..PyClassObjectLayout$LT$T$GT$$GT$15contents_uninit17ha39b755b911a1ffdE', symObjAddr: 0xC48, symBinAddr: 0x4224C, symSize: 0x1C }
  - { offset: 0x83EE3, size: 0x8, addend: 0x0, symName: '__ZN119_$LT$pyo3..pycell..impl_..PyStaticClassObject$LT$T$GT$$u20$as$u20$pyo3..pycell..impl_..PyClassObjectLayout$LT$T$GT$$GT$15contents_uninit17ha45c04a09095d4a2E', symObjAddr: 0xC64, symBinAddr: 0x42268, symSize: 0x1C }
  - { offset: 0x83F38, size: 0x8, addend: 0x0, symName: '__ZN119_$LT$pyo3..pycell..impl_..PyStaticClassObject$LT$T$GT$$u20$as$u20$pyo3..pycell..impl_..PyClassObjectLayout$LT$T$GT$$GT$15contents_uninit17haf4bb94596fbb14cE', symObjAddr: 0xC80, symBinAddr: 0x42284, symSize: 0x1C }
  - { offset: 0x83F8D, size: 0x8, addend: 0x0, symName: '__ZN119_$LT$pyo3..pycell..impl_..PyStaticClassObject$LT$T$GT$$u20$as$u20$pyo3..pycell..impl_..PyClassObjectLayout$LT$T$GT$$GT$15contents_uninit17hb029518a5fcd881cE', symObjAddr: 0xC9C, symBinAddr: 0x422A0, symSize: 0x1C }
  - { offset: 0x83FE2, size: 0x8, addend: 0x0, symName: '__ZN119_$LT$pyo3..pycell..impl_..PyStaticClassObject$LT$T$GT$$u20$as$u20$pyo3..pycell..impl_..PyClassObjectLayout$LT$T$GT$$GT$15contents_uninit17hb4fe625360325f8fE', symObjAddr: 0xCB8, symBinAddr: 0x422BC, symSize: 0x1C }
  - { offset: 0x84037, size: 0x8, addend: 0x0, symName: '__ZN119_$LT$pyo3..pycell..impl_..PyStaticClassObject$LT$T$GT$$u20$as$u20$pyo3..pycell..impl_..PyClassObjectLayout$LT$T$GT$$GT$15contents_uninit17hbddf9004c65d6a61E', symObjAddr: 0xCD4, symBinAddr: 0x422D8, symSize: 0x1C }
  - { offset: 0x8408C, size: 0x8, addend: 0x0, symName: '__ZN119_$LT$pyo3..pycell..impl_..PyStaticClassObject$LT$T$GT$$u20$as$u20$pyo3..pycell..impl_..PyClassObjectLayout$LT$T$GT$$GT$15contents_uninit17hd843cefef1f96e28E', symObjAddr: 0xCF0, symBinAddr: 0x422F4, symSize: 0x1C }
  - { offset: 0x840E1, size: 0x8, addend: 0x0, symName: '__ZN119_$LT$pyo3..pycell..impl_..PyStaticClassObject$LT$T$GT$$u20$as$u20$pyo3..pycell..impl_..PyClassObjectLayout$LT$T$GT$$GT$15contents_uninit17hd8a8b4e33589b0c6E', symObjAddr: 0xD0C, symBinAddr: 0x42310, symSize: 0x1C }
  - { offset: 0x84136, size: 0x8, addend: 0x0, symName: '__ZN119_$LT$pyo3..pycell..impl_..PyStaticClassObject$LT$T$GT$$u20$as$u20$pyo3..pycell..impl_..PyClassObjectLayout$LT$T$GT$$GT$15contents_uninit17he2e2506c1dcfac18E', symObjAddr: 0xD28, symBinAddr: 0x4232C, symSize: 0x1C }
  - { offset: 0x8418B, size: 0x8, addend: 0x0, symName: '__ZN119_$LT$pyo3..pycell..impl_..PyStaticClassObject$LT$T$GT$$u20$as$u20$pyo3..pycell..impl_..PyClassObjectLayout$LT$T$GT$$GT$15contents_uninit17he5de05561f833d5cE', symObjAddr: 0xD44, symBinAddr: 0x42348, symSize: 0x1C }
  - { offset: 0x841E0, size: 0x8, addend: 0x0, symName: '__ZN119_$LT$pyo3..pycell..impl_..PyStaticClassObject$LT$T$GT$$u20$as$u20$pyo3..pycell..impl_..PyClassObjectLayout$LT$T$GT$$GT$15contents_uninit17hf48dda00c0a7c990E', symObjAddr: 0xD60, symBinAddr: 0x42364, symSize: 0x1C }
  - { offset: 0x84235, size: 0x8, addend: 0x0, symName: '__ZN119_$LT$pyo3..pycell..impl_..PyStaticClassObject$LT$T$GT$$u20$as$u20$pyo3..pycell..impl_..PyClassObjectLayout$LT$T$GT$$GT$15contents_uninit17hf8db4920ba5347acE', symObjAddr: 0xD7C, symBinAddr: 0x42380, symSize: 0x1C }
  - { offset: 0x8428A, size: 0x8, addend: 0x0, symName: '__ZN119_$LT$pyo3..pycell..impl_..PyStaticClassObject$LT$T$GT$$u20$as$u20$pyo3..pycell..impl_..PyClassObjectLayout$LT$T$GT$$GT$15contents_uninit17hf9a40e36828abc1cE', symObjAddr: 0xD98, symBinAddr: 0x4239C, symSize: 0x1C }
  - { offset: 0x842DF, size: 0x8, addend: 0x0, symName: '__ZN119_$LT$pyo3..pycell..impl_..PyStaticClassObject$LT$T$GT$$u20$as$u20$pyo3..pycell..impl_..PyClassObjectLayout$LT$T$GT$$GT$15contents_uninit17hfd2fd1811dd63685E', symObjAddr: 0xDB4, symBinAddr: 0x423B8, symSize: 0x1C }
  - { offset: 0x84334, size: 0x8, addend: 0x0, symName: '__ZN119_$LT$pyo3..pycell..impl_..PyStaticClassObject$LT$T$GT$$u20$as$u20$pyo3..pycell..impl_..PyClassObjectLayout$LT$T$GT$$GT$15contents_uninit17hfd8f4e287ab56cfdE', symObjAddr: 0xDD0, symBinAddr: 0x423D4, symSize: 0x1C }
  - { offset: 0x84389, size: 0x8, addend: 0x0, symName: '__ZN119_$LT$pyo3..pycell..impl_..PyStaticClassObject$LT$T$GT$$u20$as$u20$pyo3..pycell..impl_..PyClassObjectLayout$LT$T$GT$$GT$7get_ptr17h0cfa8053da14cf95E', symObjAddr: 0xDEC, symBinAddr: 0x423F0, symSize: 0x24 }
  - { offset: 0x843C0, size: 0x8, addend: 0x0, symName: '__ZN119_$LT$pyo3..pycell..impl_..PyStaticClassObject$LT$T$GT$$u20$as$u20$pyo3..pycell..impl_..PyClassObjectLayout$LT$T$GT$$GT$7get_ptr17h16b90132abbe48d0E', symObjAddr: 0xE10, symBinAddr: 0x42414, symSize: 0x24 }
  - { offset: 0x843F7, size: 0x8, addend: 0x0, symName: '__ZN119_$LT$pyo3..pycell..impl_..PyStaticClassObject$LT$T$GT$$u20$as$u20$pyo3..pycell..impl_..PyClassObjectLayout$LT$T$GT$$GT$7get_ptr17h239c48c6a8de251fE', symObjAddr: 0xE34, symBinAddr: 0x42438, symSize: 0x24 }
  - { offset: 0x8442E, size: 0x8, addend: 0x0, symName: '__ZN119_$LT$pyo3..pycell..impl_..PyStaticClassObject$LT$T$GT$$u20$as$u20$pyo3..pycell..impl_..PyClassObjectLayout$LT$T$GT$$GT$7get_ptr17h379dc00481bce696E', symObjAddr: 0xE58, symBinAddr: 0x4245C, symSize: 0x24 }
  - { offset: 0x84465, size: 0x8, addend: 0x0, symName: '__ZN119_$LT$pyo3..pycell..impl_..PyStaticClassObject$LT$T$GT$$u20$as$u20$pyo3..pycell..impl_..PyClassObjectLayout$LT$T$GT$$GT$7get_ptr17h3d2696f33cdfc359E', symObjAddr: 0xE7C, symBinAddr: 0x42480, symSize: 0x24 }
  - { offset: 0x8449C, size: 0x8, addend: 0x0, symName: '__ZN119_$LT$pyo3..pycell..impl_..PyStaticClassObject$LT$T$GT$$u20$as$u20$pyo3..pycell..impl_..PyClassObjectLayout$LT$T$GT$$GT$7get_ptr17h437b9f6c683f6cf8E', symObjAddr: 0xEA0, symBinAddr: 0x424A4, symSize: 0x24 }
  - { offset: 0x844D3, size: 0x8, addend: 0x0, symName: '__ZN119_$LT$pyo3..pycell..impl_..PyStaticClassObject$LT$T$GT$$u20$as$u20$pyo3..pycell..impl_..PyClassObjectLayout$LT$T$GT$$GT$7get_ptr17h4d74277b84c1bfa2E', symObjAddr: 0xEC4, symBinAddr: 0x424C8, symSize: 0x24 }
  - { offset: 0x8450A, size: 0x8, addend: 0x0, symName: '__ZN119_$LT$pyo3..pycell..impl_..PyStaticClassObject$LT$T$GT$$u20$as$u20$pyo3..pycell..impl_..PyClassObjectLayout$LT$T$GT$$GT$7get_ptr17h51606ad7e2694c4bE', symObjAddr: 0xEE8, symBinAddr: 0x424EC, symSize: 0x24 }
  - { offset: 0x84541, size: 0x8, addend: 0x0, symName: '__ZN119_$LT$pyo3..pycell..impl_..PyStaticClassObject$LT$T$GT$$u20$as$u20$pyo3..pycell..impl_..PyClassObjectLayout$LT$T$GT$$GT$7get_ptr17h54255a8910282673E', symObjAddr: 0xF0C, symBinAddr: 0x42510, symSize: 0x24 }
  - { offset: 0x84578, size: 0x8, addend: 0x0, symName: '__ZN119_$LT$pyo3..pycell..impl_..PyStaticClassObject$LT$T$GT$$u20$as$u20$pyo3..pycell..impl_..PyClassObjectLayout$LT$T$GT$$GT$7get_ptr17h5b46e917f6ccac97E', symObjAddr: 0xF30, symBinAddr: 0x42534, symSize: 0x24 }
  - { offset: 0x845AF, size: 0x8, addend: 0x0, symName: '__ZN119_$LT$pyo3..pycell..impl_..PyStaticClassObject$LT$T$GT$$u20$as$u20$pyo3..pycell..impl_..PyClassObjectLayout$LT$T$GT$$GT$7get_ptr17h5d0d673bcd129e61E', symObjAddr: 0xF54, symBinAddr: 0x42558, symSize: 0x24 }
  - { offset: 0x845E6, size: 0x8, addend: 0x0, symName: '__ZN119_$LT$pyo3..pycell..impl_..PyStaticClassObject$LT$T$GT$$u20$as$u20$pyo3..pycell..impl_..PyClassObjectLayout$LT$T$GT$$GT$7get_ptr17h6548fe0ed9f04692E', symObjAddr: 0xF78, symBinAddr: 0x4257C, symSize: 0x24 }
  - { offset: 0x8461D, size: 0x8, addend: 0x0, symName: '__ZN119_$LT$pyo3..pycell..impl_..PyStaticClassObject$LT$T$GT$$u20$as$u20$pyo3..pycell..impl_..PyClassObjectLayout$LT$T$GT$$GT$7get_ptr17h6a4b37f15e7fa2f1E', symObjAddr: 0xF9C, symBinAddr: 0x425A0, symSize: 0x24 }
  - { offset: 0x84654, size: 0x8, addend: 0x0, symName: '__ZN119_$LT$pyo3..pycell..impl_..PyStaticClassObject$LT$T$GT$$u20$as$u20$pyo3..pycell..impl_..PyClassObjectLayout$LT$T$GT$$GT$7get_ptr17h6ba97d03d7a1e1a7E', symObjAddr: 0xFC0, symBinAddr: 0x425C4, symSize: 0x24 }
  - { offset: 0x8468B, size: 0x8, addend: 0x0, symName: '__ZN119_$LT$pyo3..pycell..impl_..PyStaticClassObject$LT$T$GT$$u20$as$u20$pyo3..pycell..impl_..PyClassObjectLayout$LT$T$GT$$GT$7get_ptr17h6e8dc47451a78959E', symObjAddr: 0xFE4, symBinAddr: 0x425E8, symSize: 0x24 }
  - { offset: 0x846C2, size: 0x8, addend: 0x0, symName: '__ZN119_$LT$pyo3..pycell..impl_..PyStaticClassObject$LT$T$GT$$u20$as$u20$pyo3..pycell..impl_..PyClassObjectLayout$LT$T$GT$$GT$7get_ptr17h76db820622530212E', symObjAddr: 0x1008, symBinAddr: 0x4260C, symSize: 0x24 }
  - { offset: 0x846F9, size: 0x8, addend: 0x0, symName: '__ZN119_$LT$pyo3..pycell..impl_..PyStaticClassObject$LT$T$GT$$u20$as$u20$pyo3..pycell..impl_..PyClassObjectLayout$LT$T$GT$$GT$7get_ptr17h775e0122b393e5d8E', symObjAddr: 0x102C, symBinAddr: 0x42630, symSize: 0x24 }
  - { offset: 0x84730, size: 0x8, addend: 0x0, symName: '__ZN119_$LT$pyo3..pycell..impl_..PyStaticClassObject$LT$T$GT$$u20$as$u20$pyo3..pycell..impl_..PyClassObjectLayout$LT$T$GT$$GT$7get_ptr17h829f519cc4daaf54E', symObjAddr: 0x1050, symBinAddr: 0x42654, symSize: 0x24 }
  - { offset: 0x84767, size: 0x8, addend: 0x0, symName: '__ZN119_$LT$pyo3..pycell..impl_..PyStaticClassObject$LT$T$GT$$u20$as$u20$pyo3..pycell..impl_..PyClassObjectLayout$LT$T$GT$$GT$7get_ptr17h85439489d0d1db6cE', symObjAddr: 0x1074, symBinAddr: 0x42678, symSize: 0x24 }
  - { offset: 0x8479E, size: 0x8, addend: 0x0, symName: '__ZN119_$LT$pyo3..pycell..impl_..PyStaticClassObject$LT$T$GT$$u20$as$u20$pyo3..pycell..impl_..PyClassObjectLayout$LT$T$GT$$GT$7get_ptr17h91a29239179f897dE', symObjAddr: 0x1098, symBinAddr: 0x4269C, symSize: 0x24 }
  - { offset: 0x847D5, size: 0x8, addend: 0x0, symName: '__ZN119_$LT$pyo3..pycell..impl_..PyStaticClassObject$LT$T$GT$$u20$as$u20$pyo3..pycell..impl_..PyClassObjectLayout$LT$T$GT$$GT$7get_ptr17haa7528b8c855f254E', symObjAddr: 0x10BC, symBinAddr: 0x426C0, symSize: 0x24 }
  - { offset: 0x8480C, size: 0x8, addend: 0x0, symName: '__ZN119_$LT$pyo3..pycell..impl_..PyStaticClassObject$LT$T$GT$$u20$as$u20$pyo3..pycell..impl_..PyClassObjectLayout$LT$T$GT$$GT$7get_ptr17hba7a6d8342b6df62E', symObjAddr: 0x10E0, symBinAddr: 0x426E4, symSize: 0x24 }
  - { offset: 0x84843, size: 0x8, addend: 0x0, symName: '__ZN119_$LT$pyo3..pycell..impl_..PyStaticClassObject$LT$T$GT$$u20$as$u20$pyo3..pycell..impl_..PyClassObjectLayout$LT$T$GT$$GT$7get_ptr17hbbc49a3013362f04E', symObjAddr: 0x1104, symBinAddr: 0x42708, symSize: 0x24 }
  - { offset: 0x8487A, size: 0x8, addend: 0x0, symName: '__ZN119_$LT$pyo3..pycell..impl_..PyStaticClassObject$LT$T$GT$$u20$as$u20$pyo3..pycell..impl_..PyClassObjectLayout$LT$T$GT$$GT$7get_ptr17hbe3fab62f3213cb7E', symObjAddr: 0x1128, symBinAddr: 0x4272C, symSize: 0x24 }
  - { offset: 0x848B1, size: 0x8, addend: 0x0, symName: '__ZN119_$LT$pyo3..pycell..impl_..PyStaticClassObject$LT$T$GT$$u20$as$u20$pyo3..pycell..impl_..PyClassObjectLayout$LT$T$GT$$GT$7get_ptr17hd73d3341b7aff921E', symObjAddr: 0x114C, symBinAddr: 0x42750, symSize: 0x24 }
  - { offset: 0x848E8, size: 0x8, addend: 0x0, symName: '__ZN119_$LT$pyo3..pycell..impl_..PyStaticClassObject$LT$T$GT$$u20$as$u20$pyo3..pycell..impl_..PyClassObjectLayout$LT$T$GT$$GT$7get_ptr17he38cbb2d37b9c987E', symObjAddr: 0x1170, symBinAddr: 0x42774, symSize: 0x24 }
  - { offset: 0x8491F, size: 0x8, addend: 0x0, symName: '__ZN119_$LT$pyo3..pycell..impl_..PyStaticClassObject$LT$T$GT$$u20$as$u20$pyo3..pycell..impl_..PyClassObjectLayout$LT$T$GT$$GT$7get_ptr17he8e746bf84ddd0c9E', symObjAddr: 0x1194, symBinAddr: 0x42798, symSize: 0x24 }
  - { offset: 0x84956, size: 0x8, addend: 0x0, symName: '__ZN119_$LT$pyo3..pycell..impl_..PyStaticClassObject$LT$T$GT$$u20$as$u20$pyo3..pycell..impl_..PyClassObjectLayout$LT$T$GT$$GT$7get_ptr17hf9a54d3274e913ceE', symObjAddr: 0x11B8, symBinAddr: 0x427BC, symSize: 0x24 }
  - { offset: 0x8498D, size: 0x8, addend: 0x0, symName: '__ZN119_$LT$pyo3..pycell..impl_..PyStaticClassObject$LT$T$GT$$u20$as$u20$pyo3..pycell..impl_..PyClassObjectLayout$LT$T$GT$$GT$8contents17h0e02df34d4bb56cfE', symObjAddr: 0x11DC, symBinAddr: 0x427E0, symSize: 0x14 }
  - { offset: 0x849C4, size: 0x8, addend: 0x0, symName: '__ZN119_$LT$pyo3..pycell..impl_..PyStaticClassObject$LT$T$GT$$u20$as$u20$pyo3..pycell..impl_..PyClassObjectLayout$LT$T$GT$$GT$8contents17h0e9ee898402b15a2E', symObjAddr: 0x11F0, symBinAddr: 0x427F4, symSize: 0x14 }
  - { offset: 0x849FB, size: 0x8, addend: 0x0, symName: '__ZN119_$LT$pyo3..pycell..impl_..PyStaticClassObject$LT$T$GT$$u20$as$u20$pyo3..pycell..impl_..PyClassObjectLayout$LT$T$GT$$GT$8contents17h10fdb849b93fd755E', symObjAddr: 0x1204, symBinAddr: 0x42808, symSize: 0x14 }
  - { offset: 0x84A32, size: 0x8, addend: 0x0, symName: '__ZN119_$LT$pyo3..pycell..impl_..PyStaticClassObject$LT$T$GT$$u20$as$u20$pyo3..pycell..impl_..PyClassObjectLayout$LT$T$GT$$GT$8contents17h1728ca329eee5ab8E', symObjAddr: 0x1218, symBinAddr: 0x4281C, symSize: 0x14 }
  - { offset: 0x84A69, size: 0x8, addend: 0x0, symName: '__ZN119_$LT$pyo3..pycell..impl_..PyStaticClassObject$LT$T$GT$$u20$as$u20$pyo3..pycell..impl_..PyClassObjectLayout$LT$T$GT$$GT$8contents17h22e0422a9790cdc4E', symObjAddr: 0x122C, symBinAddr: 0x42830, symSize: 0x14 }
  - { offset: 0x84AA0, size: 0x8, addend: 0x0, symName: '__ZN119_$LT$pyo3..pycell..impl_..PyStaticClassObject$LT$T$GT$$u20$as$u20$pyo3..pycell..impl_..PyClassObjectLayout$LT$T$GT$$GT$8contents17h2aaa23650adc6134E', symObjAddr: 0x1240, symBinAddr: 0x42844, symSize: 0x14 }
  - { offset: 0x84AD7, size: 0x8, addend: 0x0, symName: '__ZN119_$LT$pyo3..pycell..impl_..PyStaticClassObject$LT$T$GT$$u20$as$u20$pyo3..pycell..impl_..PyClassObjectLayout$LT$T$GT$$GT$8contents17h31a47d15d5a095adE', symObjAddr: 0x1254, symBinAddr: 0x42858, symSize: 0x14 }
  - { offset: 0x84B0E, size: 0x8, addend: 0x0, symName: '__ZN119_$LT$pyo3..pycell..impl_..PyStaticClassObject$LT$T$GT$$u20$as$u20$pyo3..pycell..impl_..PyClassObjectLayout$LT$T$GT$$GT$8contents17h3350e2c6bd57f1b6E', symObjAddr: 0x1268, symBinAddr: 0x4286C, symSize: 0x14 }
  - { offset: 0x84B45, size: 0x8, addend: 0x0, symName: '__ZN119_$LT$pyo3..pycell..impl_..PyStaticClassObject$LT$T$GT$$u20$as$u20$pyo3..pycell..impl_..PyClassObjectLayout$LT$T$GT$$GT$8contents17h33e8a813ab196d20E', symObjAddr: 0x127C, symBinAddr: 0x42880, symSize: 0x14 }
  - { offset: 0x84B7C, size: 0x8, addend: 0x0, symName: '__ZN119_$LT$pyo3..pycell..impl_..PyStaticClassObject$LT$T$GT$$u20$as$u20$pyo3..pycell..impl_..PyClassObjectLayout$LT$T$GT$$GT$8contents17h3ba5915a8275a7bfE', symObjAddr: 0x1290, symBinAddr: 0x42894, symSize: 0x14 }
  - { offset: 0x84BB3, size: 0x8, addend: 0x0, symName: '__ZN119_$LT$pyo3..pycell..impl_..PyStaticClassObject$LT$T$GT$$u20$as$u20$pyo3..pycell..impl_..PyClassObjectLayout$LT$T$GT$$GT$8contents17h3f8578d6bcf1398fE', symObjAddr: 0x12A4, symBinAddr: 0x428A8, symSize: 0x14 }
  - { offset: 0x84BEA, size: 0x8, addend: 0x0, symName: '__ZN119_$LT$pyo3..pycell..impl_..PyStaticClassObject$LT$T$GT$$u20$as$u20$pyo3..pycell..impl_..PyClassObjectLayout$LT$T$GT$$GT$8contents17h4d3b810bfa333f98E', symObjAddr: 0x12B8, symBinAddr: 0x428BC, symSize: 0x14 }
  - { offset: 0x84C21, size: 0x8, addend: 0x0, symName: '__ZN119_$LT$pyo3..pycell..impl_..PyStaticClassObject$LT$T$GT$$u20$as$u20$pyo3..pycell..impl_..PyClassObjectLayout$LT$T$GT$$GT$8contents17h553c892590243e22E', symObjAddr: 0x12CC, symBinAddr: 0x428D0, symSize: 0x14 }
  - { offset: 0x84C58, size: 0x8, addend: 0x0, symName: '__ZN119_$LT$pyo3..pycell..impl_..PyStaticClassObject$LT$T$GT$$u20$as$u20$pyo3..pycell..impl_..PyClassObjectLayout$LT$T$GT$$GT$8contents17h563eda392ae1cc9fE', symObjAddr: 0x12E0, symBinAddr: 0x428E4, symSize: 0x14 }
  - { offset: 0x84C8F, size: 0x8, addend: 0x0, symName: '__ZN119_$LT$pyo3..pycell..impl_..PyStaticClassObject$LT$T$GT$$u20$as$u20$pyo3..pycell..impl_..PyClassObjectLayout$LT$T$GT$$GT$8contents17h5985d4a3826b0895E', symObjAddr: 0x12F4, symBinAddr: 0x428F8, symSize: 0x14 }
  - { offset: 0x84CC6, size: 0x8, addend: 0x0, symName: '__ZN119_$LT$pyo3..pycell..impl_..PyStaticClassObject$LT$T$GT$$u20$as$u20$pyo3..pycell..impl_..PyClassObjectLayout$LT$T$GT$$GT$8contents17h7622eae79751bb13E', symObjAddr: 0x1308, symBinAddr: 0x4290C, symSize: 0x14 }
  - { offset: 0x84CFD, size: 0x8, addend: 0x0, symName: '__ZN119_$LT$pyo3..pycell..impl_..PyStaticClassObject$LT$T$GT$$u20$as$u20$pyo3..pycell..impl_..PyClassObjectLayout$LT$T$GT$$GT$8contents17h769c4dc789b9cce0E', symObjAddr: 0x131C, symBinAddr: 0x42920, symSize: 0x14 }
  - { offset: 0x84D34, size: 0x8, addend: 0x0, symName: '__ZN119_$LT$pyo3..pycell..impl_..PyStaticClassObject$LT$T$GT$$u20$as$u20$pyo3..pycell..impl_..PyClassObjectLayout$LT$T$GT$$GT$8contents17h7f04f8985871aba1E', symObjAddr: 0x1330, symBinAddr: 0x42934, symSize: 0x14 }
  - { offset: 0x84D6B, size: 0x8, addend: 0x0, symName: '__ZN119_$LT$pyo3..pycell..impl_..PyStaticClassObject$LT$T$GT$$u20$as$u20$pyo3..pycell..impl_..PyClassObjectLayout$LT$T$GT$$GT$8contents17h88948596ebff99e2E', symObjAddr: 0x1344, symBinAddr: 0x42948, symSize: 0x14 }
  - { offset: 0x84DA2, size: 0x8, addend: 0x0, symName: '__ZN119_$LT$pyo3..pycell..impl_..PyStaticClassObject$LT$T$GT$$u20$as$u20$pyo3..pycell..impl_..PyClassObjectLayout$LT$T$GT$$GT$8contents17h8e4f23f224b17a92E', symObjAddr: 0x1358, symBinAddr: 0x4295C, symSize: 0x14 }
  - { offset: 0x84DD9, size: 0x8, addend: 0x0, symName: '__ZN119_$LT$pyo3..pycell..impl_..PyStaticClassObject$LT$T$GT$$u20$as$u20$pyo3..pycell..impl_..PyClassObjectLayout$LT$T$GT$$GT$8contents17haae7dba63c65ca19E', symObjAddr: 0x136C, symBinAddr: 0x42970, symSize: 0x14 }
  - { offset: 0x84E10, size: 0x8, addend: 0x0, symName: '__ZN119_$LT$pyo3..pycell..impl_..PyStaticClassObject$LT$T$GT$$u20$as$u20$pyo3..pycell..impl_..PyClassObjectLayout$LT$T$GT$$GT$8contents17hb33a48814f84c315E', symObjAddr: 0x1380, symBinAddr: 0x42984, symSize: 0x14 }
  - { offset: 0x84E47, size: 0x8, addend: 0x0, symName: '__ZN119_$LT$pyo3..pycell..impl_..PyStaticClassObject$LT$T$GT$$u20$as$u20$pyo3..pycell..impl_..PyClassObjectLayout$LT$T$GT$$GT$8contents17hc8638090b2785a2dE', symObjAddr: 0x1394, symBinAddr: 0x42998, symSize: 0x14 }
  - { offset: 0x84E7E, size: 0x8, addend: 0x0, symName: '__ZN119_$LT$pyo3..pycell..impl_..PyStaticClassObject$LT$T$GT$$u20$as$u20$pyo3..pycell..impl_..PyClassObjectLayout$LT$T$GT$$GT$8contents17head7e706e617818aE', symObjAddr: 0x13A8, symBinAddr: 0x429AC, symSize: 0x14 }
  - { offset: 0x84EB5, size: 0x8, addend: 0x0, symName: '__ZN119_$LT$pyo3..pycell..impl_..PyStaticClassObject$LT$T$GT$$u20$as$u20$pyo3..pycell..impl_..PyClassObjectLayout$LT$T$GT$$GT$8contents17hf0772cb61ae38ffdE', symObjAddr: 0x13BC, symBinAddr: 0x429C0, symSize: 0x14 }
  - { offset: 0x84EEC, size: 0x8, addend: 0x0, symName: '__ZN119_$LT$pyo3..pycell..impl_..PyStaticClassObject$LT$T$GT$$u20$as$u20$pyo3..pycell..impl_..PyClassObjectLayout$LT$T$GT$$GT$8contents17hf623a9fb47f10be4E', symObjAddr: 0x13D0, symBinAddr: 0x429D4, symSize: 0x14 }
  - { offset: 0x84F23, size: 0x8, addend: 0x0, symName: '__ZN119_$LT$pyo3..pycell..impl_..PyStaticClassObject$LT$T$GT$$u20$as$u20$pyo3..pycell..impl_..PyClassObjectLayout$LT$T$GT$$GT$8contents17hf94b2a176e14bb0eE', symObjAddr: 0x13E4, symBinAddr: 0x429E8, symSize: 0x14 }
  - { offset: 0x84F5A, size: 0x8, addend: 0x0, symName: '__ZN119_$LT$pyo3..pycell..impl_..PyStaticClassObject$LT$T$GT$$u20$as$u20$pyo3..pycell..impl_..PyClassObjectLayout$LT$T$GT$$GT$8contents17hff719d4a69ff9534E', symObjAddr: 0x13F8, symBinAddr: 0x429FC, symSize: 0x14 }
  - { offset: 0x8548A, size: 0x8, addend: 0x0, symName: '__ZN121_$LT$pyo3..pycell..impl_..PyClassObjectBase$LT$U$GT$$u20$as$u20$pyo3..pycell..impl_..PyClassObjectBaseLayout$LT$T$GT$$GT$17ensure_threadsafe17h0c175d5ccf791750E', symObjAddr: 0x140C, symBinAddr: 0x42A10, symSize: 0x10 }
  - { offset: 0x854CA, size: 0x8, addend: 0x0, symName: '__ZN123_$LT$pyo3..pycell..impl_..PyStaticClassObject$LT$T$GT$$u20$as$u20$pyo3..pycell..impl_..PyClassObjectBaseLayout$LT$T$GT$$GT$10tp_dealloc17h015ee9df59df798fE', symObjAddr: 0x141C, symBinAddr: 0x42A20, symSize: 0x84 }
  - { offset: 0x85536, size: 0x8, addend: 0x0, symName: '__ZN123_$LT$pyo3..pycell..impl_..PyStaticClassObject$LT$T$GT$$u20$as$u20$pyo3..pycell..impl_..PyClassObjectBaseLayout$LT$T$GT$$GT$10tp_dealloc17h0b24876fd9b3a643E', symObjAddr: 0x14A0, symBinAddr: 0x42AA4, symSize: 0x84 }
  - { offset: 0x855A2, size: 0x8, addend: 0x0, symName: '__ZN123_$LT$pyo3..pycell..impl_..PyStaticClassObject$LT$T$GT$$u20$as$u20$pyo3..pycell..impl_..PyClassObjectBaseLayout$LT$T$GT$$GT$10tp_dealloc17h1093e6d45ccc5095E', symObjAddr: 0x1524, symBinAddr: 0x42B28, symSize: 0x84 }
  - { offset: 0x8560E, size: 0x8, addend: 0x0, symName: '__ZN123_$LT$pyo3..pycell..impl_..PyStaticClassObject$LT$T$GT$$u20$as$u20$pyo3..pycell..impl_..PyClassObjectBaseLayout$LT$T$GT$$GT$10tp_dealloc17h11b0c5efab627000E', symObjAddr: 0x15A8, symBinAddr: 0x42BAC, symSize: 0x84 }
  - { offset: 0x8567A, size: 0x8, addend: 0x0, symName: '__ZN123_$LT$pyo3..pycell..impl_..PyStaticClassObject$LT$T$GT$$u20$as$u20$pyo3..pycell..impl_..PyClassObjectBaseLayout$LT$T$GT$$GT$10tp_dealloc17h137a1decf034ca14E', symObjAddr: 0x162C, symBinAddr: 0x42C30, symSize: 0x84 }
  - { offset: 0x856E6, size: 0x8, addend: 0x0, symName: '__ZN123_$LT$pyo3..pycell..impl_..PyStaticClassObject$LT$T$GT$$u20$as$u20$pyo3..pycell..impl_..PyClassObjectBaseLayout$LT$T$GT$$GT$10tp_dealloc17h1a2adfc8462ff95fE', symObjAddr: 0x16B0, symBinAddr: 0x42CB4, symSize: 0x84 }
  - { offset: 0x85752, size: 0x8, addend: 0x0, symName: '__ZN123_$LT$pyo3..pycell..impl_..PyStaticClassObject$LT$T$GT$$u20$as$u20$pyo3..pycell..impl_..PyClassObjectBaseLayout$LT$T$GT$$GT$10tp_dealloc17h2b2273abbb80f1c6E', symObjAddr: 0x1734, symBinAddr: 0x42D38, symSize: 0x84 }
  - { offset: 0x857BE, size: 0x8, addend: 0x0, symName: '__ZN123_$LT$pyo3..pycell..impl_..PyStaticClassObject$LT$T$GT$$u20$as$u20$pyo3..pycell..impl_..PyClassObjectBaseLayout$LT$T$GT$$GT$10tp_dealloc17h2c3273135815a5d8E', symObjAddr: 0x17B8, symBinAddr: 0x42DBC, symSize: 0x84 }
  - { offset: 0x8582A, size: 0x8, addend: 0x0, symName: '__ZN123_$LT$pyo3..pycell..impl_..PyStaticClassObject$LT$T$GT$$u20$as$u20$pyo3..pycell..impl_..PyClassObjectBaseLayout$LT$T$GT$$GT$10tp_dealloc17h2e43e4c376a81fcdE', symObjAddr: 0x183C, symBinAddr: 0x42E40, symSize: 0x84 }
  - { offset: 0x85896, size: 0x8, addend: 0x0, symName: '__ZN123_$LT$pyo3..pycell..impl_..PyStaticClassObject$LT$T$GT$$u20$as$u20$pyo3..pycell..impl_..PyClassObjectBaseLayout$LT$T$GT$$GT$10tp_dealloc17h2ed683d360ae650bE', symObjAddr: 0x18C0, symBinAddr: 0x42EC4, symSize: 0x84 }
  - { offset: 0x85902, size: 0x8, addend: 0x0, symName: '__ZN123_$LT$pyo3..pycell..impl_..PyStaticClassObject$LT$T$GT$$u20$as$u20$pyo3..pycell..impl_..PyClassObjectBaseLayout$LT$T$GT$$GT$10tp_dealloc17h30142737645fe807E', symObjAddr: 0x1944, symBinAddr: 0x42F48, symSize: 0x84 }
  - { offset: 0x8596E, size: 0x8, addend: 0x0, symName: '__ZN123_$LT$pyo3..pycell..impl_..PyStaticClassObject$LT$T$GT$$u20$as$u20$pyo3..pycell..impl_..PyClassObjectBaseLayout$LT$T$GT$$GT$10tp_dealloc17h3a1a7510fe4366e6E', symObjAddr: 0x19C8, symBinAddr: 0x42FCC, symSize: 0x84 }
  - { offset: 0x859DA, size: 0x8, addend: 0x0, symName: '__ZN123_$LT$pyo3..pycell..impl_..PyStaticClassObject$LT$T$GT$$u20$as$u20$pyo3..pycell..impl_..PyClassObjectBaseLayout$LT$T$GT$$GT$10tp_dealloc17h43c3e7f3a62ec8a4E', symObjAddr: 0x1A4C, symBinAddr: 0x43050, symSize: 0x84 }
  - { offset: 0x85A46, size: 0x8, addend: 0x0, symName: '__ZN123_$LT$pyo3..pycell..impl_..PyStaticClassObject$LT$T$GT$$u20$as$u20$pyo3..pycell..impl_..PyClassObjectBaseLayout$LT$T$GT$$GT$10tp_dealloc17h4973975a45ab1f2aE', symObjAddr: 0x1AD0, symBinAddr: 0x430D4, symSize: 0x84 }
  - { offset: 0x85AB2, size: 0x8, addend: 0x0, symName: '__ZN123_$LT$pyo3..pycell..impl_..PyStaticClassObject$LT$T$GT$$u20$as$u20$pyo3..pycell..impl_..PyClassObjectBaseLayout$LT$T$GT$$GT$10tp_dealloc17h49d2d0cf99b6bfffE', symObjAddr: 0x1B54, symBinAddr: 0x43158, symSize: 0x84 }
  - { offset: 0x85B1E, size: 0x8, addend: 0x0, symName: '__ZN123_$LT$pyo3..pycell..impl_..PyStaticClassObject$LT$T$GT$$u20$as$u20$pyo3..pycell..impl_..PyClassObjectBaseLayout$LT$T$GT$$GT$10tp_dealloc17h65828807b9fa9af0E', symObjAddr: 0x1BD8, symBinAddr: 0x431DC, symSize: 0x84 }
  - { offset: 0x85B8A, size: 0x8, addend: 0x0, symName: '__ZN123_$LT$pyo3..pycell..impl_..PyStaticClassObject$LT$T$GT$$u20$as$u20$pyo3..pycell..impl_..PyClassObjectBaseLayout$LT$T$GT$$GT$10tp_dealloc17h6ab3314aa62805beE', symObjAddr: 0x1C5C, symBinAddr: 0x43260, symSize: 0x84 }
  - { offset: 0x85BF6, size: 0x8, addend: 0x0, symName: '__ZN123_$LT$pyo3..pycell..impl_..PyStaticClassObject$LT$T$GT$$u20$as$u20$pyo3..pycell..impl_..PyClassObjectBaseLayout$LT$T$GT$$GT$10tp_dealloc17h6c68178f334e5791E', symObjAddr: 0x1CE0, symBinAddr: 0x432E4, symSize: 0x84 }
  - { offset: 0x85C62, size: 0x8, addend: 0x0, symName: '__ZN123_$LT$pyo3..pycell..impl_..PyStaticClassObject$LT$T$GT$$u20$as$u20$pyo3..pycell..impl_..PyClassObjectBaseLayout$LT$T$GT$$GT$10tp_dealloc17h7338a7676e2ef6a1E', symObjAddr: 0x1D64, symBinAddr: 0x43368, symSize: 0x84 }
  - { offset: 0x85CCE, size: 0x8, addend: 0x0, symName: '__ZN123_$LT$pyo3..pycell..impl_..PyStaticClassObject$LT$T$GT$$u20$as$u20$pyo3..pycell..impl_..PyClassObjectBaseLayout$LT$T$GT$$GT$10tp_dealloc17h899029e66e8f0bbeE', symObjAddr: 0x1DE8, symBinAddr: 0x433EC, symSize: 0x84 }
  - { offset: 0x85D3A, size: 0x8, addend: 0x0, symName: '__ZN123_$LT$pyo3..pycell..impl_..PyStaticClassObject$LT$T$GT$$u20$as$u20$pyo3..pycell..impl_..PyClassObjectBaseLayout$LT$T$GT$$GT$10tp_dealloc17ha168e1be9e22f686E', symObjAddr: 0x1E6C, symBinAddr: 0x43470, symSize: 0x84 }
  - { offset: 0x85DA6, size: 0x8, addend: 0x0, symName: '__ZN123_$LT$pyo3..pycell..impl_..PyStaticClassObject$LT$T$GT$$u20$as$u20$pyo3..pycell..impl_..PyClassObjectBaseLayout$LT$T$GT$$GT$10tp_dealloc17ha86a083158f9ac49E', symObjAddr: 0x1EF0, symBinAddr: 0x434F4, symSize: 0x84 }
  - { offset: 0x85E12, size: 0x8, addend: 0x0, symName: '__ZN123_$LT$pyo3..pycell..impl_..PyStaticClassObject$LT$T$GT$$u20$as$u20$pyo3..pycell..impl_..PyClassObjectBaseLayout$LT$T$GT$$GT$10tp_dealloc17hac6f8703b2de6b87E', symObjAddr: 0x1F74, symBinAddr: 0x43578, symSize: 0x84 }
  - { offset: 0x85E7E, size: 0x8, addend: 0x0, symName: '__ZN123_$LT$pyo3..pycell..impl_..PyStaticClassObject$LT$T$GT$$u20$as$u20$pyo3..pycell..impl_..PyClassObjectBaseLayout$LT$T$GT$$GT$10tp_dealloc17hb6968dc0335af98fE', symObjAddr: 0x1FF8, symBinAddr: 0x435FC, symSize: 0x84 }
  - { offset: 0x85EEA, size: 0x8, addend: 0x0, symName: '__ZN123_$LT$pyo3..pycell..impl_..PyStaticClassObject$LT$T$GT$$u20$as$u20$pyo3..pycell..impl_..PyClassObjectBaseLayout$LT$T$GT$$GT$10tp_dealloc17hc98c70ff9a59b7c5E', symObjAddr: 0x207C, symBinAddr: 0x43680, symSize: 0x84 }
  - { offset: 0x85F56, size: 0x8, addend: 0x0, symName: '__ZN123_$LT$pyo3..pycell..impl_..PyStaticClassObject$LT$T$GT$$u20$as$u20$pyo3..pycell..impl_..PyClassObjectBaseLayout$LT$T$GT$$GT$10tp_dealloc17hd75c882d23d4775eE', symObjAddr: 0x2100, symBinAddr: 0x43704, symSize: 0x84 }
  - { offset: 0x85FC2, size: 0x8, addend: 0x0, symName: '__ZN123_$LT$pyo3..pycell..impl_..PyStaticClassObject$LT$T$GT$$u20$as$u20$pyo3..pycell..impl_..PyClassObjectBaseLayout$LT$T$GT$$GT$10tp_dealloc17he1b5d05faf9fe281E', symObjAddr: 0x2184, symBinAddr: 0x43788, symSize: 0x84 }
  - { offset: 0x8602E, size: 0x8, addend: 0x0, symName: '__ZN123_$LT$pyo3..pycell..impl_..PyStaticClassObject$LT$T$GT$$u20$as$u20$pyo3..pycell..impl_..PyClassObjectBaseLayout$LT$T$GT$$GT$10tp_dealloc17he2d5d5c2185155c3E', symObjAddr: 0x2208, symBinAddr: 0x4380C, symSize: 0x84 }
  - { offset: 0x8609A, size: 0x8, addend: 0x0, symName: '__ZN123_$LT$pyo3..pycell..impl_..PyStaticClassObject$LT$T$GT$$u20$as$u20$pyo3..pycell..impl_..PyClassObjectBaseLayout$LT$T$GT$$GT$10tp_dealloc17he9d3ec7f5a72f541E', symObjAddr: 0x228C, symBinAddr: 0x43890, symSize: 0x84 }
  - { offset: 0x86106, size: 0x8, addend: 0x0, symName: '__ZN123_$LT$pyo3..pycell..impl_..PyStaticClassObject$LT$T$GT$$u20$as$u20$pyo3..pycell..impl_..PyClassObjectBaseLayout$LT$T$GT$$GT$10tp_dealloc17hf72b67591d8fc30cE', symObjAddr: 0x2310, symBinAddr: 0x43914, symSize: 0x84 }
  - { offset: 0x86172, size: 0x8, addend: 0x0, symName: '__ZN123_$LT$pyo3..pycell..impl_..PyStaticClassObject$LT$T$GT$$u20$as$u20$pyo3..pycell..impl_..PyClassObjectBaseLayout$LT$T$GT$$GT$17ensure_threadsafe17h1ae905b988273f2cE', symObjAddr: 0x2394, symBinAddr: 0x43998, symSize: 0x30 }
  - { offset: 0x861A5, size: 0x8, addend: 0x0, symName: '__ZN123_$LT$pyo3..pycell..impl_..PyStaticClassObject$LT$T$GT$$u20$as$u20$pyo3..pycell..impl_..PyClassObjectBaseLayout$LT$T$GT$$GT$17ensure_threadsafe17h242b1a6c18d10c4bE', symObjAddr: 0x23C4, symBinAddr: 0x439C8, symSize: 0x30 }
  - { offset: 0x861D8, size: 0x8, addend: 0x0, symName: '__ZN123_$LT$pyo3..pycell..impl_..PyStaticClassObject$LT$T$GT$$u20$as$u20$pyo3..pycell..impl_..PyClassObjectBaseLayout$LT$T$GT$$GT$17ensure_threadsafe17h242c248d44a8b07aE', symObjAddr: 0x23F4, symBinAddr: 0x439F8, symSize: 0x30 }
  - { offset: 0x8620B, size: 0x8, addend: 0x0, symName: '__ZN123_$LT$pyo3..pycell..impl_..PyStaticClassObject$LT$T$GT$$u20$as$u20$pyo3..pycell..impl_..PyClassObjectBaseLayout$LT$T$GT$$GT$17ensure_threadsafe17h290e122002b22927E', symObjAddr: 0x2424, symBinAddr: 0x43A28, symSize: 0x30 }
  - { offset: 0x8623E, size: 0x8, addend: 0x0, symName: '__ZN123_$LT$pyo3..pycell..impl_..PyStaticClassObject$LT$T$GT$$u20$as$u20$pyo3..pycell..impl_..PyClassObjectBaseLayout$LT$T$GT$$GT$17ensure_threadsafe17h299d48d97d613af3E', symObjAddr: 0x2454, symBinAddr: 0x43A58, symSize: 0x30 }
  - { offset: 0x86271, size: 0x8, addend: 0x0, symName: '__ZN123_$LT$pyo3..pycell..impl_..PyStaticClassObject$LT$T$GT$$u20$as$u20$pyo3..pycell..impl_..PyClassObjectBaseLayout$LT$T$GT$$GT$17ensure_threadsafe17h29ade6af6f7e79c5E', symObjAddr: 0x2484, symBinAddr: 0x43A88, symSize: 0x30 }
  - { offset: 0x862A4, size: 0x8, addend: 0x0, symName: '__ZN123_$LT$pyo3..pycell..impl_..PyStaticClassObject$LT$T$GT$$u20$as$u20$pyo3..pycell..impl_..PyClassObjectBaseLayout$LT$T$GT$$GT$17ensure_threadsafe17h2ee872f4aeca94e3E', symObjAddr: 0x24B4, symBinAddr: 0x43AB8, symSize: 0x30 }
  - { offset: 0x862D7, size: 0x8, addend: 0x0, symName: '__ZN123_$LT$pyo3..pycell..impl_..PyStaticClassObject$LT$T$GT$$u20$as$u20$pyo3..pycell..impl_..PyClassObjectBaseLayout$LT$T$GT$$GT$17ensure_threadsafe17h334f6bc9b1740e18E', symObjAddr: 0x24E4, symBinAddr: 0x43AE8, symSize: 0x30 }
  - { offset: 0x8630A, size: 0x8, addend: 0x0, symName: '__ZN123_$LT$pyo3..pycell..impl_..PyStaticClassObject$LT$T$GT$$u20$as$u20$pyo3..pycell..impl_..PyClassObjectBaseLayout$LT$T$GT$$GT$17ensure_threadsafe17h357602b8e9eddfaeE', symObjAddr: 0x2514, symBinAddr: 0x43B18, symSize: 0x30 }
  - { offset: 0x8633D, size: 0x8, addend: 0x0, symName: '__ZN123_$LT$pyo3..pycell..impl_..PyStaticClassObject$LT$T$GT$$u20$as$u20$pyo3..pycell..impl_..PyClassObjectBaseLayout$LT$T$GT$$GT$17ensure_threadsafe17h3e6c7816dc629ebcE', symObjAddr: 0x2544, symBinAddr: 0x43B48, symSize: 0x30 }
  - { offset: 0x86370, size: 0x8, addend: 0x0, symName: '__ZN123_$LT$pyo3..pycell..impl_..PyStaticClassObject$LT$T$GT$$u20$as$u20$pyo3..pycell..impl_..PyClassObjectBaseLayout$LT$T$GT$$GT$17ensure_threadsafe17h4bf8e7ba63f0c09dE', symObjAddr: 0x2574, symBinAddr: 0x43B78, symSize: 0x30 }
  - { offset: 0x863A3, size: 0x8, addend: 0x0, symName: '__ZN123_$LT$pyo3..pycell..impl_..PyStaticClassObject$LT$T$GT$$u20$as$u20$pyo3..pycell..impl_..PyClassObjectBaseLayout$LT$T$GT$$GT$17ensure_threadsafe17h50ad26e66c6463d3E', symObjAddr: 0x25A4, symBinAddr: 0x43BA8, symSize: 0x30 }
  - { offset: 0x863D6, size: 0x8, addend: 0x0, symName: '__ZN123_$LT$pyo3..pycell..impl_..PyStaticClassObject$LT$T$GT$$u20$as$u20$pyo3..pycell..impl_..PyClassObjectBaseLayout$LT$T$GT$$GT$17ensure_threadsafe17h5a33df56782ddb48E', symObjAddr: 0x25D4, symBinAddr: 0x43BD8, symSize: 0x30 }
  - { offset: 0x86409, size: 0x8, addend: 0x0, symName: '__ZN123_$LT$pyo3..pycell..impl_..PyStaticClassObject$LT$T$GT$$u20$as$u20$pyo3..pycell..impl_..PyClassObjectBaseLayout$LT$T$GT$$GT$17ensure_threadsafe17h867e5377e478fae0E', symObjAddr: 0x2604, symBinAddr: 0x43C08, symSize: 0x30 }
  - { offset: 0x8643C, size: 0x8, addend: 0x0, symName: '__ZN123_$LT$pyo3..pycell..impl_..PyStaticClassObject$LT$T$GT$$u20$as$u20$pyo3..pycell..impl_..PyClassObjectBaseLayout$LT$T$GT$$GT$17ensure_threadsafe17h86924081fdc271b7E', symObjAddr: 0x2634, symBinAddr: 0x43C38, symSize: 0x30 }
  - { offset: 0x8646F, size: 0x8, addend: 0x0, symName: '__ZN123_$LT$pyo3..pycell..impl_..PyStaticClassObject$LT$T$GT$$u20$as$u20$pyo3..pycell..impl_..PyClassObjectBaseLayout$LT$T$GT$$GT$17ensure_threadsafe17h8faf3bcdbcc15362E', symObjAddr: 0x2664, symBinAddr: 0x43C68, symSize: 0x30 }
  - { offset: 0x864A2, size: 0x8, addend: 0x0, symName: '__ZN123_$LT$pyo3..pycell..impl_..PyStaticClassObject$LT$T$GT$$u20$as$u20$pyo3..pycell..impl_..PyClassObjectBaseLayout$LT$T$GT$$GT$17ensure_threadsafe17h92ee5e476508d2dcE', symObjAddr: 0x2694, symBinAddr: 0x43C98, symSize: 0x30 }
  - { offset: 0x864D5, size: 0x8, addend: 0x0, symName: '__ZN123_$LT$pyo3..pycell..impl_..PyStaticClassObject$LT$T$GT$$u20$as$u20$pyo3..pycell..impl_..PyClassObjectBaseLayout$LT$T$GT$$GT$17ensure_threadsafe17h997693bbb9ea6cefE', symObjAddr: 0x26C4, symBinAddr: 0x43CC8, symSize: 0x30 }
  - { offset: 0x86508, size: 0x8, addend: 0x0, symName: '__ZN123_$LT$pyo3..pycell..impl_..PyStaticClassObject$LT$T$GT$$u20$as$u20$pyo3..pycell..impl_..PyClassObjectBaseLayout$LT$T$GT$$GT$17ensure_threadsafe17h9a8a67468888becbE', symObjAddr: 0x26F4, symBinAddr: 0x43CF8, symSize: 0x30 }
  - { offset: 0x8653B, size: 0x8, addend: 0x0, symName: '__ZN123_$LT$pyo3..pycell..impl_..PyStaticClassObject$LT$T$GT$$u20$as$u20$pyo3..pycell..impl_..PyClassObjectBaseLayout$LT$T$GT$$GT$17ensure_threadsafe17ha61b5234d5746b44E', symObjAddr: 0x2724, symBinAddr: 0x43D28, symSize: 0x30 }
  - { offset: 0x8656E, size: 0x8, addend: 0x0, symName: '__ZN123_$LT$pyo3..pycell..impl_..PyStaticClassObject$LT$T$GT$$u20$as$u20$pyo3..pycell..impl_..PyClassObjectBaseLayout$LT$T$GT$$GT$17ensure_threadsafe17hba2fcb38349ca0e1E', symObjAddr: 0x2754, symBinAddr: 0x43D58, symSize: 0x30 }
  - { offset: 0x865A1, size: 0x8, addend: 0x0, symName: '__ZN123_$LT$pyo3..pycell..impl_..PyStaticClassObject$LT$T$GT$$u20$as$u20$pyo3..pycell..impl_..PyClassObjectBaseLayout$LT$T$GT$$GT$17ensure_threadsafe17hc042f9e66ff2d2f4E', symObjAddr: 0x2784, symBinAddr: 0x43D88, symSize: 0x30 }
  - { offset: 0x865D4, size: 0x8, addend: 0x0, symName: '__ZN123_$LT$pyo3..pycell..impl_..PyStaticClassObject$LT$T$GT$$u20$as$u20$pyo3..pycell..impl_..PyClassObjectBaseLayout$LT$T$GT$$GT$17ensure_threadsafe17hc116434d28bd1656E', symObjAddr: 0x27B4, symBinAddr: 0x43DB8, symSize: 0x30 }
  - { offset: 0x86607, size: 0x8, addend: 0x0, symName: '__ZN123_$LT$pyo3..pycell..impl_..PyStaticClassObject$LT$T$GT$$u20$as$u20$pyo3..pycell..impl_..PyClassObjectBaseLayout$LT$T$GT$$GT$17ensure_threadsafe17he285021430eabeddE', symObjAddr: 0x27E4, symBinAddr: 0x43DE8, symSize: 0x30 }
  - { offset: 0x8663A, size: 0x8, addend: 0x0, symName: '__ZN123_$LT$pyo3..pycell..impl_..PyStaticClassObject$LT$T$GT$$u20$as$u20$pyo3..pycell..impl_..PyClassObjectBaseLayout$LT$T$GT$$GT$17ensure_threadsafe17heac55c107aeb29dfE', symObjAddr: 0x2814, symBinAddr: 0x43E18, symSize: 0x30 }
  - { offset: 0x8666D, size: 0x8, addend: 0x0, symName: '__ZN123_$LT$pyo3..pycell..impl_..PyStaticClassObject$LT$T$GT$$u20$as$u20$pyo3..pycell..impl_..PyClassObjectBaseLayout$LT$T$GT$$GT$17ensure_threadsafe17hedb5f26f601aef9bE', symObjAddr: 0x2844, symBinAddr: 0x43E48, symSize: 0x30 }
  - { offset: 0x866A0, size: 0x8, addend: 0x0, symName: '__ZN123_$LT$pyo3..pycell..impl_..PyStaticClassObject$LT$T$GT$$u20$as$u20$pyo3..pycell..impl_..PyClassObjectBaseLayout$LT$T$GT$$GT$17ensure_threadsafe17hfc10587d9f0beb88E', symObjAddr: 0x2874, symBinAddr: 0x43E78, symSize: 0x30 }
  - { offset: 0x866D3, size: 0x8, addend: 0x0, symName: '__ZN123_$LT$pyo3..pycell..impl_..PyStaticClassObject$LT$T$GT$$u20$as$u20$pyo3..pycell..impl_..PyClassObjectBaseLayout$LT$T$GT$$GT$17ensure_threadsafe17hfe0c677f847b335dE', symObjAddr: 0x28A4, symBinAddr: 0x43EA8, symSize: 0x30 }
  - { offset: 0x8A2E6, size: 0x8, addend: 0x0, symName: '__ZN4pyo36pycell5impl_30PyClassObjectContents$LT$T$GT$3new17h0263f0ab2931ee00E', symObjAddr: 0x28D4, symBinAddr: 0x43ED8, symSize: 0x88 }
  - { offset: 0x8A386, size: 0x8, addend: 0x0, symName: '__ZN4pyo36pycell5impl_30PyClassObjectContents$LT$T$GT$3new17h02f50aabb1322595E', symObjAddr: 0x295C, symBinAddr: 0x43F60, symSize: 0x98 }
  - { offset: 0x8A5DC, size: 0x8, addend: 0x0, symName: '__ZN4pyo36pycell5impl_30PyClassObjectContents$LT$T$GT$3new17h03b746d76120b6e9E', symObjAddr: 0x29F4, symBinAddr: 0x43FF8, symSize: 0xA0 }
  - { offset: 0x8A6DF, size: 0x8, addend: 0x0, symName: '__ZN4pyo36pycell5impl_30PyClassObjectContents$LT$T$GT$3new17h0442ce61ab0a44b9E', symObjAddr: 0x2A94, symBinAddr: 0x44098, symSize: 0xA0 }
  - { offset: 0x8A781, size: 0x8, addend: 0x0, symName: '__ZN4pyo36pycell5impl_30PyClassObjectContents$LT$T$GT$3new17h0a6b873845867a08E', symObjAddr: 0x2B34, symBinAddr: 0x44138, symSize: 0xA0 }
  - { offset: 0x8A830, size: 0x8, addend: 0x0, symName: '__ZN4pyo36pycell5impl_30PyClassObjectContents$LT$T$GT$3new17h13353786233291a9E', symObjAddr: 0x2BD4, symBinAddr: 0x441D8, symSize: 0x98 }
  - { offset: 0x8A8D2, size: 0x8, addend: 0x0, symName: '__ZN4pyo36pycell5impl_30PyClassObjectContents$LT$T$GT$3new17h2c709b226bff02d9E', symObjAddr: 0x2C6C, symBinAddr: 0x44270, symSize: 0x70 }
  - { offset: 0x8A93B, size: 0x8, addend: 0x0, symName: '__ZN4pyo36pycell5impl_30PyClassObjectContents$LT$T$GT$3new17h2f2e1d0efafab481E', symObjAddr: 0x2CDC, symBinAddr: 0x442E0, symSize: 0x70 }
  - { offset: 0x8A967, size: 0x8, addend: 0x0, symName: '__ZN4pyo36pycell5impl_30PyClassObjectContents$LT$T$GT$3new17h40915324a1fdeccfE', symObjAddr: 0x2D4C, symBinAddr: 0x44350, symSize: 0x88 }
  - { offset: 0x8A9CA, size: 0x8, addend: 0x0, symName: '__ZN4pyo36pycell5impl_30PyClassObjectContents$LT$T$GT$3new17h46bb7312ce3b6d24E', symObjAddr: 0x2DD4, symBinAddr: 0x443D8, symSize: 0x70 }
  - { offset: 0x8AA6A, size: 0x8, addend: 0x0, symName: '__ZN4pyo36pycell5impl_30PyClassObjectContents$LT$T$GT$3new17h4a82d204a23d5ebeE', symObjAddr: 0x2E44, symBinAddr: 0x44448, symSize: 0x88 }
  - { offset: 0x8AB0A, size: 0x8, addend: 0x0, symName: '__ZN4pyo36pycell5impl_30PyClassObjectContents$LT$T$GT$3new17h4f57e934594a0042E', symObjAddr: 0x2ECC, symBinAddr: 0x444D0, symSize: 0x98 }
  - { offset: 0x8ABAC, size: 0x8, addend: 0x0, symName: '__ZN4pyo36pycell5impl_30PyClassObjectContents$LT$T$GT$3new17h509f4153e36d4bc7E', symObjAddr: 0x2F64, symBinAddr: 0x44568, symSize: 0x98 }
  - { offset: 0x8AC4E, size: 0x8, addend: 0x0, symName: '__ZN4pyo36pycell5impl_30PyClassObjectContents$LT$T$GT$3new17h58061aa8096bba18E', symObjAddr: 0x2FFC, symBinAddr: 0x44600, symSize: 0xA0 }
  - { offset: 0x8ACF0, size: 0x8, addend: 0x0, symName: '__ZN4pyo36pycell5impl_30PyClassObjectContents$LT$T$GT$3new17h5a5d1f1129aa89c4E', symObjAddr: 0x309C, symBinAddr: 0x446A0, symSize: 0x88 }
  - { offset: 0x8AD59, size: 0x8, addend: 0x0, symName: '__ZN4pyo36pycell5impl_30PyClassObjectContents$LT$T$GT$3new17h5a79cf6d49d0a11eE', symObjAddr: 0x3124, symBinAddr: 0x44728, symSize: 0x54 }
  - { offset: 0x8AD85, size: 0x8, addend: 0x0, symName: '__ZN4pyo36pycell5impl_30PyClassObjectContents$LT$T$GT$3new17h5cc1ad47f603fcf3E', symObjAddr: 0x3178, symBinAddr: 0x4477C, symSize: 0x70 }
  - { offset: 0x8ADE8, size: 0x8, addend: 0x0, symName: '__ZN4pyo36pycell5impl_30PyClassObjectContents$LT$T$GT$3new17h5d8d0550e435bd88E', symObjAddr: 0x31E8, symBinAddr: 0x447EC, symSize: 0xA0 }
  - { offset: 0x8AE8A, size: 0x8, addend: 0x0, symName: '__ZN4pyo36pycell5impl_30PyClassObjectContents$LT$T$GT$3new17h74dee128c696a64bE', symObjAddr: 0x3288, symBinAddr: 0x4488C, symSize: 0xA0 }
  - { offset: 0x8AF39, size: 0x8, addend: 0x0, symName: '__ZN4pyo36pycell5impl_30PyClassObjectContents$LT$T$GT$3new17h762bf757d813ec8eE', symObjAddr: 0x3328, symBinAddr: 0x4492C, symSize: 0x98 }
  - { offset: 0x8AFDB, size: 0x8, addend: 0x0, symName: '__ZN4pyo36pycell5impl_30PyClassObjectContents$LT$T$GT$3new17h874ac4e1aae83f48E', symObjAddr: 0x33C0, symBinAddr: 0x449C4, symSize: 0x98 }
  - { offset: 0x8B045, size: 0x8, addend: 0x0, symName: '__ZN4pyo36pycell5impl_30PyClassObjectContents$LT$T$GT$3new17h925286522bdde600E', symObjAddr: 0x3458, symBinAddr: 0x44A5C, symSize: 0x54 }
  - { offset: 0x8B0A8, size: 0x8, addend: 0x0, symName: '__ZN4pyo36pycell5impl_30PyClassObjectContents$LT$T$GT$3new17h98090ad3751e38ecE', symObjAddr: 0x34AC, symBinAddr: 0x44AB0, symSize: 0x98 }
  - { offset: 0x8B14A, size: 0x8, addend: 0x0, symName: '__ZN4pyo36pycell5impl_30PyClassObjectContents$LT$T$GT$3new17hb86a25afeb20bd45E', symObjAddr: 0x3544, symBinAddr: 0x44B48, symSize: 0x98 }
  - { offset: 0x8B1EC, size: 0x8, addend: 0x0, symName: '__ZN4pyo36pycell5impl_30PyClassObjectContents$LT$T$GT$3new17hc84d398cd5ae0486E', symObjAddr: 0x35DC, symBinAddr: 0x44BE0, symSize: 0x98 }
  - { offset: 0x8B257, size: 0x8, addend: 0x0, symName: '__ZN4pyo36pycell5impl_30PyClassObjectContents$LT$T$GT$3new17hd449fdd6f3db2abfE', symObjAddr: 0x3674, symBinAddr: 0x44C78, symSize: 0x54 }
  - { offset: 0x8B2BA, size: 0x8, addend: 0x0, symName: '__ZN4pyo36pycell5impl_30PyClassObjectContents$LT$T$GT$3new17he332cbd6b2a7928fE', symObjAddr: 0x36C8, symBinAddr: 0x44CCC, symSize: 0x98 }
  - { offset: 0x8B35C, size: 0x8, addend: 0x0, symName: '__ZN4pyo36pycell5impl_30PyClassObjectContents$LT$T$GT$3new17hf0a6bdfde667bd2bE', symObjAddr: 0x3760, symBinAddr: 0x44D64, symSize: 0x98 }
  - { offset: 0x8B3FE, size: 0x8, addend: 0x0, symName: '__ZN4pyo36pycell5impl_30PyClassObjectContents$LT$T$GT$3new17hf76ded2ee1188c7aE', symObjAddr: 0x37F8, symBinAddr: 0x44DFC, symSize: 0x98 }
  - { offset: 0x8B469, size: 0x8, addend: 0x0, symName: '__ZN4pyo36pycell5impl_30PyClassObjectContents$LT$T$GT$3new17hff60bce949f39a77E', symObjAddr: 0x3890, symBinAddr: 0x44E94, symSize: 0x88 }
  - { offset: 0x8B4F7, size: 0x8, addend: 0x0, symName: '__ZN4pyo36pycell5impl_30PyClassObjectContents$LT$T$GT$7dealloc17h024479e34fb9c55eE', symObjAddr: 0x3918, symBinAddr: 0x44F1C, symSize: 0x60 }
  - { offset: 0x8B55A, size: 0x8, addend: 0x0, symName: '__ZN4pyo36pycell5impl_30PyClassObjectContents$LT$T$GT$7dealloc17h093c943364514621E', symObjAddr: 0x3978, symBinAddr: 0x44F7C, symSize: 0x60 }
  - { offset: 0x8B5BD, size: 0x8, addend: 0x0, symName: '__ZN4pyo36pycell5impl_30PyClassObjectContents$LT$T$GT$7dealloc17h0ff9687f65bd0befE', symObjAddr: 0x39D8, symBinAddr: 0x44FDC, symSize: 0x60 }
  - { offset: 0x8B620, size: 0x8, addend: 0x0, symName: '__ZN4pyo36pycell5impl_30PyClassObjectContents$LT$T$GT$7dealloc17h1e1e167dce1cbdf0E', symObjAddr: 0x3A38, symBinAddr: 0x4503C, symSize: 0x60 }
  - { offset: 0x8B683, size: 0x8, addend: 0x0, symName: '__ZN4pyo36pycell5impl_30PyClassObjectContents$LT$T$GT$7dealloc17h1f1a33fb856b5459E', symObjAddr: 0x3A98, symBinAddr: 0x4509C, symSize: 0x60 }
  - { offset: 0x8B6E6, size: 0x8, addend: 0x0, symName: '__ZN4pyo36pycell5impl_30PyClassObjectContents$LT$T$GT$7dealloc17h27d78c2e252e2931E', symObjAddr: 0x3AF8, symBinAddr: 0x450FC, symSize: 0x60 }
  - { offset: 0x8B749, size: 0x8, addend: 0x0, symName: '__ZN4pyo36pycell5impl_30PyClassObjectContents$LT$T$GT$7dealloc17h328b638b8b6d6f2dE', symObjAddr: 0x3B58, symBinAddr: 0x4515C, symSize: 0x60 }
  - { offset: 0x8B7AC, size: 0x8, addend: 0x0, symName: '__ZN4pyo36pycell5impl_30PyClassObjectContents$LT$T$GT$7dealloc17h332a687b3c7be745E', symObjAddr: 0x3BB8, symBinAddr: 0x451BC, symSize: 0x60 }
  - { offset: 0x8B80F, size: 0x8, addend: 0x0, symName: '__ZN4pyo36pycell5impl_30PyClassObjectContents$LT$T$GT$7dealloc17h34d3ace2f80c7a96E', symObjAddr: 0x3C18, symBinAddr: 0x4521C, symSize: 0x60 }
  - { offset: 0x8B872, size: 0x8, addend: 0x0, symName: '__ZN4pyo36pycell5impl_30PyClassObjectContents$LT$T$GT$7dealloc17h3e58e90d6172e151E', symObjAddr: 0x3C78, symBinAddr: 0x4527C, symSize: 0x60 }
  - { offset: 0x8B8D5, size: 0x8, addend: 0x0, symName: '__ZN4pyo36pycell5impl_30PyClassObjectContents$LT$T$GT$7dealloc17h53c93b7e90de9896E', symObjAddr: 0x3CD8, symBinAddr: 0x452DC, symSize: 0x60 }
  - { offset: 0x8B938, size: 0x8, addend: 0x0, symName: '__ZN4pyo36pycell5impl_30PyClassObjectContents$LT$T$GT$7dealloc17h5d1fcb1cff646863E', symObjAddr: 0x3D38, symBinAddr: 0x4533C, symSize: 0x60 }
  - { offset: 0x8B99B, size: 0x8, addend: 0x0, symName: '__ZN4pyo36pycell5impl_30PyClassObjectContents$LT$T$GT$7dealloc17h5e3e2ff48cde12e1E', symObjAddr: 0x3D98, symBinAddr: 0x4539C, symSize: 0x60 }
  - { offset: 0x8B9FE, size: 0x8, addend: 0x0, symName: '__ZN4pyo36pycell5impl_30PyClassObjectContents$LT$T$GT$7dealloc17h6d6898b4d062afabE', symObjAddr: 0x3DF8, symBinAddr: 0x453FC, symSize: 0x60 }
  - { offset: 0x8BA61, size: 0x8, addend: 0x0, symName: '__ZN4pyo36pycell5impl_30PyClassObjectContents$LT$T$GT$7dealloc17h6f6ae226d8fc2cbfE', symObjAddr: 0x3E58, symBinAddr: 0x4545C, symSize: 0x60 }
  - { offset: 0x8BAC4, size: 0x8, addend: 0x0, symName: '__ZN4pyo36pycell5impl_30PyClassObjectContents$LT$T$GT$7dealloc17h72159f8532af5abaE', symObjAddr: 0x3EB8, symBinAddr: 0x454BC, symSize: 0x60 }
  - { offset: 0x8BB27, size: 0x8, addend: 0x0, symName: '__ZN4pyo36pycell5impl_30PyClassObjectContents$LT$T$GT$7dealloc17h74a566e60f938c9dE', symObjAddr: 0x3F18, symBinAddr: 0x4551C, symSize: 0x60 }
  - { offset: 0x8BB8A, size: 0x8, addend: 0x0, symName: '__ZN4pyo36pycell5impl_30PyClassObjectContents$LT$T$GT$7dealloc17h76ebf9cea76e165cE', symObjAddr: 0x3F78, symBinAddr: 0x4557C, symSize: 0x60 }
  - { offset: 0x8BBED, size: 0x8, addend: 0x0, symName: '__ZN4pyo36pycell5impl_30PyClassObjectContents$LT$T$GT$7dealloc17h775addb3cd2eb581E', symObjAddr: 0x3FD8, symBinAddr: 0x455DC, symSize: 0x60 }
  - { offset: 0x8BC50, size: 0x8, addend: 0x0, symName: '__ZN4pyo36pycell5impl_30PyClassObjectContents$LT$T$GT$7dealloc17h7a66856cd9c40aadE', symObjAddr: 0x4038, symBinAddr: 0x4563C, symSize: 0x60 }
  - { offset: 0x8BCB3, size: 0x8, addend: 0x0, symName: '__ZN4pyo36pycell5impl_30PyClassObjectContents$LT$T$GT$7dealloc17h82668bc3c6e2a964E', symObjAddr: 0x4098, symBinAddr: 0x4569C, symSize: 0x60 }
  - { offset: 0x8BD16, size: 0x8, addend: 0x0, symName: '__ZN4pyo36pycell5impl_30PyClassObjectContents$LT$T$GT$7dealloc17h91653cb3cc0c450aE', symObjAddr: 0x40F8, symBinAddr: 0x456FC, symSize: 0x60 }
  - { offset: 0x8BD79, size: 0x8, addend: 0x0, symName: '__ZN4pyo36pycell5impl_30PyClassObjectContents$LT$T$GT$7dealloc17h935cd128f1681097E', symObjAddr: 0x4158, symBinAddr: 0x4575C, symSize: 0x60 }
  - { offset: 0x8BDDC, size: 0x8, addend: 0x0, symName: '__ZN4pyo36pycell5impl_30PyClassObjectContents$LT$T$GT$7dealloc17haa49db7a2187840dE', symObjAddr: 0x41B8, symBinAddr: 0x457BC, symSize: 0x60 }
  - { offset: 0x8BE3F, size: 0x8, addend: 0x0, symName: '__ZN4pyo36pycell5impl_30PyClassObjectContents$LT$T$GT$7dealloc17habf627fcb2209491E', symObjAddr: 0x4218, symBinAddr: 0x4581C, symSize: 0x60 }
  - { offset: 0x8BEA2, size: 0x8, addend: 0x0, symName: '__ZN4pyo36pycell5impl_30PyClassObjectContents$LT$T$GT$7dealloc17hccd6467d2012fc32E', symObjAddr: 0x4278, symBinAddr: 0x4587C, symSize: 0x60 }
  - { offset: 0x8BF05, size: 0x8, addend: 0x0, symName: '__ZN4pyo36pycell5impl_30PyClassObjectContents$LT$T$GT$7dealloc17hd27880e0fab18bebE', symObjAddr: 0x42D8, symBinAddr: 0x458DC, symSize: 0x60 }
  - { offset: 0x8BF68, size: 0x8, addend: 0x0, symName: '__ZN4pyo36pycell5impl_30PyClassObjectContents$LT$T$GT$7dealloc17hd54dfd63f4e88aefE', symObjAddr: 0x4338, symBinAddr: 0x4593C, symSize: 0x60 }
  - { offset: 0x8BFCB, size: 0x8, addend: 0x0, symName: '__ZN4pyo36pycell5impl_30PyClassObjectContents$LT$T$GT$7dealloc17hebe81ec35d06eb06E', symObjAddr: 0x4398, symBinAddr: 0x4599C, symSize: 0x60 }
  - { offset: 0x8C02E, size: 0x8, addend: 0x0, symName: '__ZN4pyo36pycell5impl_30PyClassObjectContents$LT$T$GT$7dealloc17hfd6bf452f22dc386E', symObjAddr: 0x43F8, symBinAddr: 0x459FC, symSize: 0x60 }
  - { offset: 0x8C999, size: 0x8, addend: 0x0, symName: __ZN9orion_sdr6python9orion_sdr17h4b692db792cc4814E, symObjAddr: 0x0, symBinAddr: 0x45A5C, symSize: 0x1308 }
  - { offset: 0x8CA35, size: 0x8, addend: 0x0, symName: __ZN9orion_sdr6python9orion_sdr17h4b692db792cc4814E, symObjAddr: 0x0, symBinAddr: 0x45A5C, symSize: 0x1308 }
  - { offset: 0x8D88D, size: 0x8, addend: 0x0, symName: __ZN5alloc3fmt6format17hb335be68c2e999d9E, symObjAddr: 0x0, symBinAddr: 0x46D64, symSize: 0xD4 }
  - { offset: 0x8DE28, size: 0x8, addend: 0x0, symName: __ZN5alloc3fmt6format17hb335be68c2e999d9E, symObjAddr: 0x0, symBinAddr: 0x46D64, symSize: 0xD4 }
  - { offset: 0x8DF81, size: 0x8, addend: 0x0, symName: __ZN9orion_sdr8modulate3ssb13SsbPhasingMod3new17h59b2d113c41e7acfE, symObjAddr: 0x0, symBinAddr: 0x46E38, symSize: 0x10C }
  - { offset: 0x8E028, size: 0x8, addend: 0x0, symName: '__ZN82_$LT$orion_sdr..modulate..ssb..SsbPhasingMod$u20$as$u20$orion_sdr..core..Block$GT$7process17h349b8f3e78947858E', symObjAddr: 0x10C, symBinAddr: 0x46F44, symSize: 0x1DD4 }
  - { offset: 0x8F10C, size: 0x8, addend: 0x0, symName: __ZN9orion_sdr8modulate3ssb13SsbPhasingMod3new17h59b2d113c41e7acfE, symObjAddr: 0x0, symBinAddr: 0x46E38, symSize: 0x10C }
  - { offset: 0x8F2F8, size: 0x8, addend: 0x0, symName: '__ZN108_$LT$core..iter..adapters..filter..Filter$LT$I$C$P$GT$$u20$as$u20$core..iter..traits..iterator..Iterator$GT$4fold17h54664f2f11cbfb21E', symObjAddr: 0x0, symBinAddr: 0x48D18, symSize: 0x34 }
  - { offset: 0x8F31E, size: 0x8, addend: 0x0, symName: '__ZN108_$LT$core..iter..adapters..filter..Filter$LT$I$C$P$GT$$u20$as$u20$core..iter..traits..iterator..Iterator$GT$4fold17h54664f2f11cbfb21E', symObjAddr: 0x0, symBinAddr: 0x48D18, symSize: 0x34 }
  - { offset: 0x8F38B, size: 0x8, addend: 0x0, symName: '__ZN108_$LT$core..iter..adapters..filter..Filter$LT$I$C$P$GT$$u20$as$u20$core..iter..traits..iterator..Iterator$GT$4fold17h627b8f7a3b4ec8a5E', symObjAddr: 0x34, symBinAddr: 0x48D4C, symSize: 0x64 }
  - { offset: 0x8F41D, size: 0x8, addend: 0x0, symName: '__ZN108_$LT$core..iter..adapters..filter..Filter$LT$I$C$P$GT$$u20$as$u20$core..iter..traits..iterator..Iterator$GT$4next17hcd3d3b63b461a162E', symObjAddr: 0x98, symBinAddr: 0x48DB0, symSize: 0x2C }
  - { offset: 0x8F4CA, size: 0x8, addend: 0x0, symName: '__ZN4core4iter8adapters6filter11filter_fold28_$u7b$$u7b$closure$u7d$$u7d$17h05dee3991f6746d1E', symObjAddr: 0x1D8, symBinAddr: 0x48EF0, symSize: 0xD0 }
  - { offset: 0x8F54A, size: 0x8, addend: 0x0, symName: '__ZN4core4iter8adapters6filter11filter_fold28_$u7b$$u7b$closure$u7d$$u7d$17h35752976534302d4E', symObjAddr: 0x2A8, symBinAddr: 0x48FC0, symSize: 0xD4 }
  - { offset: 0x8F685, size: 0x8, addend: 0x0, symName: __ZN4core4iter6traits8iterator8Iterator6min_by17he770f4e5f4161bceE, symObjAddr: 0xC4, symBinAddr: 0x48DDC, symSize: 0x24 }
  - { offset: 0x8F6D5, size: 0x8, addend: 0x0, symName: __ZN4core4iter6traits8iterator8Iterator6reduce17ha77ec8fe5fdc3bf1E, symObjAddr: 0xE8, symBinAddr: 0x48E00, symSize: 0xF0 }
  - { offset: 0x8FCF9, size: 0x8, addend: 0x0, symName: __ZN4pyo35impl_10trampoline7newfunc5inner17ha8f24fcc3fb2498cE, symObjAddr: 0x0, symBinAddr: 0x49094, symSize: 0x50 }
  - { offset: 0x8FD9F, size: 0x8, addend: 0x0, symName: __ZN4pyo35impl_10trampoline7newfunc5inner17ha8f24fcc3fb2498cE, symObjAddr: 0x0, symBinAddr: 0x49094, symSize: 0x50 }
  - { offset: 0x905B1, size: 0x8, addend: 0x0, symName: '__ZN111_$LT$pyo3..impl_..pyclass..NoopThreadChecker$u20$as$u20$pyo3..impl_..pyclass..PyClassThreadChecker$LT$T$GT$$GT$3new17h025dab14cf48b056E', symObjAddr: 0x0, symBinAddr: 0x490E4, symSize: 0x4 }
  - { offset: 0x90A2D, size: 0x8, addend: 0x0, symName: '__ZN111_$LT$pyo3..impl_..pyclass..NoopThreadChecker$u20$as$u20$pyo3..impl_..pyclass..PyClassThreadChecker$LT$T$GT$$GT$3new17h025dab14cf48b056E', symObjAddr: 0x0, symBinAddr: 0x490E4, symSize: 0x4 }
  - { offset: 0x90A51, size: 0x8, addend: 0x0, symName: '__ZN111_$LT$pyo3..impl_..pyclass..NoopThreadChecker$u20$as$u20$pyo3..impl_..pyclass..PyClassThreadChecker$LT$T$GT$$GT$3new17h075debe6f4574855E', symObjAddr: 0x4, symBinAddr: 0x490E8, symSize: 0x4 }
  - { offset: 0x90A75, size: 0x8, addend: 0x0, symName: '__ZN111_$LT$pyo3..impl_..pyclass..NoopThreadChecker$u20$as$u20$pyo3..impl_..pyclass..PyClassThreadChecker$LT$T$GT$$GT$3new17h15adfc331f05e1baE', symObjAddr: 0x8, symBinAddr: 0x490EC, symSize: 0x4 }
  - { offset: 0x90A99, size: 0x8, addend: 0x0, symName: '__ZN111_$LT$pyo3..impl_..pyclass..NoopThreadChecker$u20$as$u20$pyo3..impl_..pyclass..PyClassThreadChecker$LT$T$GT$$GT$3new17h174ad193ebca3d3aE', symObjAddr: 0xC, symBinAddr: 0x490F0, symSize: 0x4 }
  - { offset: 0x90ABD, size: 0x8, addend: 0x0, symName: '__ZN111_$LT$pyo3..impl_..pyclass..NoopThreadChecker$u20$as$u20$pyo3..impl_..pyclass..PyClassThreadChecker$LT$T$GT$$GT$3new17h2522bd9146092ec8E', symObjAddr: 0x10, symBinAddr: 0x490F4, symSize: 0x4 }
  - { offset: 0x90AE1, size: 0x8, addend: 0x0, symName: '__ZN111_$LT$pyo3..impl_..pyclass..NoopThreadChecker$u20$as$u20$pyo3..impl_..pyclass..PyClassThreadChecker$LT$T$GT$$GT$3new17h344b92ebc5172082E', symObjAddr: 0x14, symBinAddr: 0x490F8, symSize: 0x4 }
  - { offset: 0x90B05, size: 0x8, addend: 0x0, symName: '__ZN111_$LT$pyo3..impl_..pyclass..NoopThreadChecker$u20$as$u20$pyo3..impl_..pyclass..PyClassThreadChecker$LT$T$GT$$GT$3new17h35ed5bcffc8898a2E', symObjAddr: 0x18, symBinAddr: 0x490FC, symSize: 0x4 }
  - { offset: 0x90B29, size: 0x8, addend: 0x0, symName: '__ZN111_$LT$pyo3..impl_..pyclass..NoopThreadChecker$u20$as$u20$pyo3..impl_..pyclass..PyClassThreadChecker$LT$T$GT$$GT$3new17h3f5fa93683a09b9cE', symObjAddr: 0x1C, symBinAddr: 0x49100, symSize: 0x4 }
  - { offset: 0x90B4D, size: 0x8, addend: 0x0, symName: '__ZN111_$LT$pyo3..impl_..pyclass..NoopThreadChecker$u20$as$u20$pyo3..impl_..pyclass..PyClassThreadChecker$LT$T$GT$$GT$3new17h4a935e00a4005e52E', symObjAddr: 0x20, symBinAddr: 0x49104, symSize: 0x4 }
  - { offset: 0x90B71, size: 0x8, addend: 0x0, symName: '__ZN111_$LT$pyo3..impl_..pyclass..NoopThreadChecker$u20$as$u20$pyo3..impl_..pyclass..PyClassThreadChecker$LT$T$GT$$GT$3new17h4c675fdf152d2378E', symObjAddr: 0x24, symBinAddr: 0x49108, symSize: 0x4 }
  - { offset: 0x90B95, size: 0x8, addend: 0x0, symName: '__ZN111_$LT$pyo3..impl_..pyclass..NoopThreadChecker$u20$as$u20$pyo3..impl_..pyclass..PyClassThreadChecker$LT$T$GT$$GT$3new17h4ec86ffde472d1a9E', symObjAddr: 0x28, symBinAddr: 0x4910C, symSize: 0x4 }
  - { offset: 0x90BB9, size: 0x8, addend: 0x0, symName: '__ZN111_$LT$pyo3..impl_..pyclass..NoopThreadChecker$u20$as$u20$pyo3..impl_..pyclass..PyClassThreadChecker$LT$T$GT$$GT$3new17h52d4b0e06e3e3805E', symObjAddr: 0x2C, symBinAddr: 0x49110, symSize: 0x4 }
  - { offset: 0x90BDD, size: 0x8, addend: 0x0, symName: '__ZN111_$LT$pyo3..impl_..pyclass..NoopThreadChecker$u20$as$u20$pyo3..impl_..pyclass..PyClassThreadChecker$LT$T$GT$$GT$3new17h57051e42ef2be67dE', symObjAddr: 0x30, symBinAddr: 0x49114, symSize: 0x4 }
  - { offset: 0x90C01, size: 0x8, addend: 0x0, symName: '__ZN111_$LT$pyo3..impl_..pyclass..NoopThreadChecker$u20$as$u20$pyo3..impl_..pyclass..PyClassThreadChecker$LT$T$GT$$GT$3new17h5bc2fba1e7460184E', symObjAddr: 0x34, symBinAddr: 0x49118, symSize: 0x4 }
  - { offset: 0x90C25, size: 0x8, addend: 0x0, symName: '__ZN111_$LT$pyo3..impl_..pyclass..NoopThreadChecker$u20$as$u20$pyo3..impl_..pyclass..PyClassThreadChecker$LT$T$GT$$GT$3new17h604144d2d01d4c9bE', symObjAddr: 0x38, symBinAddr: 0x4911C, symSize: 0x4 }
  - { offset: 0x90C49, size: 0x8, addend: 0x0, symName: '__ZN111_$LT$pyo3..impl_..pyclass..NoopThreadChecker$u20$as$u20$pyo3..impl_..pyclass..PyClassThreadChecker$LT$T$GT$$GT$3new17h663b3a1ed35d80e4E', symObjAddr: 0x3C, symBinAddr: 0x49120, symSize: 0x4 }
  - { offset: 0x90C6D, size: 0x8, addend: 0x0, symName: '__ZN111_$LT$pyo3..impl_..pyclass..NoopThreadChecker$u20$as$u20$pyo3..impl_..pyclass..PyClassThreadChecker$LT$T$GT$$GT$3new17h6cad9ee2b67c75b2E', symObjAddr: 0x40, symBinAddr: 0x49124, symSize: 0x4 }
  - { offset: 0x90C91, size: 0x8, addend: 0x0, symName: '__ZN111_$LT$pyo3..impl_..pyclass..NoopThreadChecker$u20$as$u20$pyo3..impl_..pyclass..PyClassThreadChecker$LT$T$GT$$GT$3new17h81afa07b727eb116E', symObjAddr: 0x44, symBinAddr: 0x49128, symSize: 0x4 }
  - { offset: 0x90CB5, size: 0x8, addend: 0x0, symName: '__ZN111_$LT$pyo3..impl_..pyclass..NoopThreadChecker$u20$as$u20$pyo3..impl_..pyclass..PyClassThreadChecker$LT$T$GT$$GT$3new17h9e928ec8dea7fe69E', symObjAddr: 0x48, symBinAddr: 0x4912C, symSize: 0x4 }
  - { offset: 0x90CD9, size: 0x8, addend: 0x0, symName: '__ZN111_$LT$pyo3..impl_..pyclass..NoopThreadChecker$u20$as$u20$pyo3..impl_..pyclass..PyClassThreadChecker$LT$T$GT$$GT$3new17ha2eef93703a8807fE', symObjAddr: 0x4C, symBinAddr: 0x49130, symSize: 0x4 }
  - { offset: 0x90CFD, size: 0x8, addend: 0x0, symName: '__ZN111_$LT$pyo3..impl_..pyclass..NoopThreadChecker$u20$as$u20$pyo3..impl_..pyclass..PyClassThreadChecker$LT$T$GT$$GT$3new17ha43d3df63c10f46dE', symObjAddr: 0x50, symBinAddr: 0x49134, symSize: 0x4 }
  - { offset: 0x90D21, size: 0x8, addend: 0x0, symName: '__ZN111_$LT$pyo3..impl_..pyclass..NoopThreadChecker$u20$as$u20$pyo3..impl_..pyclass..PyClassThreadChecker$LT$T$GT$$GT$3new17hb883f6b6bf4f3898E', symObjAddr: 0x54, symBinAddr: 0x49138, symSize: 0x4 }
  - { offset: 0x90D45, size: 0x8, addend: 0x0, symName: '__ZN111_$LT$pyo3..impl_..pyclass..NoopThreadChecker$u20$as$u20$pyo3..impl_..pyclass..PyClassThreadChecker$LT$T$GT$$GT$3new17hbbccb716556b7310E', symObjAddr: 0x58, symBinAddr: 0x4913C, symSize: 0x4 }
  - { offset: 0x90D69, size: 0x8, addend: 0x0, symName: '__ZN111_$LT$pyo3..impl_..pyclass..NoopThreadChecker$u20$as$u20$pyo3..impl_..pyclass..PyClassThreadChecker$LT$T$GT$$GT$3new17hc2ed243d6dc1c33dE', symObjAddr: 0x5C, symBinAddr: 0x49140, symSize: 0x4 }
  - { offset: 0x90D8D, size: 0x8, addend: 0x0, symName: '__ZN111_$LT$pyo3..impl_..pyclass..NoopThreadChecker$u20$as$u20$pyo3..impl_..pyclass..PyClassThreadChecker$LT$T$GT$$GT$3new17hd425e339f4742f67E', symObjAddr: 0x60, symBinAddr: 0x49144, symSize: 0x4 }
  - { offset: 0x90DB1, size: 0x8, addend: 0x0, symName: '__ZN111_$LT$pyo3..impl_..pyclass..NoopThreadChecker$u20$as$u20$pyo3..impl_..pyclass..PyClassThreadChecker$LT$T$GT$$GT$3new17hd59d4f9f0d904ce7E', symObjAddr: 0x64, symBinAddr: 0x49148, symSize: 0x4 }
  - { offset: 0x90DD5, size: 0x8, addend: 0x0, symName: '__ZN111_$LT$pyo3..impl_..pyclass..NoopThreadChecker$u20$as$u20$pyo3..impl_..pyclass..PyClassThreadChecker$LT$T$GT$$GT$3new17hdbc9473c12f9d049E', symObjAddr: 0x68, symBinAddr: 0x4914C, symSize: 0x4 }
  - { offset: 0x90DF9, size: 0x8, addend: 0x0, symName: '__ZN111_$LT$pyo3..impl_..pyclass..NoopThreadChecker$u20$as$u20$pyo3..impl_..pyclass..PyClassThreadChecker$LT$T$GT$$GT$3new17hf33e5e7e5c76938cE', symObjAddr: 0x6C, symBinAddr: 0x49150, symSize: 0x4 }
  - { offset: 0x90E1D, size: 0x8, addend: 0x0, symName: '__ZN111_$LT$pyo3..impl_..pyclass..NoopThreadChecker$u20$as$u20$pyo3..impl_..pyclass..PyClassThreadChecker$LT$T$GT$$GT$3new17hfa1aa5a836b644baE', symObjAddr: 0x70, symBinAddr: 0x49154, symSize: 0x4 }
  - { offset: 0x90E41, size: 0x8, addend: 0x0, symName: '__ZN111_$LT$pyo3..impl_..pyclass..NoopThreadChecker$u20$as$u20$pyo3..impl_..pyclass..PyClassThreadChecker$LT$T$GT$$GT$3new17hfc5f11811a2e7d4bE', symObjAddr: 0x74, symBinAddr: 0x49158, symSize: 0x4 }
  - { offset: 0x90E65, size: 0x8, addend: 0x0, symName: '__ZN111_$LT$pyo3..impl_..pyclass..NoopThreadChecker$u20$as$u20$pyo3..impl_..pyclass..PyClassThreadChecker$LT$T$GT$$GT$6ensure17h0932ed2fa074a92fE', symObjAddr: 0x78, symBinAddr: 0x4915C, symSize: 0x10 }
  - { offset: 0x90E98, size: 0x8, addend: 0x0, symName: '__ZN111_$LT$pyo3..impl_..pyclass..NoopThreadChecker$u20$as$u20$pyo3..impl_..pyclass..PyClassThreadChecker$LT$T$GT$$GT$6ensure17h0e5e1ef8916a6887E', symObjAddr: 0x88, symBinAddr: 0x4916C, symSize: 0x10 }
  - { offset: 0x90ECB, size: 0x8, addend: 0x0, symName: '__ZN111_$LT$pyo3..impl_..pyclass..NoopThreadChecker$u20$as$u20$pyo3..impl_..pyclass..PyClassThreadChecker$LT$T$GT$$GT$6ensure17h197cb036e847f441E', symObjAddr: 0x98, symBinAddr: 0x4917C, symSize: 0x10 }
  - { offset: 0x90EFE, size: 0x8, addend: 0x0, symName: '__ZN111_$LT$pyo3..impl_..pyclass..NoopThreadChecker$u20$as$u20$pyo3..impl_..pyclass..PyClassThreadChecker$LT$T$GT$$GT$6ensure17h20106b680ee3ccfcE', symObjAddr: 0xA8, symBinAddr: 0x4918C, symSize: 0x10 }
  - { offset: 0x90F31, size: 0x8, addend: 0x0, symName: '__ZN111_$LT$pyo3..impl_..pyclass..NoopThreadChecker$u20$as$u20$pyo3..impl_..pyclass..PyClassThreadChecker$LT$T$GT$$GT$6ensure17h20115d8dc9612a32E', symObjAddr: 0xB8, symBinAddr: 0x4919C, symSize: 0x10 }
  - { offset: 0x90F64, size: 0x8, addend: 0x0, symName: '__ZN111_$LT$pyo3..impl_..pyclass..NoopThreadChecker$u20$as$u20$pyo3..impl_..pyclass..PyClassThreadChecker$LT$T$GT$$GT$6ensure17h2012c3cac1d79bafE', symObjAddr: 0xC8, symBinAddr: 0x491AC, symSize: 0x10 }
  - { offset: 0x90F97, size: 0x8, addend: 0x0, symName: '__ZN111_$LT$pyo3..impl_..pyclass..NoopThreadChecker$u20$as$u20$pyo3..impl_..pyclass..PyClassThreadChecker$LT$T$GT$$GT$6ensure17h2b7cdd1fe4eb3654E', symObjAddr: 0xD8, symBinAddr: 0x491BC, symSize: 0x10 }
  - { offset: 0x90FCA, size: 0x8, addend: 0x0, symName: '__ZN111_$LT$pyo3..impl_..pyclass..NoopThreadChecker$u20$as$u20$pyo3..impl_..pyclass..PyClassThreadChecker$LT$T$GT$$GT$6ensure17h2d47d31bfe64c7a3E', symObjAddr: 0xE8, symBinAddr: 0x491CC, symSize: 0x10 }
  - { offset: 0x90FFD, size: 0x8, addend: 0x0, symName: '__ZN111_$LT$pyo3..impl_..pyclass..NoopThreadChecker$u20$as$u20$pyo3..impl_..pyclass..PyClassThreadChecker$LT$T$GT$$GT$6ensure17h2ed82204880d9d53E', symObjAddr: 0xF8, symBinAddr: 0x491DC, symSize: 0x10 }
  - { offset: 0x91030, size: 0x8, addend: 0x0, symName: '__ZN111_$LT$pyo3..impl_..pyclass..NoopThreadChecker$u20$as$u20$pyo3..impl_..pyclass..PyClassThreadChecker$LT$T$GT$$GT$6ensure17h31a6b7bc6a662ca5E', symObjAddr: 0x108, symBinAddr: 0x491EC, symSize: 0x10 }
  - { offset: 0x91063, size: 0x8, addend: 0x0, symName: '__ZN111_$LT$pyo3..impl_..pyclass..NoopThreadChecker$u20$as$u20$pyo3..impl_..pyclass..PyClassThreadChecker$LT$T$GT$$GT$6ensure17h4196c161761991dfE', symObjAddr: 0x118, symBinAddr: 0x491FC, symSize: 0x10 }
  - { offset: 0x91096, size: 0x8, addend: 0x0, symName: '__ZN111_$LT$pyo3..impl_..pyclass..NoopThreadChecker$u20$as$u20$pyo3..impl_..pyclass..PyClassThreadChecker$LT$T$GT$$GT$6ensure17h556be3bc27be47abE', symObjAddr: 0x128, symBinAddr: 0x4920C, symSize: 0x10 }
  - { offset: 0x910C9, size: 0x8, addend: 0x0, symName: '__ZN111_$LT$pyo3..impl_..pyclass..NoopThreadChecker$u20$as$u20$pyo3..impl_..pyclass..PyClassThreadChecker$LT$T$GT$$GT$6ensure17h5f2afd74a66cb7f3E', symObjAddr: 0x138, symBinAddr: 0x4921C, symSize: 0x10 }
  - { offset: 0x910FC, size: 0x8, addend: 0x0, symName: '__ZN111_$LT$pyo3..impl_..pyclass..NoopThreadChecker$u20$as$u20$pyo3..impl_..pyclass..PyClassThreadChecker$LT$T$GT$$GT$6ensure17h67e7a47ea66216a7E', symObjAddr: 0x148, symBinAddr: 0x4922C, symSize: 0x10 }
  - { offset: 0x9112F, size: 0x8, addend: 0x0, symName: '__ZN111_$LT$pyo3..impl_..pyclass..NoopThreadChecker$u20$as$u20$pyo3..impl_..pyclass..PyClassThreadChecker$LT$T$GT$$GT$6ensure17h7def6e4eda468c65E', symObjAddr: 0x158, symBinAddr: 0x4923C, symSize: 0x10 }
  - { offset: 0x91162, size: 0x8, addend: 0x0, symName: '__ZN111_$LT$pyo3..impl_..pyclass..NoopThreadChecker$u20$as$u20$pyo3..impl_..pyclass..PyClassThreadChecker$LT$T$GT$$GT$6ensure17h877a7556b558057eE', symObjAddr: 0x168, symBinAddr: 0x4924C, symSize: 0x10 }
  - { offset: 0x91195, size: 0x8, addend: 0x0, symName: '__ZN111_$LT$pyo3..impl_..pyclass..NoopThreadChecker$u20$as$u20$pyo3..impl_..pyclass..PyClassThreadChecker$LT$T$GT$$GT$6ensure17h87896d632d87a8b3E', symObjAddr: 0x178, symBinAddr: 0x4925C, symSize: 0x10 }
  - { offset: 0x911C8, size: 0x8, addend: 0x0, symName: '__ZN111_$LT$pyo3..impl_..pyclass..NoopThreadChecker$u20$as$u20$pyo3..impl_..pyclass..PyClassThreadChecker$LT$T$GT$$GT$6ensure17h88917e6997ee0f39E', symObjAddr: 0x188, symBinAddr: 0x4926C, symSize: 0x10 }
  - { offset: 0x911FB, size: 0x8, addend: 0x0, symName: '__ZN111_$LT$pyo3..impl_..pyclass..NoopThreadChecker$u20$as$u20$pyo3..impl_..pyclass..PyClassThreadChecker$LT$T$GT$$GT$6ensure17h8c77b6822d25fed7E', symObjAddr: 0x198, symBinAddr: 0x4927C, symSize: 0x10 }
  - { offset: 0x9122E, size: 0x8, addend: 0x0, symName: '__ZN111_$LT$pyo3..impl_..pyclass..NoopThreadChecker$u20$as$u20$pyo3..impl_..pyclass..PyClassThreadChecker$LT$T$GT$$GT$6ensure17ha0d332ba22bb5e50E', symObjAddr: 0x1A8, symBinAddr: 0x4928C, symSize: 0x10 }
  - { offset: 0x91261, size: 0x8, addend: 0x0, symName: '__ZN111_$LT$pyo3..impl_..pyclass..NoopThreadChecker$u20$as$u20$pyo3..impl_..pyclass..PyClassThreadChecker$LT$T$GT$$GT$6ensure17hab1ab39de861e829E', symObjAddr: 0x1B8, symBinAddr: 0x4929C, symSize: 0x10 }
  - { offset: 0x91294, size: 0x8, addend: 0x0, symName: '__ZN111_$LT$pyo3..impl_..pyclass..NoopThreadChecker$u20$as$u20$pyo3..impl_..pyclass..PyClassThreadChecker$LT$T$GT$$GT$6ensure17hbef77534383b3186E', symObjAddr: 0x1C8, symBinAddr: 0x492AC, symSize: 0x10 }
  - { offset: 0x912C7, size: 0x8, addend: 0x0, symName: '__ZN111_$LT$pyo3..impl_..pyclass..NoopThreadChecker$u20$as$u20$pyo3..impl_..pyclass..PyClassThreadChecker$LT$T$GT$$GT$6ensure17hc4b88c43f2351ef5E', symObjAddr: 0x1D8, symBinAddr: 0x492BC, symSize: 0x10 }
  - { offset: 0x912FA, size: 0x8, addend: 0x0, symName: '__ZN111_$LT$pyo3..impl_..pyclass..NoopThreadChecker$u20$as$u20$pyo3..impl_..pyclass..PyClassThreadChecker$LT$T$GT$$GT$6ensure17hcb8d123d3133173fE', symObjAddr: 0x1E8, symBinAddr: 0x492CC, symSize: 0x10 }
  - { offset: 0x9132D, size: 0x8, addend: 0x0, symName: '__ZN111_$LT$pyo3..impl_..pyclass..NoopThreadChecker$u20$as$u20$pyo3..impl_..pyclass..PyClassThreadChecker$LT$T$GT$$GT$6ensure17hd292c9226706170dE', symObjAddr: 0x1F8, symBinAddr: 0x492DC, symSize: 0x10 }
  - { offset: 0x91360, size: 0x8, addend: 0x0, symName: '__ZN111_$LT$pyo3..impl_..pyclass..NoopThreadChecker$u20$as$u20$pyo3..impl_..pyclass..PyClassThreadChecker$LT$T$GT$$GT$6ensure17hecbb82318d24defbE', symObjAddr: 0x208, symBinAddr: 0x492EC, symSize: 0x10 }
  - { offset: 0x91393, size: 0x8, addend: 0x0, symName: '__ZN111_$LT$pyo3..impl_..pyclass..NoopThreadChecker$u20$as$u20$pyo3..impl_..pyclass..PyClassThreadChecker$LT$T$GT$$GT$6ensure17hefefa1d0c64dbeacE', symObjAddr: 0x218, symBinAddr: 0x492FC, symSize: 0x10 }
  - { offset: 0x913C6, size: 0x8, addend: 0x0, symName: '__ZN111_$LT$pyo3..impl_..pyclass..NoopThreadChecker$u20$as$u20$pyo3..impl_..pyclass..PyClassThreadChecker$LT$T$GT$$GT$6ensure17hf11d7a5f66584984E', symObjAddr: 0x228, symBinAddr: 0x4930C, symSize: 0x10 }
  - { offset: 0x913F9, size: 0x8, addend: 0x0, symName: '__ZN111_$LT$pyo3..impl_..pyclass..NoopThreadChecker$u20$as$u20$pyo3..impl_..pyclass..PyClassThreadChecker$LT$T$GT$$GT$8can_drop17h1410a6a42de6730fE', symObjAddr: 0x238, symBinAddr: 0x4931C, symSize: 0x18 }
  - { offset: 0x9144B, size: 0x8, addend: 0x0, symName: '__ZN111_$LT$pyo3..impl_..pyclass..NoopThreadChecker$u20$as$u20$pyo3..impl_..pyclass..PyClassThreadChecker$LT$T$GT$$GT$8can_drop17h2fbe008ee5df3a20E', symObjAddr: 0x250, symBinAddr: 0x49334, symSize: 0x18 }
  - { offset: 0x9149D, size: 0x8, addend: 0x0, symName: '__ZN111_$LT$pyo3..impl_..pyclass..NoopThreadChecker$u20$as$u20$pyo3..impl_..pyclass..PyClassThreadChecker$LT$T$GT$$GT$8can_drop17h31a19cf8587015cbE', symObjAddr: 0x268, symBinAddr: 0x4934C, symSize: 0x18 }
  - { offset: 0x914EF, size: 0x8, addend: 0x0, symName: '__ZN111_$LT$pyo3..impl_..pyclass..NoopThreadChecker$u20$as$u20$pyo3..impl_..pyclass..PyClassThreadChecker$LT$T$GT$$GT$8can_drop17h331664896e3ac500E', symObjAddr: 0x280, symBinAddr: 0x49364, symSize: 0x18 }
  - { offset: 0x91541, size: 0x8, addend: 0x0, symName: '__ZN111_$LT$pyo3..impl_..pyclass..NoopThreadChecker$u20$as$u20$pyo3..impl_..pyclass..PyClassThreadChecker$LT$T$GT$$GT$8can_drop17h383bd51ffd405258E', symObjAddr: 0x298, symBinAddr: 0x4937C, symSize: 0x18 }
  - { offset: 0x91593, size: 0x8, addend: 0x0, symName: '__ZN111_$LT$pyo3..impl_..pyclass..NoopThreadChecker$u20$as$u20$pyo3..impl_..pyclass..PyClassThreadChecker$LT$T$GT$$GT$8can_drop17h3f74809ee4a78c4eE', symObjAddr: 0x2B0, symBinAddr: 0x49394, symSize: 0x18 }
  - { offset: 0x915E5, size: 0x8, addend: 0x0, symName: '__ZN111_$LT$pyo3..impl_..pyclass..NoopThreadChecker$u20$as$u20$pyo3..impl_..pyclass..PyClassThreadChecker$LT$T$GT$$GT$8can_drop17h45dad0020e2def06E', symObjAddr: 0x2C8, symBinAddr: 0x493AC, symSize: 0x18 }
  - { offset: 0x91637, size: 0x8, addend: 0x0, symName: '__ZN111_$LT$pyo3..impl_..pyclass..NoopThreadChecker$u20$as$u20$pyo3..impl_..pyclass..PyClassThreadChecker$LT$T$GT$$GT$8can_drop17h4633c5a34d47d7dfE', symObjAddr: 0x2E0, symBinAddr: 0x493C4, symSize: 0x18 }
  - { offset: 0x91689, size: 0x8, addend: 0x0, symName: '__ZN111_$LT$pyo3..impl_..pyclass..NoopThreadChecker$u20$as$u20$pyo3..impl_..pyclass..PyClassThreadChecker$LT$T$GT$$GT$8can_drop17h513dd26e98ffdedfE', symObjAddr: 0x2F8, symBinAddr: 0x493DC, symSize: 0x18 }
  - { offset: 0x916DB, size: 0x8, addend: 0x0, symName: '__ZN111_$LT$pyo3..impl_..pyclass..NoopThreadChecker$u20$as$u20$pyo3..impl_..pyclass..PyClassThreadChecker$LT$T$GT$$GT$8can_drop17h562108738d7eb8b8E', symObjAddr: 0x310, symBinAddr: 0x493F4, symSize: 0x18 }
  - { offset: 0x9172D, size: 0x8, addend: 0x0, symName: '__ZN111_$LT$pyo3..impl_..pyclass..NoopThreadChecker$u20$as$u20$pyo3..impl_..pyclass..PyClassThreadChecker$LT$T$GT$$GT$8can_drop17h563040fe7da3c75eE', symObjAddr: 0x328, symBinAddr: 0x4940C, symSize: 0x18 }
  - { offset: 0x9177F, size: 0x8, addend: 0x0, symName: '__ZN111_$LT$pyo3..impl_..pyclass..NoopThreadChecker$u20$as$u20$pyo3..impl_..pyclass..PyClassThreadChecker$LT$T$GT$$GT$8can_drop17h5a34bc11d2bfa2bfE', symObjAddr: 0x340, symBinAddr: 0x49424, symSize: 0x18 }
  - { offset: 0x917D1, size: 0x8, addend: 0x0, symName: '__ZN111_$LT$pyo3..impl_..pyclass..NoopThreadChecker$u20$as$u20$pyo3..impl_..pyclass..PyClassThreadChecker$LT$T$GT$$GT$8can_drop17h5c992b59ac3527c1E', symObjAddr: 0x358, symBinAddr: 0x4943C, symSize: 0x18 }
  - { offset: 0x91823, size: 0x8, addend: 0x0, symName: '__ZN111_$LT$pyo3..impl_..pyclass..NoopThreadChecker$u20$as$u20$pyo3..impl_..pyclass..PyClassThreadChecker$LT$T$GT$$GT$8can_drop17h62e22ca251882bfaE', symObjAddr: 0x370, symBinAddr: 0x49454, symSize: 0x18 }
  - { offset: 0x91875, size: 0x8, addend: 0x0, symName: '__ZN111_$LT$pyo3..impl_..pyclass..NoopThreadChecker$u20$as$u20$pyo3..impl_..pyclass..PyClassThreadChecker$LT$T$GT$$GT$8can_drop17h649e953c36774f52E', symObjAddr: 0x388, symBinAddr: 0x4946C, symSize: 0x18 }
  - { offset: 0x918C7, size: 0x8, addend: 0x0, symName: '__ZN111_$LT$pyo3..impl_..pyclass..NoopThreadChecker$u20$as$u20$pyo3..impl_..pyclass..PyClassThreadChecker$LT$T$GT$$GT$8can_drop17h64d29a0b9a58efcfE', symObjAddr: 0x3A0, symBinAddr: 0x49484, symSize: 0x18 }
  - { offset: 0x91919, size: 0x8, addend: 0x0, symName: '__ZN111_$LT$pyo3..impl_..pyclass..NoopThreadChecker$u20$as$u20$pyo3..impl_..pyclass..PyClassThreadChecker$LT$T$GT$$GT$8can_drop17h7898c59678caccc2E', symObjAddr: 0x3B8, symBinAddr: 0x4949C, symSize: 0x18 }
  - { offset: 0x9196B, size: 0x8, addend: 0x0, symName: '__ZN111_$LT$pyo3..impl_..pyclass..NoopThreadChecker$u20$as$u20$pyo3..impl_..pyclass..PyClassThreadChecker$LT$T$GT$$GT$8can_drop17h798570961721dbc0E', symObjAddr: 0x3D0, symBinAddr: 0x494B4, symSize: 0x18 }
  - { offset: 0x919BD, size: 0x8, addend: 0x0, symName: '__ZN111_$LT$pyo3..impl_..pyclass..NoopThreadChecker$u20$as$u20$pyo3..impl_..pyclass..PyClassThreadChecker$LT$T$GT$$GT$8can_drop17h7ddd1e1f26f0940cE', symObjAddr: 0x3E8, symBinAddr: 0x494CC, symSize: 0x18 }
  - { offset: 0x91A0F, size: 0x8, addend: 0x0, symName: '__ZN111_$LT$pyo3..impl_..pyclass..NoopThreadChecker$u20$as$u20$pyo3..impl_..pyclass..PyClassThreadChecker$LT$T$GT$$GT$8can_drop17h7fcb9030623c8dfcE', symObjAddr: 0x400, symBinAddr: 0x494E4, symSize: 0x18 }
  - { offset: 0x91A61, size: 0x8, addend: 0x0, symName: '__ZN111_$LT$pyo3..impl_..pyclass..NoopThreadChecker$u20$as$u20$pyo3..impl_..pyclass..PyClassThreadChecker$LT$T$GT$$GT$8can_drop17h8eddd29269d6f085E', symObjAddr: 0x418, symBinAddr: 0x494FC, symSize: 0x18 }
  - { offset: 0x91AB3, size: 0x8, addend: 0x0, symName: '__ZN111_$LT$pyo3..impl_..pyclass..NoopThreadChecker$u20$as$u20$pyo3..impl_..pyclass..PyClassThreadChecker$LT$T$GT$$GT$8can_drop17ha60d42c3d9074490E', symObjAddr: 0x430, symBinAddr: 0x49514, symSize: 0x18 }
  - { offset: 0x91B05, size: 0x8, addend: 0x0, symName: '__ZN111_$LT$pyo3..impl_..pyclass..NoopThreadChecker$u20$as$u20$pyo3..impl_..pyclass..PyClassThreadChecker$LT$T$GT$$GT$8can_drop17hb67e939f4b4f3b13E', symObjAddr: 0x448, symBinAddr: 0x4952C, symSize: 0x18 }
  - { offset: 0x91B57, size: 0x8, addend: 0x0, symName: '__ZN111_$LT$pyo3..impl_..pyclass..NoopThreadChecker$u20$as$u20$pyo3..impl_..pyclass..PyClassThreadChecker$LT$T$GT$$GT$8can_drop17hd8a92203e83eb179E', symObjAddr: 0x460, symBinAddr: 0x49544, symSize: 0x18 }
  - { offset: 0x91BA9, size: 0x8, addend: 0x0, symName: '__ZN111_$LT$pyo3..impl_..pyclass..NoopThreadChecker$u20$as$u20$pyo3..impl_..pyclass..PyClassThreadChecker$LT$T$GT$$GT$8can_drop17he6c33a42f1651ae2E', symObjAddr: 0x478, symBinAddr: 0x4955C, symSize: 0x18 }
  - { offset: 0x91BFB, size: 0x8, addend: 0x0, symName: '__ZN111_$LT$pyo3..impl_..pyclass..NoopThreadChecker$u20$as$u20$pyo3..impl_..pyclass..PyClassThreadChecker$LT$T$GT$$GT$8can_drop17heb1bf4809129cbadE', symObjAddr: 0x490, symBinAddr: 0x49574, symSize: 0x18 }
  - { offset: 0x91C4D, size: 0x8, addend: 0x0, symName: '__ZN111_$LT$pyo3..impl_..pyclass..NoopThreadChecker$u20$as$u20$pyo3..impl_..pyclass..PyClassThreadChecker$LT$T$GT$$GT$8can_drop17hf113105194c6de84E', symObjAddr: 0x4A8, symBinAddr: 0x4958C, symSize: 0x18 }
  - { offset: 0x91C9F, size: 0x8, addend: 0x0, symName: '__ZN111_$LT$pyo3..impl_..pyclass..NoopThreadChecker$u20$as$u20$pyo3..impl_..pyclass..PyClassThreadChecker$LT$T$GT$$GT$8can_drop17hfa45b4be88237912E', symObjAddr: 0x4C0, symBinAddr: 0x495A4, symSize: 0x18 }
  - { offset: 0x91CF1, size: 0x8, addend: 0x0, symName: '__ZN111_$LT$pyo3..impl_..pyclass..NoopThreadChecker$u20$as$u20$pyo3..impl_..pyclass..PyClassThreadChecker$LT$T$GT$$GT$8can_drop17hfb0180c3a7ffb173E', symObjAddr: 0x4D8, symBinAddr: 0x495BC, symSize: 0x18 }
  - { offset: 0x91D43, size: 0x8, addend: 0x0, symName: '__ZN111_$LT$pyo3..impl_..pyclass..NoopThreadChecker$u20$as$u20$pyo3..impl_..pyclass..PyClassThreadChecker$LT$T$GT$$GT$8can_drop17hfb1aa9b06051f6caE', symObjAddr: 0x4F0, symBinAddr: 0x495D4, symSize: 0x18 }
  - { offset: 0x91D96, size: 0x8, addend: 0x0, symName: __ZN4pyo35impl_7pyclass10tp_dealloc17h0a7ce31175723940E, symObjAddr: 0x508, symBinAddr: 0x495EC, symSize: 0x34 }
  - { offset: 0x91DC9, size: 0x8, addend: 0x0, symName: __ZN4pyo35impl_7pyclass10tp_dealloc17h124c3e9bba53ce1dE, symObjAddr: 0x53C, symBinAddr: 0x49620, symSize: 0x34 }
  - { offset: 0x91DFC, size: 0x8, addend: 0x0, symName: __ZN4pyo35impl_7pyclass10tp_dealloc17h16530368eb5169a8E, symObjAddr: 0x570, symBinAddr: 0x49654, symSize: 0x34 }
  - { offset: 0x91E2F, size: 0x8, addend: 0x0, symName: __ZN4pyo35impl_7pyclass10tp_dealloc17h18323e5315a9a38fE, symObjAddr: 0x5A4, symBinAddr: 0x49688, symSize: 0x34 }
  - { offset: 0x91E62, size: 0x8, addend: 0x0, symName: __ZN4pyo35impl_7pyclass10tp_dealloc17h24565bde68a39f38E, symObjAddr: 0x5D8, symBinAddr: 0x496BC, symSize: 0x34 }
  - { offset: 0x91E95, size: 0x8, addend: 0x0, symName: __ZN4pyo35impl_7pyclass10tp_dealloc17h33ec8897f23594c0E, symObjAddr: 0x60C, symBinAddr: 0x496F0, symSize: 0x34 }
  - { offset: 0x91EC8, size: 0x8, addend: 0x0, symName: __ZN4pyo35impl_7pyclass10tp_dealloc17h361b6383d5db6e55E, symObjAddr: 0x640, symBinAddr: 0x49724, symSize: 0x34 }
  - { offset: 0x91EFB, size: 0x8, addend: 0x0, symName: __ZN4pyo35impl_7pyclass10tp_dealloc17h590164d3b9190970E, symObjAddr: 0x674, symBinAddr: 0x49758, symSize: 0x34 }
  - { offset: 0x91F2E, size: 0x8, addend: 0x0, symName: __ZN4pyo35impl_7pyclass10tp_dealloc17h6725a3a564e4587dE, symObjAddr: 0x6A8, symBinAddr: 0x4978C, symSize: 0x34 }
  - { offset: 0x91F61, size: 0x8, addend: 0x0, symName: __ZN4pyo35impl_7pyclass10tp_dealloc17h6c09ed080f16b7e1E, symObjAddr: 0x6DC, symBinAddr: 0x497C0, symSize: 0x34 }
  - { offset: 0x91F94, size: 0x8, addend: 0x0, symName: __ZN4pyo35impl_7pyclass10tp_dealloc17h735bae544fd1a6d8E, symObjAddr: 0x710, symBinAddr: 0x497F4, symSize: 0x34 }
  - { offset: 0x91FC7, size: 0x8, addend: 0x0, symName: __ZN4pyo35impl_7pyclass10tp_dealloc17h75c9e40a87eb34aeE, symObjAddr: 0x744, symBinAddr: 0x49828, symSize: 0x34 }
  - { offset: 0x91FFA, size: 0x8, addend: 0x0, symName: __ZN4pyo35impl_7pyclass10tp_dealloc17h78c391788741a6bdE, symObjAddr: 0x778, symBinAddr: 0x4985C, symSize: 0x34 }
  - { offset: 0x9202D, size: 0x8, addend: 0x0, symName: __ZN4pyo35impl_7pyclass10tp_dealloc17h7bfe66262736918bE, symObjAddr: 0x7AC, symBinAddr: 0x49890, symSize: 0x34 }
  - { offset: 0x92060, size: 0x8, addend: 0x0, symName: __ZN4pyo35impl_7pyclass10tp_dealloc17h7e257c2af90d2e7aE, symObjAddr: 0x7E0, symBinAddr: 0x498C4, symSize: 0x34 }
  - { offset: 0x92093, size: 0x8, addend: 0x0, symName: __ZN4pyo35impl_7pyclass10tp_dealloc17h8661113f3ca03ea5E, symObjAddr: 0x814, symBinAddr: 0x498F8, symSize: 0x34 }
  - { offset: 0x920C6, size: 0x8, addend: 0x0, symName: __ZN4pyo35impl_7pyclass10tp_dealloc17h8c5dcd5461c7a0e2E, symObjAddr: 0x848, symBinAddr: 0x4992C, symSize: 0x34 }
  - { offset: 0x920F9, size: 0x8, addend: 0x0, symName: __ZN4pyo35impl_7pyclass10tp_dealloc17h91d5cbbb40ede165E, symObjAddr: 0x87C, symBinAddr: 0x49960, symSize: 0x34 }
  - { offset: 0x9212C, size: 0x8, addend: 0x0, symName: __ZN4pyo35impl_7pyclass10tp_dealloc17h9250cd547d60779bE, symObjAddr: 0x8B0, symBinAddr: 0x49994, symSize: 0x34 }
  - { offset: 0x9215F, size: 0x8, addend: 0x0, symName: __ZN4pyo35impl_7pyclass10tp_dealloc17h925eed89bf6b09cbE, symObjAddr: 0x8E4, symBinAddr: 0x499C8, symSize: 0x34 }
  - { offset: 0x92192, size: 0x8, addend: 0x0, symName: __ZN4pyo35impl_7pyclass10tp_dealloc17h99033716ed7aadb4E, symObjAddr: 0x918, symBinAddr: 0x499FC, symSize: 0x34 }
  - { offset: 0x921C5, size: 0x8, addend: 0x0, symName: __ZN4pyo35impl_7pyclass10tp_dealloc17h99c9cb9b316864d2E, symObjAddr: 0x94C, symBinAddr: 0x49A30, symSize: 0x34 }
  - { offset: 0x921F8, size: 0x8, addend: 0x0, symName: __ZN4pyo35impl_7pyclass10tp_dealloc17ha00b571fb6c9a47fE, symObjAddr: 0x980, symBinAddr: 0x49A64, symSize: 0x34 }
  - { offset: 0x9222B, size: 0x8, addend: 0x0, symName: __ZN4pyo35impl_7pyclass10tp_dealloc17hb2b817cb4703d143E, symObjAddr: 0x9B4, symBinAddr: 0x49A98, symSize: 0x34 }
  - { offset: 0x9225E, size: 0x8, addend: 0x0, symName: __ZN4pyo35impl_7pyclass10tp_dealloc17hd7815059f8febc25E, symObjAddr: 0x9E8, symBinAddr: 0x49ACC, symSize: 0x34 }
  - { offset: 0x92291, size: 0x8, addend: 0x0, symName: __ZN4pyo35impl_7pyclass10tp_dealloc17hd9d37db98f57dc97E, symObjAddr: 0xA1C, symBinAddr: 0x49B00, symSize: 0x34 }
  - { offset: 0x922C4, size: 0x8, addend: 0x0, symName: __ZN4pyo35impl_7pyclass10tp_dealloc17he5ea38f01f685215E, symObjAddr: 0xA50, symBinAddr: 0x49B34, symSize: 0x34 }
  - { offset: 0x922F7, size: 0x8, addend: 0x0, symName: __ZN4pyo35impl_7pyclass10tp_dealloc17heeabd49a67e249bcE, symObjAddr: 0xA84, symBinAddr: 0x49B68, symSize: 0x34 }
  - { offset: 0x9232A, size: 0x8, addend: 0x0, symName: __ZN4pyo35impl_7pyclass10tp_dealloc17hf9a17af419df63daE, symObjAddr: 0xAB8, symBinAddr: 0x49B9C, symSize: 0x34 }
  - { offset: 0x9235D, size: 0x8, addend: 0x0, symName: __ZN4pyo35impl_7pyclass10tp_dealloc17hff745d1e16131907E, symObjAddr: 0xAEC, symBinAddr: 0x49BD0, symSize: 0x34 }
  - { offset: 0x92390, size: 0x8, addend: 0x0, symName: __ZN4pyo35impl_7pyclass18tp_dealloc_with_gc17h1b2b9d1c45732f40E, symObjAddr: 0xB20, symBinAddr: 0x49C04, symSize: 0x4C }
  - { offset: 0x923E1, size: 0x8, addend: 0x0, symName: __ZN4pyo35impl_7pyclass18tp_dealloc_with_gc17h1beb67b37f159423E, symObjAddr: 0xB6C, symBinAddr: 0x49C50, symSize: 0x4C }
  - { offset: 0x92432, size: 0x8, addend: 0x0, symName: __ZN4pyo35impl_7pyclass18tp_dealloc_with_gc17h1f73c65fdf6dc805E, symObjAddr: 0xBB8, symBinAddr: 0x49C9C, symSize: 0x4C }
  - { offset: 0x92483, size: 0x8, addend: 0x0, symName: __ZN4pyo35impl_7pyclass18tp_dealloc_with_gc17h278b747bc4f79544E, symObjAddr: 0xC04, symBinAddr: 0x49CE8, symSize: 0x4C }
  - { offset: 0x924D4, size: 0x8, addend: 0x0, symName: __ZN4pyo35impl_7pyclass18tp_dealloc_with_gc17h2ca7942239aa992dE, symObjAddr: 0xC50, symBinAddr: 0x49D34, symSize: 0x4C }
  - { offset: 0x92525, size: 0x8, addend: 0x0, symName: __ZN4pyo35impl_7pyclass18tp_dealloc_with_gc17h31a89dac3c22e569E, symObjAddr: 0xC9C, symBinAddr: 0x49D80, symSize: 0x4C }
  - { offset: 0x92576, size: 0x8, addend: 0x0, symName: __ZN4pyo35impl_7pyclass18tp_dealloc_with_gc17h32fcacf3c9244975E, symObjAddr: 0xCE8, symBinAddr: 0x49DCC, symSize: 0x4C }
  - { offset: 0x925C7, size: 0x8, addend: 0x0, symName: __ZN4pyo35impl_7pyclass18tp_dealloc_with_gc17h4425f27d0290dc3cE, symObjAddr: 0xD34, symBinAddr: 0x49E18, symSize: 0x4C }
  - { offset: 0x92618, size: 0x8, addend: 0x0, symName: __ZN4pyo35impl_7pyclass18tp_dealloc_with_gc17h4ab4551f98631e69E, symObjAddr: 0xD80, symBinAddr: 0x49E64, symSize: 0x4C }
  - { offset: 0x92669, size: 0x8, addend: 0x0, symName: __ZN4pyo35impl_7pyclass18tp_dealloc_with_gc17h4ad0995e7a4394f8E, symObjAddr: 0xDCC, symBinAddr: 0x49EB0, symSize: 0x4C }
  - { offset: 0x926BA, size: 0x8, addend: 0x0, symName: __ZN4pyo35impl_7pyclass18tp_dealloc_with_gc17h503966fdd981c8bcE, symObjAddr: 0xE18, symBinAddr: 0x49EFC, symSize: 0x4C }
  - { offset: 0x9270B, size: 0x8, addend: 0x0, symName: __ZN4pyo35impl_7pyclass18tp_dealloc_with_gc17h518c2402b1dbb99aE, symObjAddr: 0xE64, symBinAddr: 0x49F48, symSize: 0x4C }
  - { offset: 0x9275C, size: 0x8, addend: 0x0, symName: __ZN4pyo35impl_7pyclass18tp_dealloc_with_gc17h56001e97a2403d2dE, symObjAddr: 0xEB0, symBinAddr: 0x49F94, symSize: 0x4C }
  - { offset: 0x927AD, size: 0x8, addend: 0x0, symName: __ZN4pyo35impl_7pyclass18tp_dealloc_with_gc17h5fd0a4745f923ef7E, symObjAddr: 0xEFC, symBinAddr: 0x49FE0, symSize: 0x4C }
  - { offset: 0x927FE, size: 0x8, addend: 0x0, symName: __ZN4pyo35impl_7pyclass18tp_dealloc_with_gc17h9139053a6d648bc3E, symObjAddr: 0xF48, symBinAddr: 0x4A02C, symSize: 0x4C }
  - { offset: 0x9284F, size: 0x8, addend: 0x0, symName: __ZN4pyo35impl_7pyclass18tp_dealloc_with_gc17h986a0f4b50a3811aE, symObjAddr: 0xF94, symBinAddr: 0x4A078, symSize: 0x4C }
  - { offset: 0x928A0, size: 0x8, addend: 0x0, symName: __ZN4pyo35impl_7pyclass18tp_dealloc_with_gc17h9c3c87ce7a961a1bE, symObjAddr: 0xFE0, symBinAddr: 0x4A0C4, symSize: 0x4C }
  - { offset: 0x928F1, size: 0x8, addend: 0x0, symName: __ZN4pyo35impl_7pyclass18tp_dealloc_with_gc17ha53f7ab4e3bce2dfE, symObjAddr: 0x102C, symBinAddr: 0x4A110, symSize: 0x4C }
  - { offset: 0x92942, size: 0x8, addend: 0x0, symName: __ZN4pyo35impl_7pyclass18tp_dealloc_with_gc17ha57d27e54ae39fcdE, symObjAddr: 0x1078, symBinAddr: 0x4A15C, symSize: 0x4C }
  - { offset: 0x92993, size: 0x8, addend: 0x0, symName: __ZN4pyo35impl_7pyclass18tp_dealloc_with_gc17haa1e37c9502f869aE, symObjAddr: 0x10C4, symBinAddr: 0x4A1A8, symSize: 0x4C }
  - { offset: 0x929E4, size: 0x8, addend: 0x0, symName: __ZN4pyo35impl_7pyclass18tp_dealloc_with_gc17had0e822dae2fb50aE, symObjAddr: 0x1110, symBinAddr: 0x4A1F4, symSize: 0x4C }
  - { offset: 0x92A35, size: 0x8, addend: 0x0, symName: __ZN4pyo35impl_7pyclass18tp_dealloc_with_gc17hb84c2bd13ee56b64E, symObjAddr: 0x115C, symBinAddr: 0x4A240, symSize: 0x4C }
  - { offset: 0x92A86, size: 0x8, addend: 0x0, symName: __ZN4pyo35impl_7pyclass18tp_dealloc_with_gc17hc5ebd1165cb6ac6eE, symObjAddr: 0x11A8, symBinAddr: 0x4A28C, symSize: 0x4C }
  - { offset: 0x92AD7, size: 0x8, addend: 0x0, symName: __ZN4pyo35impl_7pyclass18tp_dealloc_with_gc17hdaf0fd947990b94fE, symObjAddr: 0x11F4, symBinAddr: 0x4A2D8, symSize: 0x4C }
  - { offset: 0x92B28, size: 0x8, addend: 0x0, symName: __ZN4pyo35impl_7pyclass18tp_dealloc_with_gc17he2561cffee0b2fe5E, symObjAddr: 0x1240, symBinAddr: 0x4A324, symSize: 0x4C }
  - { offset: 0x92B79, size: 0x8, addend: 0x0, symName: __ZN4pyo35impl_7pyclass18tp_dealloc_with_gc17he7895ae4780e1f72E, symObjAddr: 0x128C, symBinAddr: 0x4A370, symSize: 0x4C }
  - { offset: 0x92BCA, size: 0x8, addend: 0x0, symName: __ZN4pyo35impl_7pyclass18tp_dealloc_with_gc17heb73b67d6e0f4f59E, symObjAddr: 0x12D8, symBinAddr: 0x4A3BC, symSize: 0x4C }
  - { offset: 0x92C1B, size: 0x8, addend: 0x0, symName: __ZN4pyo35impl_7pyclass18tp_dealloc_with_gc17hebfde0174912feb2E, symObjAddr: 0x1324, symBinAddr: 0x4A408, symSize: 0x4C }
  - { offset: 0x92C6C, size: 0x8, addend: 0x0, symName: __ZN4pyo35impl_7pyclass18tp_dealloc_with_gc17hf613d18334b55597E, symObjAddr: 0x1370, symBinAddr: 0x4A454, symSize: 0x4C }
  - { offset: 0x92CBD, size: 0x8, addend: 0x0, symName: __ZN4pyo35impl_7pyclass18tp_dealloc_with_gc17hfbb70179ef7fae33E, symObjAddr: 0x13BC, symBinAddr: 0x4A4A0, symSize: 0x4C }
  - { offset: 0x941D0, size: 0x8, addend: 0x0, symName: '__ZN4pyo35impl_7pyclass29PyClassImplCollector$LT$T$GT$3new17h06bb4e0391c4030eE', symObjAddr: 0x1408, symBinAddr: 0x4A4EC, symSize: 0x4 }
  - { offset: 0x9421D, size: 0x8, addend: 0x0, symName: '__ZN4pyo35impl_7pyclass29PyClassImplCollector$LT$T$GT$3new17h097b3228552691e5E', symObjAddr: 0x140C, symBinAddr: 0x4A4F0, symSize: 0x4 }
  - { offset: 0x9423A, size: 0x8, addend: 0x0, symName: '__ZN4pyo35impl_7pyclass29PyClassImplCollector$LT$T$GT$3new17h0b173da5eb24a568E', symObjAddr: 0x1410, symBinAddr: 0x4A4F4, symSize: 0x4 }
  - { offset: 0x94465, size: 0x8, addend: 0x0, symName: '__ZN4pyo35impl_7pyclass29PyClassImplCollector$LT$T$GT$3new17h0c0c2e50465cbcc6E', symObjAddr: 0x1414, symBinAddr: 0x4A4F8, symSize: 0x4 }
  - { offset: 0x94482, size: 0x8, addend: 0x0, symName: '__ZN4pyo35impl_7pyclass29PyClassImplCollector$LT$T$GT$3new17h138f40fbab5c8e2fE', symObjAddr: 0x1418, symBinAddr: 0x4A4FC, symSize: 0x4 }
  - { offset: 0x9449F, size: 0x8, addend: 0x0, symName: '__ZN4pyo35impl_7pyclass29PyClassImplCollector$LT$T$GT$3new17h48b91895577dc7b4E', symObjAddr: 0x141C, symBinAddr: 0x4A500, symSize: 0x4 }
  - { offset: 0x944C9, size: 0x8, addend: 0x0, symName: '__ZN4pyo35impl_7pyclass29PyClassImplCollector$LT$T$GT$3new17h4a5cef9520071992E', symObjAddr: 0x1420, symBinAddr: 0x4A504, symSize: 0x4 }
  - { offset: 0x944E6, size: 0x8, addend: 0x0, symName: '__ZN4pyo35impl_7pyclass29PyClassImplCollector$LT$T$GT$3new17h58d212cf16772aaeE', symObjAddr: 0x1424, symBinAddr: 0x4A508, symSize: 0x4 }
  - { offset: 0x94503, size: 0x8, addend: 0x0, symName: '__ZN4pyo35impl_7pyclass29PyClassImplCollector$LT$T$GT$3new17h67c17b8d0fc166bcE', symObjAddr: 0x1428, symBinAddr: 0x4A50C, symSize: 0x4 }
  - { offset: 0x9452D, size: 0x8, addend: 0x0, symName: '__ZN4pyo35impl_7pyclass29PyClassImplCollector$LT$T$GT$3new17h739b2da0731867d1E', symObjAddr: 0x142C, symBinAddr: 0x4A510, symSize: 0x4 }
  - { offset: 0x9454A, size: 0x8, addend: 0x0, symName: '__ZN4pyo35impl_7pyclass29PyClassImplCollector$LT$T$GT$3new17h73a29e98ef7641d9E', symObjAddr: 0x1430, symBinAddr: 0x4A514, symSize: 0x4 }
  - { offset: 0x94567, size: 0x8, addend: 0x0, symName: '__ZN4pyo35impl_7pyclass29PyClassImplCollector$LT$T$GT$3new17h74818d207483b780E', symObjAddr: 0x1434, symBinAddr: 0x4A518, symSize: 0x4 }
  - { offset: 0x94584, size: 0x8, addend: 0x0, symName: '__ZN4pyo35impl_7pyclass29PyClassImplCollector$LT$T$GT$3new17h765a83c034264bc4E', symObjAddr: 0x1438, symBinAddr: 0x4A51C, symSize: 0x4 }
  - { offset: 0x945A1, size: 0x8, addend: 0x0, symName: '__ZN4pyo35impl_7pyclass29PyClassImplCollector$LT$T$GT$3new17h7e204db7e95f2091E', symObjAddr: 0x143C, symBinAddr: 0x4A520, symSize: 0x4 }
  - { offset: 0x945BE, size: 0x8, addend: 0x0, symName: '__ZN4pyo35impl_7pyclass29PyClassImplCollector$LT$T$GT$3new17h8718fdb627fe2d06E', symObjAddr: 0x1440, symBinAddr: 0x4A524, symSize: 0x4 }
  - { offset: 0x945DB, size: 0x8, addend: 0x0, symName: '__ZN4pyo35impl_7pyclass29PyClassImplCollector$LT$T$GT$3new17h8d4cc87b22f0b045E', symObjAddr: 0x1444, symBinAddr: 0x4A528, symSize: 0x4 }
  - { offset: 0x945F8, size: 0x8, addend: 0x0, symName: '__ZN4pyo35impl_7pyclass29PyClassImplCollector$LT$T$GT$3new17h9103c05fd3325d00E', symObjAddr: 0x1448, symBinAddr: 0x4A52C, symSize: 0x4 }
  - { offset: 0x94615, size: 0x8, addend: 0x0, symName: '__ZN4pyo35impl_7pyclass29PyClassImplCollector$LT$T$GT$3new17h92337953356b0fd8E', symObjAddr: 0x144C, symBinAddr: 0x4A530, symSize: 0x4 }
  - { offset: 0x94632, size: 0x8, addend: 0x0, symName: '__ZN4pyo35impl_7pyclass29PyClassImplCollector$LT$T$GT$3new17h9aa9e5cbd430f1baE', symObjAddr: 0x1450, symBinAddr: 0x4A534, symSize: 0x4 }
  - { offset: 0x9464F, size: 0x8, addend: 0x0, symName: '__ZN4pyo35impl_7pyclass29PyClassImplCollector$LT$T$GT$3new17ha020be9532cdfd57E', symObjAddr: 0x1454, symBinAddr: 0x4A538, symSize: 0x4 }
  - { offset: 0x9466C, size: 0x8, addend: 0x0, symName: '__ZN4pyo35impl_7pyclass29PyClassImplCollector$LT$T$GT$3new17ha7cfee721882302cE', symObjAddr: 0x1458, symBinAddr: 0x4A53C, symSize: 0x4 }
  - { offset: 0x94689, size: 0x8, addend: 0x0, symName: '__ZN4pyo35impl_7pyclass29PyClassImplCollector$LT$T$GT$3new17ha8858b8eb8ea2a12E', symObjAddr: 0x145C, symBinAddr: 0x4A540, symSize: 0x4 }
  - { offset: 0x946A6, size: 0x8, addend: 0x0, symName: '__ZN4pyo35impl_7pyclass29PyClassImplCollector$LT$T$GT$3new17hb6a565b4b7ec128fE', symObjAddr: 0x1460, symBinAddr: 0x4A544, symSize: 0x4 }
  - { offset: 0x946C3, size: 0x8, addend: 0x0, symName: '__ZN4pyo35impl_7pyclass29PyClassImplCollector$LT$T$GT$3new17hd05725935cc15615E', symObjAddr: 0x1464, symBinAddr: 0x4A548, symSize: 0x4 }
  - { offset: 0x946E0, size: 0x8, addend: 0x0, symName: '__ZN4pyo35impl_7pyclass29PyClassImplCollector$LT$T$GT$3new17hd41a0c540213b726E', symObjAddr: 0x1468, symBinAddr: 0x4A54C, symSize: 0x4 }
  - { offset: 0x946FD, size: 0x8, addend: 0x0, symName: '__ZN4pyo35impl_7pyclass29PyClassImplCollector$LT$T$GT$3new17hda30ae59fd2ce4eaE', symObjAddr: 0x146C, symBinAddr: 0x4A550, symSize: 0x4 }
  - { offset: 0x9471A, size: 0x8, addend: 0x0, symName: '__ZN4pyo35impl_7pyclass29PyClassImplCollector$LT$T$GT$3new17hdc4ef651db59dd11E', symObjAddr: 0x1470, symBinAddr: 0x4A554, symSize: 0x4 }
  - { offset: 0x94737, size: 0x8, addend: 0x0, symName: '__ZN4pyo35impl_7pyclass29PyClassImplCollector$LT$T$GT$3new17he6d4691cafe37605E', symObjAddr: 0x1474, symBinAddr: 0x4A558, symSize: 0x4 }
  - { offset: 0x94754, size: 0x8, addend: 0x0, symName: '__ZN4pyo35impl_7pyclass29PyClassImplCollector$LT$T$GT$3new17hea6bb33715683185E', symObjAddr: 0x1478, symBinAddr: 0x4A55C, symSize: 0x4 }
  - { offset: 0x94771, size: 0x8, addend: 0x0, symName: '__ZN4pyo35impl_7pyclass29PyClassImplCollector$LT$T$GT$3new17hf7805511fb45a8beE', symObjAddr: 0x147C, symBinAddr: 0x4A560, symSize: 0x4 }
  - { offset: 0x947D3, size: 0x8, addend: 0x0, symName: '__ZN102_$LT$core..iter..adapters..zip..Zip$LT$A$C$B$GT$$u20$as$u20$core..iter..traits..iterator..Iterator$GT$4next17hf6daccc8fe9670afE', symObjAddr: 0x0, symBinAddr: 0x4A564, symSize: 0x24 }
  - { offset: 0x9487E, size: 0x8, addend: 0x0, symName: '__ZN102_$LT$core..iter..adapters..zip..Zip$LT$A$C$B$GT$$u20$as$u20$core..iter..traits..iterator..Iterator$GT$4next17hf6daccc8fe9670afE', symObjAddr: 0x0, symBinAddr: 0x4A564, symSize: 0x24 }
  - { offset: 0x948C2, size: 0x8, addend: 0x0, symName: '__ZN111_$LT$core..iter..adapters..zip..Zip$LT$A$C$B$GT$$u20$as$u20$core..iter..adapters..zip..ZipImpl$LT$A$C$B$GT$$GT$3new17ha6779f08bc589341E', symObjAddr: 0x24, symBinAddr: 0x4A588, symSize: 0x40 }
  - { offset: 0x9490E, size: 0x8, addend: 0x0, symName: '__ZN111_$LT$core..iter..adapters..zip..Zip$LT$A$C$B$GT$$u20$as$u20$core..iter..adapters..zip..ZipImpl$LT$A$C$B$GT$$GT$4next17he2426842d75344efE', symObjAddr: 0x64, symBinAddr: 0x4A5C8, symSize: 0xE0 }
  - { offset: 0x94B4B, size: 0x8, addend: 0x0, symName: '__ZN63_$LT$I$u20$as$u20$core..iter..traits..collect..IntoIterator$GT$9into_iter17h0fe12a56397d4770E', symObjAddr: 0x144, symBinAddr: 0x4A6A8, symSize: 0x30 }
  - { offset: 0x94B83, size: 0x8, addend: 0x0, symName: '__ZN63_$LT$I$u20$as$u20$core..iter..traits..collect..IntoIterator$GT$9into_iter17h45f01ecd50c1251bE', symObjAddr: 0x174, symBinAddr: 0x4A6D8, symSize: 0x30 }
  - { offset: 0x9533C, size: 0x8, addend: 0x0, symName: __ZN4core5slice4sort6shared5pivot11median3_rec17h09505c44761364beE, symObjAddr: 0x0, symBinAddr: 0x4A708, symSize: 0x1CC }
  - { offset: 0x959F9, size: 0x8, addend: 0x0, symName: __ZN4core5slice4sort6shared5pivot11median3_rec17h09505c44761364beE, symObjAddr: 0x0, symBinAddr: 0x4A708, symSize: 0x1CC }
  - { offset: 0x95C6C, size: 0x8, addend: 0x0, symName: __ZN4core5slice4sort6shared5pivot11median3_rec17h214f3c3501b81117E, symObjAddr: 0x1CC, symBinAddr: 0x4A8D4, symSize: 0x1CC }
  - { offset: 0x95EDF, size: 0x8, addend: 0x0, symName: __ZN4core5slice4sort6shared5pivot11median3_rec17h2937d16ada734092E, symObjAddr: 0x398, symBinAddr: 0x4AAA0, symSize: 0x1CC }
  - { offset: 0x96152, size: 0x8, addend: 0x0, symName: __ZN4core5slice4sort6shared5pivot11median3_rec17h70e451b3ff4268eeE, symObjAddr: 0x564, symBinAddr: 0x4AC6C, symSize: 0x1CC }
  - { offset: 0x963C5, size: 0x8, addend: 0x0, symName: __ZN4core5slice4sort6shared5pivot11median3_rec17h92e2c45427690c53E, symObjAddr: 0x730, symBinAddr: 0x4AE38, symSize: 0x1F4 }
  - { offset: 0x96638, size: 0x8, addend: 0x0, symName: __ZN4core5slice4sort6shared5pivot11median3_rec17hb08a0155199bef8eE, symObjAddr: 0x924, symBinAddr: 0x4B02C, symSize: 0x1CC }
  - { offset: 0x968AB, size: 0x8, addend: 0x0, symName: __ZN4core5slice4sort6shared5pivot11median3_rec17hb1f2a72bafef4318E, symObjAddr: 0xAF0, symBinAddr: 0x4B1F8, symSize: 0x1CC }
  - { offset: 0x96B1E, size: 0x8, addend: 0x0, symName: __ZN4core5slice4sort6shared5pivot11median3_rec17hd634d9073de7735bE, symObjAddr: 0xCBC, symBinAddr: 0x4B3C4, symSize: 0x1CC }
  - { offset: 0x96D18, size: 0x8, addend: 0x0, symName: __ZN4core5slice4sort6shared5pivot12choose_pivot17h4d2680a4ce91aac1E, symObjAddr: 0xE88, symBinAddr: 0x4B590, symSize: 0x214 }
  - { offset: 0x96F64, size: 0x8, addend: 0x0, symName: __ZN4core5slice4sort6shared5pivot12choose_pivot17h4e3ca4cdf6bd10a2E, symObjAddr: 0x109C, symBinAddr: 0x4B7A4, symSize: 0x208 }
  - { offset: 0x971B0, size: 0x8, addend: 0x0, symName: __ZN4core5slice4sort6shared5pivot12choose_pivot17h6bcbd75e60558e13E, symObjAddr: 0x12A4, symBinAddr: 0x4B9AC, symSize: 0x208 }
  - { offset: 0x973FC, size: 0x8, addend: 0x0, symName: __ZN4core5slice4sort6shared5pivot12choose_pivot17h8e9125d84598441fE, symObjAddr: 0x14AC, symBinAddr: 0x4BBB4, symSize: 0x208 }
  - { offset: 0x97648, size: 0x8, addend: 0x0, symName: __ZN4core5slice4sort6shared5pivot12choose_pivot17h93f8085e3da1ec7aE, symObjAddr: 0x16B4, symBinAddr: 0x4BDBC, symSize: 0x208 }
  - { offset: 0x97894, size: 0x8, addend: 0x0, symName: __ZN4core5slice4sort6shared5pivot12choose_pivot17ha0641f85233d3a16E, symObjAddr: 0x18BC, symBinAddr: 0x4BFC4, symSize: 0x208 }
  - { offset: 0x97AE0, size: 0x8, addend: 0x0, symName: __ZN4core5slice4sort6shared5pivot12choose_pivot17hac3395d906ecaee1E, symObjAddr: 0x1AC4, symBinAddr: 0x4C1CC, symSize: 0x208 }
  - { offset: 0x97D2C, size: 0x8, addend: 0x0, symName: __ZN4core5slice4sort6shared5pivot12choose_pivot17hb238fdeca7b03b03E, symObjAddr: 0x1CCC, symBinAddr: 0x4C3D4, symSize: 0x208 }
  - { offset: 0x98634, size: 0x8, addend: 0x0, symName: __ZN9orion_sdr6python3ft88ft8_sync9_PYO3_DEF17ha26d60e32618ace5E, symObjAddr: 0xF0, symBinAddr: 0x1DCB08, symSize: 0x0 }
  - { offset: 0x988E0, size: 0x8, addend: 0x0, symName: __ZN8pyo3_ffi10boolobject7Py_True17h04950bd5a2b9aa87E, symObjAddr: 0x0, symBinAddr: 0x4C5DC, symSize: 0xC }
  - { offset: 0x988F7, size: 0x8, addend: 0x0, symName: __ZN8pyo3_ffi10boolobject7Py_True17h04950bd5a2b9aa87E, symObjAddr: 0x0, symBinAddr: 0x4C5DC, symSize: 0xC }
  - { offset: 0x98914, size: 0x8, addend: 0x0, symName: __ZN8pyo3_ffi10boolobject8Py_False17h7320421b1425084bE, symObjAddr: 0xC, symBinAddr: 0x4C5E8, symSize: 0xC }
  - { offset: 0x989FB, size: 0x8, addend: 0x0, symName: __ZN4core4hash11BuildHasher8hash_one17h807cc42dd2cc2d15E, symObjAddr: 0x0, symBinAddr: 0x4C5F4, symSize: 0x84 }
  - { offset: 0x98A17, size: 0x8, addend: 0x0, symName: __ZN4core4hash11BuildHasher8hash_one17h807cc42dd2cc2d15E, symObjAddr: 0x0, symBinAddr: 0x4C5F4, symSize: 0x84 }
  - { offset: 0x98A82, size: 0x8, addend: 0x0, symName: __ZN4core4hash6Hasher9write_u3217h8786280c8a07b1b5E, symObjAddr: 0x84, symBinAddr: 0x4C678, symSize: 0x3C }
  - { offset: 0x98CA6, size: 0x8, addend: 0x0, symName: '__ZN104_$LT$core..iter..adapters..copied..Copied$LT$I$GT$$u20$as$u20$core..iter..traits..iterator..Iterator$GT$4fold17hc5f70aeb8504f2edE', symObjAddr: 0x0, symBinAddr: 0x4C6B4, symSize: 0x38 }
  - { offset: 0x98D51, size: 0x8, addend: 0x0, symName: '__ZN104_$LT$core..iter..adapters..copied..Copied$LT$I$GT$$u20$as$u20$core..iter..traits..iterator..Iterator$GT$4fold17hc5f70aeb8504f2edE', symObjAddr: 0x0, symBinAddr: 0x4C6B4, symSize: 0x38 }
  - { offset: 0x98DBD, size: 0x8, addend: 0x0, symName: '__ZN104_$LT$core..iter..adapters..copied..Copied$LT$I$GT$$u20$as$u20$core..iter..traits..iterator..Iterator$GT$4next17haee305a8d5a5b931E', symObjAddr: 0x38, symBinAddr: 0x4C6EC, symSize: 0x5C }
  - { offset: 0x98E52, size: 0x8, addend: 0x0, symName: '__ZN4core4iter8adapters6copied9copy_fold28_$u7b$$u7b$closure$u7d$$u7d$17hd029250852303c1bE', symObjAddr: 0xC4, symBinAddr: 0x4C778, symSize: 0x38 }
  - { offset: 0x98F89, size: 0x8, addend: 0x0, symName: __ZN4core4iter6traits8iterator8Iterator6filter17h472b884800d47ddcE, symObjAddr: 0x94, symBinAddr: 0x4C748, symSize: 0x30 }
  - { offset: 0x98FF9, size: 0x8, addend: 0x0, symName: '__ZN63_$LT$I$u20$as$u20$core..iter..traits..collect..IntoIterator$GT$9into_iter17hbc9b44430d1d3d7aE', symObjAddr: 0xFC, symBinAddr: 0x4C7B0, symSize: 0x1C }
  - { offset: 0x99534, size: 0x8, addend: 0x0, symName: '__ZN50_$LT$T$u20$as$u20$core..convert..Into$LT$U$GT$$GT$4into17h8e091b35f1f49c3cE', symObjAddr: 0x0, symBinAddr: 0x4C7CC, symSize: 0x2C }
  - { offset: 0x995D5, size: 0x8, addend: 0x0, symName: '__ZN50_$LT$T$u20$as$u20$core..convert..Into$LT$U$GT$$GT$4into17h8e091b35f1f49c3cE', symObjAddr: 0x0, symBinAddr: 0x4C7CC, symSize: 0x2C }
  - { offset: 0x99908, size: 0x8, addend: 0x0, symName: '__ZN9orion_sdr4sync8ft4_sync19find_ft4_candidates28_$u7b$$u7b$closure$u7d$$u7d$17h8f72cbf3021c8508E', symObjAddr: 0x0, symBinAddr: 0x4C7F8, symSize: 0x5C }
  - { offset: 0x99A92, size: 0x8, addend: 0x0, symName: '__ZN9orion_sdr4sync8ft4_sync19find_ft4_candidates28_$u7b$$u7b$closure$u7d$$u7d$17h8f72cbf3021c8508E', symObjAddr: 0x0, symBinAddr: 0x4C7F8, symSize: 0x5C }
  - { offset: 0x99AF3, size: 0x8, addend: 0x0, symName: '__ZN9orion_sdr4sync8ft4_sync19find_ft4_candidates28_$u7b$$u7b$closure$u7d$$u7d$17h7530602c6bc42310E', symObjAddr: 0x5C, symBinAddr: 0x4C854, symSize: 0x5C }
  - { offset: 0x99B54, size: 0x8, addend: 0x0, symName: '__ZN9orion_sdr4sync8ft4_sync19find_ft4_candidates28_$u7b$$u7b$closure$u7d$$u7d$17h162fdc78bb36c722E', symObjAddr: 0xB8, symBinAddr: 0x4C8B0, symSize: 0x5C }
  - { offset: 0x99BD0, size: 0x8, addend: 0x0, symName: '__ZN9orion_sdr4sync8ft4_sync13normalise_llr28_$u7b$$u7b$closure$u7d$$u7d$17h07995e0fefdf2400E', symObjAddr: 0x114, symBinAddr: 0x4C90C, symSize: 0x34 }
  - { offset: 0x99CC1, size: 0x8, addend: 0x0, symName: __ZN9orion_sdr5codec4ldpc7parity817ha42fede7af459c8fE, symObjAddr: 0x0, symBinAddr: 0x4C940, symSize: 0x38 }
  - { offset: 0x99CDD, size: 0x8, addend: 0x0, symName: __ZN9orion_sdr5codec4ldpc7parity817ha42fede7af459c8fE, symObjAddr: 0x0, symBinAddr: 0x4C940, symSize: 0x38 }
  - { offset: 0x99D65, size: 0x8, addend: 0x0, symName: __ZN9orion_sdr5codec4ldpc11ldpc_encode17h6d9b649833f65c91E, symObjAddr: 0x38, symBinAddr: 0x4C978, symSize: 0x354 }
  - { offset: 0x99E6A, size: 0x8, addend: 0x0, symName: __ZN9orion_sdr5codec4ldpc17ldpc_count_errors17hffe49b065da1b323E, symObjAddr: 0x38C, symBinAddr: 0x4CCCC, symSize: 0x240 }
  - { offset: 0x99F20, size: 0x8, addend: 0x0, symName: __ZN9orion_sdr5codec4ldpc9fast_tanh17hcd285d8d6c7affbfE, symObjAddr: 0x5CC, symBinAddr: 0x4CF0C, symSize: 0xC4 }
  - { offset: 0x99FA8, size: 0x8, addend: 0x0, symName: __ZN9orion_sdr5codec4ldpc10fast_atanh17h347a13ad5df1138eE, symObjAddr: 0x690, symBinAddr: 0x4CFD0, symSize: 0x7C }
  - { offset: 0x9A030, size: 0x8, addend: 0x0, symName: __ZN9orion_sdr5codec4ldpc16ldpc_decode_soft17h537a218d61409e46E, symObjAddr: 0x70C, symBinAddr: 0x4D04C, symSize: 0x1154 }
  - { offset: 0x9A6A4, size: 0x8, addend: 0x0, symName: __ZN4pyo311type_object10PyTypeInfo10is_type_of17h2bf887c85f109f90E, symObjAddr: 0x0, symBinAddr: 0x4E1A0, symSize: 0x50 }
  - { offset: 0x9A745, size: 0x8, addend: 0x0, symName: __ZN4pyo311type_object10PyTypeInfo10is_type_of17h2bf887c85f109f90E, symObjAddr: 0x0, symBinAddr: 0x4E1A0, symSize: 0x50 }
  - { offset: 0x9A77A, size: 0x8, addend: 0x0, symName: __ZN4pyo311type_object10PyTypeInfo10is_type_of17h5674275f68d3d8f7E, symObjAddr: 0x50, symBinAddr: 0x4E1F0, symSize: 0x50 }
  - { offset: 0x9A7AF, size: 0x8, addend: 0x0, symName: __ZN4pyo311type_object10PyTypeInfo10is_type_of17h7537b3f037c4b2ddE, symObjAddr: 0xA0, symBinAddr: 0x4E240, symSize: 0x50 }
  - { offset: 0x9A7E4, size: 0x8, addend: 0x0, symName: __ZN4pyo311type_object10PyTypeInfo10is_type_of17h77a2efe57dc66e05E, symObjAddr: 0xF0, symBinAddr: 0x4E290, symSize: 0x50 }
  - { offset: 0x9A819, size: 0x8, addend: 0x0, symName: __ZN4pyo311type_object10PyTypeInfo10is_type_of17h892ef027908704c8E, symObjAddr: 0x140, symBinAddr: 0x4E2E0, symSize: 0x50 }
  - { offset: 0x9A84E, size: 0x8, addend: 0x0, symName: __ZN4pyo311type_object10PyTypeInfo10is_type_of17h8b49bf92f553db61E, symObjAddr: 0x190, symBinAddr: 0x4E330, symSize: 0x50 }
  - { offset: 0x9A883, size: 0x8, addend: 0x0, symName: __ZN4pyo311type_object10PyTypeInfo10is_type_of17hef9afb0c8d13265eE, symObjAddr: 0x1E0, symBinAddr: 0x4E380, symSize: 0x50 }
  - { offset: 0x9A8B8, size: 0x8, addend: 0x0, symName: __ZN4pyo311type_object10PyTypeInfo10is_type_of17hf40eea02ce63bb25E, symObjAddr: 0x230, symBinAddr: 0x4E3D0, symSize: 0x50 }
  - { offset: 0x9A8ED, size: 0x8, addend: 0x0, symName: __ZN4pyo311type_object10PyTypeInfo11type_object17h192d7b65555924a9E, symObjAddr: 0x280, symBinAddr: 0x4E420, symSize: 0x30 }
  - { offset: 0x9A92D, size: 0x8, addend: 0x0, symName: __ZN4pyo311type_object10PyTypeInfo11type_object17h50ce38e5e55a0859E, symObjAddr: 0x2B0, symBinAddr: 0x4E450, symSize: 0x30 }
  - { offset: 0x9A96D, size: 0x8, addend: 0x0, symName: __ZN4pyo311type_object10PyTypeInfo11type_object17h59f83d37984d1e24E, symObjAddr: 0x2E0, symBinAddr: 0x4E480, symSize: 0x30 }
  - { offset: 0x9A9AD, size: 0x8, addend: 0x0, symName: __ZN4pyo311type_object10PyTypeInfo11type_object17h81e87bbbfbdbda34E, symObjAddr: 0x310, symBinAddr: 0x4E4B0, symSize: 0x30 }
  - { offset: 0x9A9ED, size: 0x8, addend: 0x0, symName: __ZN4pyo311type_object10PyTypeInfo11type_object17ha0129c2bf4b847daE, symObjAddr: 0x340, symBinAddr: 0x4E4E0, symSize: 0x30 }
  - { offset: 0x9AA2D, size: 0x8, addend: 0x0, symName: __ZN4pyo311type_object10PyTypeInfo11type_object17hb2fd013cbca6617eE, symObjAddr: 0x370, symBinAddr: 0x4E510, symSize: 0x30 }
  - { offset: 0x9AA6D, size: 0x8, addend: 0x0, symName: __ZN4pyo311type_object10PyTypeInfo11type_object17hec1bc59ef8be6f4aE, symObjAddr: 0x3A0, symBinAddr: 0x4E540, symSize: 0x30 }
  - { offset: 0x9AAAD, size: 0x8, addend: 0x0, symName: __ZN4pyo311type_object10PyTypeInfo11type_object17hef4403a63f474c14E, symObjAddr: 0x3D0, symBinAddr: 0x4E570, symSize: 0x30 }
  - { offset: 0x9AAF3, size: 0x8, addend: 0x0, symName: '__ZN52_$LT$T$u20$as$u20$pyo3..type_object..PyTypeCheck$GT$10type_check17h0a92dd4753283f37E', symObjAddr: 0x5C0, symBinAddr: 0x4E760, symSize: 0x24 }
  - { offset: 0x9AB28, size: 0x8, addend: 0x0, symName: '__ZN52_$LT$T$u20$as$u20$pyo3..type_object..PyTypeCheck$GT$10type_check17h37d86278fcd98a09E', symObjAddr: 0x5E4, symBinAddr: 0x4E784, symSize: 0x24 }
  - { offset: 0x9AB5D, size: 0x8, addend: 0x0, symName: '__ZN52_$LT$T$u20$as$u20$pyo3..type_object..PyTypeCheck$GT$10type_check17h3a47e58360665280E', symObjAddr: 0x608, symBinAddr: 0x4E7A8, symSize: 0x24 }
  - { offset: 0x9AB92, size: 0x8, addend: 0x0, symName: '__ZN52_$LT$T$u20$as$u20$pyo3..type_object..PyTypeCheck$GT$10type_check17h70db2ca7c1e96468E', symObjAddr: 0x62C, symBinAddr: 0x4E7CC, symSize: 0x24 }
  - { offset: 0x9ABC7, size: 0x8, addend: 0x0, symName: '__ZN52_$LT$T$u20$as$u20$pyo3..type_object..PyTypeCheck$GT$10type_check17h891de5dc6ec87430E', symObjAddr: 0x650, symBinAddr: 0x4E7F0, symSize: 0x24 }
  - { offset: 0x9ABFC, size: 0x8, addend: 0x0, symName: '__ZN52_$LT$T$u20$as$u20$pyo3..type_object..PyTypeCheck$GT$10type_check17hb96199d2af52fc29E', symObjAddr: 0x674, symBinAddr: 0x4E814, symSize: 0x24 }
  - { offset: 0x9AC31, size: 0x8, addend: 0x0, symName: '__ZN52_$LT$T$u20$as$u20$pyo3..type_object..PyTypeCheck$GT$10type_check17hc6489477470c181eE', symObjAddr: 0x698, symBinAddr: 0x4E838, symSize: 0x24 }
  - { offset: 0x9AC66, size: 0x8, addend: 0x0, symName: '__ZN52_$LT$T$u20$as$u20$pyo3..type_object..PyTypeCheck$GT$10type_check17he9ba93b6a879fe31E', symObjAddr: 0x6BC, symBinAddr: 0x4E85C, symSize: 0x24 }
  - { offset: 0x9AC9B, size: 0x8, addend: 0x0, symName: '__ZN52_$LT$T$u20$as$u20$pyo3..type_object..PyTypeCheck$GT$16classinfo_object17h01423b7d932dcf6fE', symObjAddr: 0x6E0, symBinAddr: 0x4E880, symSize: 0x20 }
  - { offset: 0x9ACDB, size: 0x8, addend: 0x0, symName: '__ZN52_$LT$T$u20$as$u20$pyo3..type_object..PyTypeCheck$GT$16classinfo_object17h1847e96a89aef3ceE', symObjAddr: 0x700, symBinAddr: 0x4E8A0, symSize: 0x20 }
  - { offset: 0x9AD1B, size: 0x8, addend: 0x0, symName: '__ZN52_$LT$T$u20$as$u20$pyo3..type_object..PyTypeCheck$GT$16classinfo_object17h365d2266d4587068E', symObjAddr: 0x720, symBinAddr: 0x4E8C0, symSize: 0x20 }
  - { offset: 0x9AD5B, size: 0x8, addend: 0x0, symName: '__ZN52_$LT$T$u20$as$u20$pyo3..type_object..PyTypeCheck$GT$16classinfo_object17h5f2820a7e99d8b6dE', symObjAddr: 0x740, symBinAddr: 0x4E8E0, symSize: 0x20 }
  - { offset: 0x9AD9B, size: 0x8, addend: 0x0, symName: '__ZN52_$LT$T$u20$as$u20$pyo3..type_object..PyTypeCheck$GT$16classinfo_object17h9221a4e90b616cceE', symObjAddr: 0x760, symBinAddr: 0x4E900, symSize: 0x20 }
  - { offset: 0x9ADDB, size: 0x8, addend: 0x0, symName: '__ZN52_$LT$T$u20$as$u20$pyo3..type_object..PyTypeCheck$GT$16classinfo_object17hb0282e0f9da60664E', symObjAddr: 0x780, symBinAddr: 0x4E920, symSize: 0x20 }
  - { offset: 0x9AE1B, size: 0x8, addend: 0x0, symName: '__ZN52_$LT$T$u20$as$u20$pyo3..type_object..PyTypeCheck$GT$16classinfo_object17hd5541a434188aadcE', symObjAddr: 0x7A0, symBinAddr: 0x4E940, symSize: 0x20 }
  - { offset: 0x9AE5B, size: 0x8, addend: 0x0, symName: '__ZN52_$LT$T$u20$as$u20$pyo3..type_object..PyTypeCheck$GT$16classinfo_object17hfc70284ce86dc970E', symObjAddr: 0x7C0, symBinAddr: 0x4E960, symSize: 0x20 }
  - { offset: 0x9AEAC, size: 0x8, addend: 0x0, symName: __ZN4pyo35impl_7pyclass11PyClassImpl11dict_offset17h15f365f76e7441b6E, symObjAddr: 0x400, symBinAddr: 0x4E5A0, symSize: 0x1C }
  - { offset: 0x9AED3, size: 0x8, addend: 0x0, symName: __ZN4pyo35impl_7pyclass11PyClassImpl11dict_offset17h2037e2d785b6d411E, symObjAddr: 0x41C, symBinAddr: 0x4E5BC, symSize: 0x1C }
  - { offset: 0x9AEFA, size: 0x8, addend: 0x0, symName: __ZN4pyo35impl_7pyclass11PyClassImpl11dict_offset17h277f695f8fb7f6d3E, symObjAddr: 0x438, symBinAddr: 0x4E5D8, symSize: 0x1C }
  - { offset: 0x9AF21, size: 0x8, addend: 0x0, symName: __ZN4pyo35impl_7pyclass11PyClassImpl11dict_offset17h340ea6bbd61be052E, symObjAddr: 0x454, symBinAddr: 0x4E5F4, symSize: 0x1C }
  - { offset: 0x9AF48, size: 0x8, addend: 0x0, symName: __ZN4pyo35impl_7pyclass11PyClassImpl11dict_offset17ha3b648ec6114a408E, symObjAddr: 0x470, symBinAddr: 0x4E610, symSize: 0x1C }
  - { offset: 0x9AF6F, size: 0x8, addend: 0x0, symName: __ZN4pyo35impl_7pyclass11PyClassImpl11dict_offset17haf3934f7df1ab0b3E, symObjAddr: 0x48C, symBinAddr: 0x4E62C, symSize: 0x1C }
  - { offset: 0x9AF96, size: 0x8, addend: 0x0, symName: __ZN4pyo35impl_7pyclass11PyClassImpl11dict_offset17hc751a5049ba41a9dE, symObjAddr: 0x4A8, symBinAddr: 0x4E648, symSize: 0x1C }
  - { offset: 0x9AFBD, size: 0x8, addend: 0x0, symName: __ZN4pyo35impl_7pyclass11PyClassImpl11dict_offset17hf8abbc662c1275aaE, symObjAddr: 0x4C4, symBinAddr: 0x4E664, symSize: 0x1C }
  - { offset: 0x9AFE4, size: 0x8, addend: 0x0, symName: __ZN4pyo35impl_7pyclass11PyClassImpl15weaklist_offset17h00ae8c4cbef450a3E, symObjAddr: 0x4E0, symBinAddr: 0x4E680, symSize: 0x1C }
  - { offset: 0x9B00B, size: 0x8, addend: 0x0, symName: __ZN4pyo35impl_7pyclass11PyClassImpl15weaklist_offset17h246224f2c81debddE, symObjAddr: 0x4FC, symBinAddr: 0x4E69C, symSize: 0x1C }
  - { offset: 0x9B032, size: 0x8, addend: 0x0, symName: __ZN4pyo35impl_7pyclass11PyClassImpl15weaklist_offset17h6b33cdf80600ec39E, symObjAddr: 0x518, symBinAddr: 0x4E6B8, symSize: 0x1C }
  - { offset: 0x9B059, size: 0x8, addend: 0x0, symName: __ZN4pyo35impl_7pyclass11PyClassImpl15weaklist_offset17h78400f77655f51bbE, symObjAddr: 0x534, symBinAddr: 0x4E6D4, symSize: 0x1C }
  - { offset: 0x9B080, size: 0x8, addend: 0x0, symName: __ZN4pyo35impl_7pyclass11PyClassImpl15weaklist_offset17hb07ee2780a43c84fE, symObjAddr: 0x550, symBinAddr: 0x4E6F0, symSize: 0x1C }
  - { offset: 0x9B0A7, size: 0x8, addend: 0x0, symName: __ZN4pyo35impl_7pyclass11PyClassImpl15weaklist_offset17hb29f51c033a8a5d8E, symObjAddr: 0x56C, symBinAddr: 0x4E70C, symSize: 0x1C }
  - { offset: 0x9B0CE, size: 0x8, addend: 0x0, symName: __ZN4pyo35impl_7pyclass11PyClassImpl15weaklist_offset17hd32f59e8ec12a43fE, symObjAddr: 0x588, symBinAddr: 0x4E728, symSize: 0x1C }
  - { offset: 0x9B0F5, size: 0x8, addend: 0x0, symName: __ZN4pyo35impl_7pyclass11PyClassImpl15weaklist_offset17heba4dfb98d8b4f67E, symObjAddr: 0x5A4, symBinAddr: 0x4E744, symSize: 0x1C }
  - { offset: 0x9B184, size: 0x8, addend: 0x0, symName: '__ZN73_$LT$T$u20$as$u20$pyo3..impl_..pyclass_init..PyClassInit$LT$_$C$_$GT$$GT$4init17h0dbd68067df4d696E', symObjAddr: 0x7E0, symBinAddr: 0x4E980, symSize: 0x40 }
  - { offset: 0x9B1C8, size: 0x8, addend: 0x0, symName: '__ZN73_$LT$T$u20$as$u20$pyo3..impl_..pyclass_init..PyClassInit$LT$_$C$_$GT$$GT$4init17h15ee91e701279bb4E', symObjAddr: 0x820, symBinAddr: 0x4E9C0, symSize: 0x40 }
  - { offset: 0x9B20C, size: 0x8, addend: 0x0, symName: '__ZN73_$LT$T$u20$as$u20$pyo3..impl_..pyclass_init..PyClassInit$LT$_$C$_$GT$$GT$4init17h22d7be935a8ac7e6E', symObjAddr: 0x860, symBinAddr: 0x4EA00, symSize: 0x40 }
  - { offset: 0x9B250, size: 0x8, addend: 0x0, symName: '__ZN73_$LT$T$u20$as$u20$pyo3..impl_..pyclass_init..PyClassInit$LT$_$C$_$GT$$GT$4init17h4ea0599c6058ee9fE', symObjAddr: 0x8A0, symBinAddr: 0x4EA40, symSize: 0x40 }
  - { offset: 0x9B294, size: 0x8, addend: 0x0, symName: '__ZN73_$LT$T$u20$as$u20$pyo3..impl_..pyclass_init..PyClassInit$LT$_$C$_$GT$$GT$4init17h5d641b4a277d7394E', symObjAddr: 0x8E0, symBinAddr: 0x4EA80, symSize: 0x40 }
  - { offset: 0x9B2D8, size: 0x8, addend: 0x0, symName: '__ZN73_$LT$T$u20$as$u20$pyo3..impl_..pyclass_init..PyClassInit$LT$_$C$_$GT$$GT$4init17ha23c5644d162e196E', symObjAddr: 0x920, symBinAddr: 0x4EAC0, symSize: 0x40 }
  - { offset: 0x9B31C, size: 0x8, addend: 0x0, symName: '__ZN73_$LT$T$u20$as$u20$pyo3..impl_..pyclass_init..PyClassInit$LT$_$C$_$GT$$GT$4init17hf4ee17fca9ebce0cE', symObjAddr: 0x960, symBinAddr: 0x4EB00, symSize: 0x40 }
  - { offset: 0x9B360, size: 0x8, addend: 0x0, symName: '__ZN73_$LT$T$u20$as$u20$pyo3..impl_..pyclass_init..PyClassInit$LT$_$C$_$GT$$GT$4init17hfd571b2a33082ae7E', symObjAddr: 0x9A0, symBinAddr: 0x4EB40, symSize: 0x40 }
  - { offset: 0x9B67A, size: 0x8, addend: 0x0, symName: '__ZN89_$LT$orion_sdr..python..modulate..PyAmDsbMod$u20$as$u20$pyo3..type_object..PyTypeInfo$GT$15type_object_raw28_$u7b$$u7b$closure$u7d$$u7d$17hc7a4902f0e66485eE', symObjAddr: 0x9E0, symBinAddr: 0x4EB80, symSize: 0x2C }
  - { offset: 0x9B6DE, size: 0x8, addend: 0x0, symName: '__ZN91_$LT$orion_sdr..python..modulate..PyCwKeyedMod$u20$as$u20$pyo3..type_object..PyTypeInfo$GT$15type_object_raw28_$u7b$$u7b$closure$u7d$$u7d$17h9728e102e37d33dbE', symObjAddr: 0xA0C, symBinAddr: 0x4EBAC, symSize: 0x2C }
  - { offset: 0x9B742, size: 0x8, addend: 0x0, symName: '__ZN96_$LT$orion_sdr..python..modulate..PyFmPhaseAccumMod$u20$as$u20$pyo3..type_object..PyTypeInfo$GT$15type_object_raw28_$u7b$$u7b$closure$u7d$$u7d$17h3c3d690492b96e70E', symObjAddr: 0xA38, symBinAddr: 0x4EBD8, symSize: 0x2C }
  - { offset: 0x9B7A6, size: 0x8, addend: 0x0, symName: '__ZN97_$LT$orion_sdr..python..modulate..PyPmDirectPhaseMod$u20$as$u20$pyo3..type_object..PyTypeInfo$GT$15type_object_raw28_$u7b$$u7b$closure$u7d$$u7d$17h77ee9d166f0d9285E', symObjAddr: 0xA64, symBinAddr: 0x4EC04, symSize: 0x2C }
  - { offset: 0x9B80A, size: 0x8, addend: 0x0, symName: '__ZN94_$LT$orion_sdr..python..modulate..PySsbPhasingMod$u20$as$u20$pyo3..type_object..PyTypeInfo$GT$15type_object_raw28_$u7b$$u7b$closure$u7d$$u7d$17h10839c4eccbfe16dE', symObjAddr: 0xA90, symBinAddr: 0x4EC30, symSize: 0x2C }
  - { offset: 0x9B86E, size: 0x8, addend: 0x0, symName: '__ZN88_$LT$orion_sdr..python..modulate..PyBpskMod$u20$as$u20$pyo3..type_object..PyTypeInfo$GT$15type_object_raw28_$u7b$$u7b$closure$u7d$$u7d$17hde109129393c3a43E', symObjAddr: 0xABC, symBinAddr: 0x4EC5C, symSize: 0x2C }
  - { offset: 0x9B8D2, size: 0x8, addend: 0x0, symName: '__ZN88_$LT$orion_sdr..python..modulate..PyQpskMod$u20$as$u20$pyo3..type_object..PyTypeInfo$GT$15type_object_raw28_$u7b$$u7b$closure$u7d$$u7d$17hc87cce61c60e44deE', symObjAddr: 0xAE8, symBinAddr: 0x4EC88, symSize: 0x2C }
  - { offset: 0x9B936, size: 0x8, addend: 0x0, symName: '__ZN87_$LT$orion_sdr..python..modulate..PyQamMod$u20$as$u20$pyo3..type_object..PyTypeInfo$GT$15type_object_raw28_$u7b$$u7b$closure$u7d$$u7d$17h0160fb0d68a3bf25E', symObjAddr: 0xB14, symBinAddr: 0x4ECB4, symSize: 0x2C }
  - { offset: 0x9C562, size: 0x8, addend: 0x0, symName: __ZN9orion_sdr10demodulate2pm17PmQuadratureDemod3new17h007e2a5cf92f4911E, symObjAddr: 0x0, symBinAddr: 0x4ECE0, symSize: 0xA0 }
  - { offset: 0x9C6A2, size: 0x8, addend: 0x0, symName: __ZN9orion_sdr10demodulate2pm17PmQuadratureDemod3new17h007e2a5cf92f4911E, symObjAddr: 0x0, symBinAddr: 0x4ECE0, symSize: 0xA0 }
  - { offset: 0x9C71B, size: 0x8, addend: 0x0, symName: '__ZN100_$LT$pyo3..types..tuple..BorrowedTupleIterator$u20$as$u20$core..iter..traits..iterator..Iterator$GT$4next17h42e3bfd44f8ee16eE', symObjAddr: 0x0, symBinAddr: 0x4ED80, symSize: 0x9C }
  - { offset: 0x9C7C1, size: 0x8, addend: 0x0, symName: '__ZN100_$LT$pyo3..types..tuple..BorrowedTupleIterator$u20$as$u20$core..iter..traits..iterator..Iterator$GT$4next17h42e3bfd44f8ee16eE', symObjAddr: 0x0, symBinAddr: 0x4ED80, symSize: 0x9C }
  - { offset: 0x9CBB7, size: 0x8, addend: 0x0, symName: __ZN4pyo35impl_10trampoline32fastcall_cfunction_with_keywords5inner17h0004b799ecd2b393E, symObjAddr: 0x0, symBinAddr: 0x4EE1C, symSize: 0x5C }
  - { offset: 0x9CC5D, size: 0x8, addend: 0x0, symName: __ZN4pyo35impl_10trampoline32fastcall_cfunction_with_keywords5inner17h0004b799ecd2b393E, symObjAddr: 0x0, symBinAddr: 0x4EE1C, symSize: 0x5C }
  - { offset: 0x9D48F, size: 0x8, addend: 0x0, symName: '__ZN105_$LT$std..collections..hash..map..Iter$LT$K$C$V$GT$$u20$as$u20$core..iter..traits..iterator..Iterator$GT$4next17h78a24021edeb2b49E', symObjAddr: 0x0, symBinAddr: 0x4EE78, symSize: 0x24 }
  - { offset: 0x9D4B5, size: 0x8, addend: 0x0, symName: '__ZN105_$LT$std..collections..hash..map..Iter$LT$K$C$V$GT$$u20$as$u20$core..iter..traits..iterator..Iterator$GT$4next17h78a24021edeb2b49E', symObjAddr: 0x0, symBinAddr: 0x4EE78, symSize: 0x24 }
  - { offset: 0x9D651, size: 0x8, addend: 0x0, symName: '__ZN119_$LT$$RF$std..collections..hash..map..HashMap$LT$K$C$V$C$S$GT$$u20$as$u20$core..iter..traits..collect..IntoIterator$GT$9into_iter17h76e39eb3d8d6a122E', symObjAddr: 0x24, symBinAddr: 0x4EE9C, symSize: 0x44 }
  - { offset: 0x9DDA6, size: 0x8, addend: 0x0, symName: '__ZN3std11collections4hash3map20HashMap$LT$K$C$V$GT$3new17h79ee7fc7334e96c7E', symObjAddr: 0x68, symBinAddr: 0x4EEE0, symSize: 0x7C }
  - { offset: 0x9DEBD, size: 0x8, addend: 0x0, symName: '__ZN3std11collections4hash3map24HashMap$LT$K$C$V$C$S$GT$3get17h9b57bf02c2065bf5E', symObjAddr: 0xE4, symBinAddr: 0x4EF5C, symSize: 0x70 }
  - { offset: 0x9DF5C, size: 0x8, addend: 0x0, symName: '__ZN3std11collections4hash3map24HashMap$LT$K$C$V$C$S$GT$6insert17h4a71040e854be735E', symObjAddr: 0x154, symBinAddr: 0x4EFCC, symSize: 0x28 }
  - { offset: 0x9DFE4, size: 0x8, addend: 0x0, symName: __ZN9orion_sdr5codec3ft88Ft8Codec6encode17hbaf640f221edd4b4E, symObjAddr: 0x0, symBinAddr: 0x4EFF4, symSize: 0x23C }
  - { offset: 0x9E0CB, size: 0x8, addend: 0x0, symName: __ZN9orion_sdr5codec3ft88Ft8Codec6encode17hbaf640f221edd4b4E, symObjAddr: 0x0, symBinAddr: 0x4EFF4, symSize: 0x23C }
  - { offset: 0x9E3CE, size: 0x8, addend: 0x0, symName: __ZN9orion_sdr5codec3ft88Ft8Codec11decode_hard17h4903d71a126ecf36E, symObjAddr: 0x23C, symBinAddr: 0x4F230, symSize: 0x44 }
  - { offset: 0x9E42E, size: 0x8, addend: 0x0, symName: __ZN9orion_sdr5codec3ft88Ft8Codec11decode_soft17he4db3c896ff3a970E, symObjAddr: 0x280, symBinAddr: 0x4F274, symSize: 0x24 }
  - { offset: 0x9E450, size: 0x8, addend: 0x0, symName: __ZN9orion_sdr5codec3ft88Ft8Codec17frame_to_llr_hard17hb115651c0a2a309bE, symObjAddr: 0x2A4, symBinAddr: 0x4F298, symSize: 0x268 }
  - { offset: 0x9E517, size: 0x8, addend: 0x0, symName: __ZN9orion_sdr5codec3ft88Ft8Codec10decode_llr17h3fe7f7956ecea55fE, symObjAddr: 0x50C, symBinAddr: 0x4F500, symSize: 0x2D4 }
  - { offset: 0x9E68A, size: 0x8, addend: 0x0, symName: __ZN4core4iter6traits8iterator8Iterator3zip17h6e24d76320e3e29aE, symObjAddr: 0x0, symBinAddr: 0x4F7D4, symSize: 0xB4 }
  - { offset: 0x9E83B, size: 0x8, addend: 0x0, symName: __ZN4core4iter6traits8iterator8Iterator3zip17h6e24d76320e3e29aE, symObjAddr: 0x0, symBinAddr: 0x4F7D4, symSize: 0xB4 }
  - { offset: 0x9E8B1, size: 0x8, addend: 0x0, symName: __ZN4core4iter6traits8iterator8Iterator4take17hf0c231d4d1a5da3eE, symObjAddr: 0xB4, symBinAddr: 0x4F888, symSize: 0x24 }
  - { offset: 0x9ED1B, size: 0x8, addend: 0x0, symName: '__ZN4pyo35impl_4wrap82EmptyTupleConverter$LT$core..result..Result$LT$$LP$$RP$$C$pyo3..err..PyErr$GT$$GT$12map_into_ptr17h0008ace201b6a3dcE', symObjAddr: 0x0, symBinAddr: 0x4F8AC, symSize: 0x2C }
  - { offset: 0x9F668, size: 0x8, addend: 0x0, symName: '__ZN4pyo35impl_4wrap82EmptyTupleConverter$LT$core..result..Result$LT$$LP$$RP$$C$pyo3..err..PyErr$GT$$GT$12map_into_ptr17h0008ace201b6a3dcE', symObjAddr: 0x0, symBinAddr: 0x4F8AC, symSize: 0x2C }
  - { offset: 0x9F6D0, size: 0x8, addend: 0x0, symName: '__ZN44_$LT$$RF$T$u20$as$u20$core..fmt..Display$GT$3fmt17ha841d5129cf592c3E', symObjAddr: 0x0, symBinAddr: 0x4F8D8, symSize: 0x30 }
  - { offset: 0x9F6EC, size: 0x8, addend: 0x0, symName: '__ZN44_$LT$$RF$T$u20$as$u20$core..fmt..Display$GT$3fmt17ha841d5129cf592c3E', symObjAddr: 0x0, symBinAddr: 0x4F8D8, symSize: 0x30 }
  - { offset: 0x9FBC7, size: 0x8, addend: 0x0, symName: '__ZN4core3fmt2rt38_$LT$impl$u20$core..fmt..Arguments$GT$6new_v117h24102b3fe3a2f4c1E', symObjAddr: 0x30, symBinAddr: 0x4F908, symSize: 0x50 }
  - { offset: 0x9FC36, size: 0x8, addend: 0x0, symName: '__ZN63_$LT$I$u20$as$u20$core..iter..traits..collect..IntoIterator$GT$9into_iter17hc47463e4a4751e48E', symObjAddr: 0x0, symBinAddr: 0x4F958, symSize: 0x18 }
  - { offset: 0x9FCE1, size: 0x8, addend: 0x0, symName: '__ZN63_$LT$I$u20$as$u20$core..iter..traits..collect..IntoIterator$GT$9into_iter17hc47463e4a4751e48E', symObjAddr: 0x0, symBinAddr: 0x4F958, symSize: 0x18 }
  - { offset: 0x9FFCA, size: 0x8, addend: 0x0, symName: '__ZN50_$LT$u8$u20$as$u20$alloc..vec..is_zero..IsZero$GT$7is_zero17ha626c4bf62a01d1fE', symObjAddr: 0x0, symBinAddr: 0x4F970, symSize: 0x20 }
  - { offset: 0xA0001, size: 0x8, addend: 0x0, symName: '__ZN50_$LT$u8$u20$as$u20$alloc..vec..is_zero..IsZero$GT$7is_zero17ha626c4bf62a01d1fE', symObjAddr: 0x0, symBinAddr: 0x4F970, symSize: 0x20 }
  - { offset: 0xA005D, size: 0x8, addend: 0x0, symName: '__ZN51_$LT$f32$u20$as$u20$alloc..vec..is_zero..IsZero$GT$7is_zero17h5964f4118fe011c9E', symObjAddr: 0x20, symBinAddr: 0x4F990, symSize: 0x24 }
  - { offset: 0xA00EE, size: 0x8, addend: 0x0, symName: '__ZN5alloc7raw_vec19RawVec$LT$T$C$A$GT$17from_raw_parts_in17h03b267b4833543bdE', symObjAddr: 0x0, symBinAddr: 0x4F9B4, symSize: 0x6C }
  - { offset: 0xA0C17, size: 0x8, addend: 0x0, symName: '__ZN5alloc7raw_vec19RawVec$LT$T$C$A$GT$17from_raw_parts_in17h03b267b4833543bdE', symObjAddr: 0x0, symBinAddr: 0x4F9B4, symSize: 0x6C }
  - { offset: 0xA0DF5, size: 0x8, addend: 0x0, symName: '__ZN5alloc7raw_vec19RawVec$LT$T$C$A$GT$17from_raw_parts_in17h089500dba369ed91E', symObjAddr: 0x6C, symBinAddr: 0x4FA20, symSize: 0x6C }
  - { offset: 0xA0FFC, size: 0x8, addend: 0x0, symName: '__ZN5alloc7raw_vec19RawVec$LT$T$C$A$GT$17from_raw_parts_in17h4b166b46817fea75E', symObjAddr: 0xD8, symBinAddr: 0x4FA8C, symSize: 0x6C }
  - { offset: 0xA12B8, size: 0x8, addend: 0x0, symName: '__ZN5alloc7raw_vec19RawVec$LT$T$C$A$GT$8grow_one17h0a6bfd940e104d03E', symObjAddr: 0x144, symBinAddr: 0x4FAF8, symSize: 0x90 }
  - { offset: 0xA1384, size: 0x8, addend: 0x0, symName: '__ZN5alloc7raw_vec19RawVec$LT$T$C$A$GT$8grow_one17h19e0c777232b40a1E', symObjAddr: 0x1D4, symBinAddr: 0x4FB88, symSize: 0x90 }
  - { offset: 0xA1446, size: 0x8, addend: 0x0, symName: '__ZN5alloc7raw_vec19RawVec$LT$T$C$A$GT$8grow_one17h822ae10050989fe7E', symObjAddr: 0x264, symBinAddr: 0x4FC18, symSize: 0x90 }
  - { offset: 0xA14F4, size: 0x8, addend: 0x0, symName: '__ZN5alloc7raw_vec19RawVec$LT$T$C$A$GT$8grow_one17h8f161058d493fa9aE', symObjAddr: 0x2F4, symBinAddr: 0x4FCA8, symSize: 0x90 }
  - { offset: 0xA15A2, size: 0x8, addend: 0x0, symName: '__ZN5alloc7raw_vec19RawVec$LT$T$C$A$GT$8grow_one17hdc0d192845416722E', symObjAddr: 0x384, symBinAddr: 0x4FD38, symSize: 0x90 }
  - { offset: 0xA1657, size: 0x8, addend: 0x0, symName: '__ZN5alloc7raw_vec19RawVec$LT$T$C$A$GT$8grow_one17hf455fc85a804c991E', symObjAddr: 0x414, symBinAddr: 0x4FDC8, symSize: 0x8C }
  - { offset: 0xA16DE, size: 0x8, addend: 0x0, symName: __ZN9orion_sdr5codec3ft48Ft4Codec6encode17hc40b04f4a92af5f2E, symObjAddr: 0x0, symBinAddr: 0x4FE54, symSize: 0x360 }
  - { offset: 0xA17C5, size: 0x8, addend: 0x0, symName: __ZN9orion_sdr5codec3ft48Ft4Codec6encode17hc40b04f4a92af5f2E, symObjAddr: 0x0, symBinAddr: 0x4FE54, symSize: 0x360 }
  - { offset: 0xA1B09, size: 0x8, addend: 0x0, symName: __ZN9orion_sdr5codec3ft48Ft4Codec11decode_hard17h8a9c8a142b26fb94E, symObjAddr: 0x360, symBinAddr: 0x501B4, symSize: 0x44 }
  - { offset: 0xA1B69, size: 0x8, addend: 0x0, symName: __ZN9orion_sdr5codec3ft48Ft4Codec11decode_soft17h891bd321fcf290c2E, symObjAddr: 0x3A4, symBinAddr: 0x501F8, symSize: 0x24 }
  - { offset: 0xA1B8B, size: 0x8, addend: 0x0, symName: __ZN9orion_sdr5codec3ft48Ft4Codec17frame_to_llr_hard17he57fce2e843c4feeE, symObjAddr: 0x3C8, symBinAddr: 0x5021C, symSize: 0x268 }
  - { offset: 0xA1C52, size: 0x8, addend: 0x0, symName: __ZN9orion_sdr5codec3ft48Ft4Codec10decode_llr17h7fd2432b3d601bbcE, symObjAddr: 0x630, symBinAddr: 0x50484, symSize: 0x3BC }
  - { offset: 0xA1DE8, size: 0x8, addend: 0x0, symName: '__ZN59_$LT$alloc..alloc..Global$u20$as$u20$core..clone..Clone$GT$5clone17h54417fe03e1709baE', symObjAddr: 0x0, symBinAddr: 0x50840, symSize: 0x10 }
  - { offset: 0xA26A9, size: 0x8, addend: 0x0, symName: '__ZN59_$LT$alloc..alloc..Global$u20$as$u20$core..clone..Clone$GT$5clone17h54417fe03e1709baE', symObjAddr: 0x0, symBinAddr: 0x50840, symSize: 0x10 }
  - { offset: 0xA26FF, size: 0x8, addend: 0x0, symName: '__ZN63_$LT$alloc..alloc..Global$u20$as$u20$core..alloc..Allocator$GT$10deallocate17h1a4e13fc370d1de9E', symObjAddr: 0x2C0, symBinAddr: 0x50B00, symSize: 0x80 }
  - { offset: 0xA27EF, size: 0x8, addend: 0x0, symName: __ZN5alloc5alloc15exchange_malloc17h9db6f72c095cbc0cE, symObjAddr: 0x10, symBinAddr: 0x50850, symSize: 0xAC }
  - { offset: 0xA2AEA, size: 0x8, addend: 0x0, symName: __ZN5alloc5alloc6Global10alloc_impl17hb9f844298846348cE, symObjAddr: 0xBC, symBinAddr: 0x508FC, symSize: 0x204 }
  - { offset: 0xA2ECE, size: 0x8, addend: 0x0, symName: '__ZN112_$LT$numpy..slice_container..PySliceContainer$u20$as$u20$core..convert..From$LT$alloc..vec..Vec$LT$T$GT$$GT$$GT$4from17h87907e1f4dd0b899E', symObjAddr: 0x0, symBinAddr: 0x50B80, symSize: 0xA4 }
  - { offset: 0xA3225, size: 0x8, addend: 0x0, symName: '__ZN112_$LT$numpy..slice_container..PySliceContainer$u20$as$u20$core..convert..From$LT$alloc..vec..Vec$LT$T$GT$$GT$$GT$4from17h87907e1f4dd0b899E', symObjAddr: 0x0, symBinAddr: 0x50B80, symSize: 0xA4 }
  - { offset: 0xA330A, size: 0x8, addend: 0x0, symName: '__ZN112_$LT$numpy..slice_container..PySliceContainer$u20$as$u20$core..convert..From$LT$alloc..vec..Vec$LT$T$GT$$GT$$GT$4from17hc85c9e7b6c65d078E', symObjAddr: 0xA4, symBinAddr: 0x50C24, symSize: 0xA4 }
  - { offset: 0xA33EF, size: 0x8, addend: 0x0, symName: '__ZN112_$LT$numpy..slice_container..PySliceContainer$u20$as$u20$core..convert..From$LT$alloc..vec..Vec$LT$T$GT$$GT$$GT$4from17hdcbf0f2c7d1649dfE', symObjAddr: 0x148, symBinAddr: 0x50CC8, symSize: 0xA4 }
  - { offset: 0xA34D9, size: 0x8, addend: 0x0, symName: '__ZN112_$LT$numpy..slice_container..PySliceContainer$u20$as$u20$core..convert..From$LT$alloc..vec..Vec$LT$T$GT$$GT$$GT$4from8drop_vec17h56fb878b2f29a4e6E', symObjAddr: 0x1EC, symBinAddr: 0x50D6C, symSize: 0x3C }
  - { offset: 0xA3526, size: 0x8, addend: 0x0, symName: '__ZN112_$LT$numpy..slice_container..PySliceContainer$u20$as$u20$core..convert..From$LT$alloc..vec..Vec$LT$T$GT$$GT$$GT$4from8drop_vec17had1aabade37a7f56E', symObjAddr: 0x228, symBinAddr: 0x50DA8, symSize: 0x3C }
  - { offset: 0xA3573, size: 0x8, addend: 0x0, symName: '__ZN112_$LT$numpy..slice_container..PySliceContainer$u20$as$u20$core..convert..From$LT$alloc..vec..Vec$LT$T$GT$$GT$$GT$4from8drop_vec17hfed065be99e26e71E', symObjAddr: 0x264, symBinAddr: 0x50DE4, symSize: 0x3C }
  - { offset: 0xA36C0, size: 0x8, addend: 0x0, symName: __ZN4core5slice4sort6shared9smallsort11insert_tail17h09c496cd9240aa7eE, symObjAddr: 0x0, symBinAddr: 0x50E20, symSize: 0x1DC }
  - { offset: 0xA668E, size: 0x8, addend: 0x0, symName: __ZN4core5slice4sort6shared9smallsort11insert_tail17h09c496cd9240aa7eE, symObjAddr: 0x0, symBinAddr: 0x50E20, symSize: 0x1DC }
  - { offset: 0xA67E9, size: 0x8, addend: 0x0, symName: __ZN4core5slice4sort6shared9smallsort11insert_tail17h1672a7714479dd2eE, symObjAddr: 0x1DC, symBinAddr: 0x50FFC, symSize: 0x1B8 }
  - { offset: 0xA6943, size: 0x8, addend: 0x0, symName: __ZN4core5slice4sort6shared9smallsort11insert_tail17h75f528cb6e5a70e0E, symObjAddr: 0x394, symBinAddr: 0x511B4, symSize: 0x1B8 }
  - { offset: 0xA6A9D, size: 0x8, addend: 0x0, symName: __ZN4core5slice4sort6shared9smallsort11insert_tail17h9e0f102f61928d06E, symObjAddr: 0x54C, symBinAddr: 0x5136C, symSize: 0x1A8 }
  - { offset: 0xA6BF7, size: 0x8, addend: 0x0, symName: __ZN4core5slice4sort6shared9smallsort11insert_tail17hc385259bde90a953E, symObjAddr: 0x6F4, symBinAddr: 0x51514, symSize: 0x1B8 }
  - { offset: 0xA6D51, size: 0x8, addend: 0x0, symName: __ZN4core5slice4sort6shared9smallsort11insert_tail17hcd20fe18a32c34dbE, symObjAddr: 0x8AC, symBinAddr: 0x516CC, symSize: 0x1B8 }
  - { offset: 0xA6EAB, size: 0x8, addend: 0x0, symName: __ZN4core5slice4sort6shared9smallsort11insert_tail17hf2862633dce7b3dbE, symObjAddr: 0xA64, symBinAddr: 0x51884, symSize: 0x1B8 }
  - { offset: 0xA7005, size: 0x8, addend: 0x0, symName: __ZN4core5slice4sort6shared9smallsort11insert_tail17hfd6648d4012af8e0E, symObjAddr: 0xC1C, symBinAddr: 0x51A3C, symSize: 0x1B8 }
  - { offset: 0xA715F, size: 0x8, addend: 0x0, symName: __ZN4core5slice4sort6shared9smallsort12sort4_stable17h10e63f97f2acfa35E, symObjAddr: 0xDD4, symBinAddr: 0x51BF4, symSize: 0x5C0 }
  - { offset: 0xA7AF6, size: 0x8, addend: 0x0, symName: __ZN4core5slice4sort6shared9smallsort12sort4_stable17h18281938af8edf4dE, symObjAddr: 0x1394, symBinAddr: 0x521B4, symSize: 0x5C0 }
  - { offset: 0xA848D, size: 0x8, addend: 0x0, symName: __ZN4core5slice4sort6shared9smallsort12sort4_stable17h576d9153dcccce01E, symObjAddr: 0x1954, symBinAddr: 0x52774, symSize: 0x5C0 }
  - { offset: 0xA8E24, size: 0x8, addend: 0x0, symName: __ZN4core5slice4sort6shared9smallsort12sort4_stable17h8e65908a5904c6c9E, symObjAddr: 0x1F14, symBinAddr: 0x52D34, symSize: 0x5C0 }
  - { offset: 0xA97BB, size: 0x8, addend: 0x0, symName: __ZN4core5slice4sort6shared9smallsort12sort4_stable17h9a76bef2afd90792E, symObjAddr: 0x24D4, symBinAddr: 0x532F4, symSize: 0x5C0 }
  - { offset: 0xAA152, size: 0x8, addend: 0x0, symName: __ZN4core5slice4sort6shared9smallsort12sort4_stable17hb24b27ec580650feE, symObjAddr: 0x3044, symBinAddr: 0x538B4, symSize: 0x5C4 }
  - { offset: 0xAAAE9, size: 0x8, addend: 0x0, symName: __ZN4core5slice4sort6shared9smallsort12sort4_stable17hd370097dec7972ceE, symObjAddr: 0x3608, symBinAddr: 0x53E78, symSize: 0x5C0 }
  - { offset: 0xAB480, size: 0x8, addend: 0x0, symName: __ZN4core5slice4sort6shared9smallsort12sort8_stable17h16f5ccf323d09e24E, symObjAddr: 0x3BC8, symBinAddr: 0x54438, symSize: 0x94 }
  - { offset: 0xAB54B, size: 0x8, addend: 0x0, symName: __ZN4core5slice4sort6shared9smallsort12sort8_stable17h5ed11e33df226d5bE, symObjAddr: 0x3CF0, symBinAddr: 0x544CC, symSize: 0x94 }
  - { offset: 0xAB616, size: 0x8, addend: 0x0, symName: __ZN4core5slice4sort6shared9smallsort12sort8_stable17h8fa9e3d93e827b01E, symObjAddr: 0x3D84, symBinAddr: 0x54560, symSize: 0x94 }
  - { offset: 0xAB6E1, size: 0x8, addend: 0x0, symName: __ZN4core5slice4sort6shared9smallsort12sort8_stable17h9b469dd93fa678a7E, symObjAddr: 0x3E18, symBinAddr: 0x545F4, symSize: 0x94 }
  - { offset: 0xAB7AC, size: 0x8, addend: 0x0, symName: __ZN4core5slice4sort6shared9smallsort12sort8_stable17hb82017cce363dcfcE, symObjAddr: 0x3EAC, symBinAddr: 0x54688, symSize: 0x94 }
  - { offset: 0xAB877, size: 0x8, addend: 0x0, symName: __ZN4core5slice4sort6shared9smallsort12sort8_stable17hf18cdd88bc698ecdE, symObjAddr: 0x3F40, symBinAddr: 0x5471C, symSize: 0x94 }
  - { offset: 0xAB942, size: 0x8, addend: 0x0, symName: __ZN4core5slice4sort6shared9smallsort12swap_if_less17hbef546f0eaf6e98fE, symObjAddr: 0x3FD4, symBinAddr: 0x547B0, symSize: 0x22C }
  - { offset: 0xABC7E, size: 0x8, addend: 0x0, symName: __ZN4core5slice4sort6shared9smallsort13sort9_optimal17h74574de84f4eea1eE, symObjAddr: 0x4200, symBinAddr: 0x549DC, symSize: 0x27C }
  - { offset: 0xABD05, size: 0x8, addend: 0x0, symName: __ZN4core5slice4sort6shared9smallsort14sort13_optimal17h636c3c81d6e5595cE, symObjAddr: 0x447C, symBinAddr: 0x54C58, symSize: 0x42C }
  - { offset: 0xABD8C, size: 0x8, addend: 0x0, symName: __ZN4core5slice4sort6shared9smallsort18small_sort_general17h3257fa3d64ee76f1E, symObjAddr: 0x48A8, symBinAddr: 0x55084, symSize: 0xAC }
  - { offset: 0xABE52, size: 0x8, addend: 0x0, symName: __ZN4core5slice4sort6shared9smallsort18small_sort_network17h941a99beff23a917E, symObjAddr: 0x49FC, symBinAddr: 0x55130, symSize: 0x210 }
  - { offset: 0xAC0D7, size: 0x8, addend: 0x0, symName: __ZN4core5slice4sort6shared9smallsort19bidirectional_merge17h14e582c8898afbcaE, symObjAddr: 0x4C0C, symBinAddr: 0x55340, symSize: 0x558 }
  - { offset: 0xAC84F, size: 0x8, addend: 0x0, symName: __ZN4core5slice4sort6shared9smallsort19bidirectional_merge17h29de864fae6e01c7E, symObjAddr: 0x5164, symBinAddr: 0x55898, symSize: 0x564 }
  - { offset: 0xACFC7, size: 0x8, addend: 0x0, symName: __ZN4core5slice4sort6shared9smallsort19bidirectional_merge17h32caeaea03e2411bE, symObjAddr: 0x56C8, symBinAddr: 0x55DFC, symSize: 0x564 }
  - { offset: 0xAD73F, size: 0x8, addend: 0x0, symName: __ZN4core5slice4sort6shared9smallsort19bidirectional_merge17h49858aff6fbd8f66E, symObjAddr: 0x5C2C, symBinAddr: 0x56360, symSize: 0x59C }
  - { offset: 0xADEB7, size: 0x8, addend: 0x0, symName: __ZN4core5slice4sort6shared9smallsort19bidirectional_merge17h5031e79cbf281d9aE, symObjAddr: 0x61C8, symBinAddr: 0x568FC, symSize: 0x564 }
  - { offset: 0xAE62F, size: 0x8, addend: 0x0, symName: __ZN4core5slice4sort6shared9smallsort19bidirectional_merge17h8f117b7cb0a81c56E, symObjAddr: 0x672C, symBinAddr: 0x56E60, symSize: 0x564 }
  - { offset: 0xAEDA7, size: 0x8, addend: 0x0, symName: __ZN4core5slice4sort6shared9smallsort19bidirectional_merge17h946003b4acb9b60cE, symObjAddr: 0x6C90, symBinAddr: 0x573C4, symSize: 0x564 }
  - { offset: 0xAF51F, size: 0x8, addend: 0x0, symName: __ZN4core5slice4sort6shared9smallsort19bidirectional_merge17hb89ec94cbf39d86cE, symObjAddr: 0x71F4, symBinAddr: 0x57928, symSize: 0x564 }
  - { offset: 0xAFBB3, size: 0x8, addend: 0x0, symName: __ZN4core5slice4sort6shared9smallsort25insertion_sort_shift_left17h3107cf89cba04799E, symObjAddr: 0x7758, symBinAddr: 0x57E8C, symSize: 0xC4 }
  - { offset: 0xAFCED, size: 0x8, addend: 0x0, symName: __ZN4core5slice4sort6shared9smallsort25insertion_sort_shift_left17h57beee56d3d14306E, symObjAddr: 0x781C, symBinAddr: 0x57F50, symSize: 0xC4 }
  - { offset: 0xAFE27, size: 0x8, addend: 0x0, symName: __ZN4core5slice4sort6shared9smallsort25insertion_sort_shift_left17h61f9444114044486E, symObjAddr: 0x78E0, symBinAddr: 0x58014, symSize: 0xC4 }
  - { offset: 0xAFF61, size: 0x8, addend: 0x0, symName: __ZN4core5slice4sort6shared9smallsort25insertion_sort_shift_left17h736052be9da70afbE, symObjAddr: 0x79A4, symBinAddr: 0x580D8, symSize: 0xC4 }
  - { offset: 0xB009B, size: 0x8, addend: 0x0, symName: __ZN4core5slice4sort6shared9smallsort25insertion_sort_shift_left17h756950373a46dbc2E, symObjAddr: 0x7A68, symBinAddr: 0x5819C, symSize: 0xD0 }
  - { offset: 0xB01D5, size: 0x8, addend: 0x0, symName: __ZN4core5slice4sort6shared9smallsort25insertion_sort_shift_left17h9013f6907c0944a6E, symObjAddr: 0x7B38, symBinAddr: 0x5826C, symSize: 0xC4 }
  - { offset: 0xB030F, size: 0x8, addend: 0x0, symName: __ZN4core5slice4sort6shared9smallsort25insertion_sort_shift_left17ha40913dc65ff5f7cE, symObjAddr: 0x7BFC, symBinAddr: 0x58330, symSize: 0xC4 }
  - { offset: 0xB0449, size: 0x8, addend: 0x0, symName: __ZN4core5slice4sort6shared9smallsort25insertion_sort_shift_left17hadc3341a2efeabf5E, symObjAddr: 0x7CC0, symBinAddr: 0x583F4, symSize: 0xC4 }
  - { offset: 0xB0583, size: 0x8, addend: 0x0, symName: __ZN4core5slice4sort6shared9smallsort31small_sort_general_with_scratch17h291ea22d2f4a907dE, symObjAddr: 0x7D84, symBinAddr: 0x584B8, symSize: 0x52C }
  - { offset: 0xB0A5B, size: 0x8, addend: 0x0, symName: __ZN4core5slice4sort6shared9smallsort31small_sort_general_with_scratch17h3e878ced8cc6b117E, symObjAddr: 0x82B0, symBinAddr: 0x589E4, symSize: 0x52C }
  - { offset: 0xB0F33, size: 0x8, addend: 0x0, symName: __ZN4core5slice4sort6shared9smallsort31small_sort_general_with_scratch17h3f3bcba9bedf869eE, symObjAddr: 0x87DC, symBinAddr: 0x58F10, symSize: 0x52C }
  - { offset: 0xB140B, size: 0x8, addend: 0x0, symName: __ZN4core5slice4sort6shared9smallsort31small_sort_general_with_scratch17h7654396708523a67E, symObjAddr: 0x8D08, symBinAddr: 0x5943C, symSize: 0x52C }
  - { offset: 0xB18E3, size: 0x8, addend: 0x0, symName: __ZN4core5slice4sort6shared9smallsort31small_sort_general_with_scratch17hb51c8f4bb02c1208E, symObjAddr: 0x9234, symBinAddr: 0x59968, symSize: 0x500 }
  - { offset: 0xB1D1F, size: 0x8, addend: 0x0, symName: __ZN4core5slice4sort6shared9smallsort31small_sort_general_with_scratch17hc4a9392287a9e46fE, symObjAddr: 0x9734, symBinAddr: 0x59E68, symSize: 0x52C }
  - { offset: 0xB21F7, size: 0x8, addend: 0x0, symName: __ZN4core5slice4sort6shared9smallsort31small_sort_general_with_scratch17hcb952d366a78e564E, symObjAddr: 0x9C60, symBinAddr: 0x5A394, symSize: 0x52C }
  - { offset: 0xB431A, size: 0x8, addend: 0x0, symName: '__ZN9orion_sdr6python10demodulate216_$LT$impl$u20$pyo3..impl_..pyclass..PyMethods$LT$orion_sdr..python..demodulate..PyCwEnvelopeDemod$GT$$u20$for$u20$pyo3..impl_..pyclass..PyClassImplCollector$LT$orion_sdr..python..demodulate..PyCwEnvelopeDemod$GT$$GT$10py_methods17h51880fbfc0cd9985E', symObjAddr: 0x0, symBinAddr: 0x5A8C0, symSize: 0x14 }
  - { offset: 0xB4BDC, size: 0x8, addend: 0x0, symName: '__ZN9orion_sdr6python10demodulate216_$LT$impl$u20$pyo3..impl_..pyclass..PyMethods$LT$orion_sdr..python..demodulate..PyCwEnvelopeDemod$GT$$u20$for$u20$pyo3..impl_..pyclass..PyClassImplCollector$LT$orion_sdr..python..demodulate..PyCwEnvelopeDemod$GT$$GT$10py_methods17h51880fbfc0cd9985E', symObjAddr: 0x0, symBinAddr: 0x5A8C0, symSize: 0x14 }
  - { offset: 0xB4C19, size: 0x8, addend: 0x0, symName: '__ZN9orion_sdr6python10demodulate216_$LT$impl$u20$pyo3..impl_..pyclass..PyMethods$LT$orion_sdr..python..demodulate..PyAmEnvelopeDemod$GT$$u20$for$u20$pyo3..impl_..pyclass..PyClassImplCollector$LT$orion_sdr..python..demodulate..PyAmEnvelopeDemod$GT$$GT$10py_methods17heb697d6ef3df6b51E', symObjAddr: 0x14, symBinAddr: 0x5A8D4, symSize: 0x14 }
  - { offset: 0xB4C56, size: 0x8, addend: 0x0, symName: '__ZN9orion_sdr6python10demodulate216_$LT$impl$u20$pyo3..impl_..pyclass..PyMethods$LT$orion_sdr..python..demodulate..PySsbProductDemod$GT$$u20$for$u20$pyo3..impl_..pyclass..PyClassImplCollector$LT$orion_sdr..python..demodulate..PySsbProductDemod$GT$$GT$10py_methods17hd700ae5df884543bE', symObjAddr: 0x28, symBinAddr: 0x5A8E8, symSize: 0x14 }
  - { offset: 0xB4C93, size: 0x8, addend: 0x0, symName: '__ZN9orion_sdr6python10demodulate220_$LT$impl$u20$pyo3..impl_..pyclass..PyMethods$LT$orion_sdr..python..demodulate..PyFmQuadratureDemod$GT$$u20$for$u20$pyo3..impl_..pyclass..PyClassImplCollector$LT$orion_sdr..python..demodulate..PyFmQuadratureDemod$GT$$GT$10py_methods17hf2f2ff67a3afe35cE', symObjAddr: 0x3C, symBinAddr: 0x5A8FC, symSize: 0x14 }
  - { offset: 0xB4CD0, size: 0x8, addend: 0x0, symName: '__ZN9orion_sdr6python10demodulate220_$LT$impl$u20$pyo3..impl_..pyclass..PyMethods$LT$orion_sdr..python..demodulate..PyPmQuadratureDemod$GT$$u20$for$u20$pyo3..impl_..pyclass..PyClassImplCollector$LT$orion_sdr..python..demodulate..PyPmQuadratureDemod$GT$$GT$10py_methods17h5a4de3106c6042e0E', symObjAddr: 0x50, symBinAddr: 0x5A910, symSize: 0x14 }
  - { offset: 0xB4D0D, size: 0x8, addend: 0x0, symName: '__ZN9orion_sdr6python10demodulate204_$LT$impl$u20$pyo3..impl_..pyclass..PyMethods$LT$orion_sdr..python..demodulate..PyBpskDemod$GT$$u20$for$u20$pyo3..impl_..pyclass..PyClassImplCollector$LT$orion_sdr..python..demodulate..PyBpskDemod$GT$$GT$10py_methods17h57830c6e6e341416E', symObjAddr: 0x64, symBinAddr: 0x5A924, symSize: 0x14 }
  - { offset: 0xB4D4A, size: 0x8, addend: 0x0, symName: '__ZN9orion_sdr6python10demodulate204_$LT$impl$u20$pyo3..impl_..pyclass..PyMethods$LT$orion_sdr..python..demodulate..PyQpskDemod$GT$$u20$for$u20$pyo3..impl_..pyclass..PyClassImplCollector$LT$orion_sdr..python..demodulate..PyQpskDemod$GT$$GT$10py_methods17h8708f7c7f19a8117E', symObjAddr: 0x78, symBinAddr: 0x5A938, symSize: 0x14 }
  - { offset: 0xB4D87, size: 0x8, addend: 0x0, symName: '__ZN9orion_sdr6python10demodulate202_$LT$impl$u20$pyo3..impl_..pyclass..PyMethods$LT$orion_sdr..python..demodulate..PyQamDemod$GT$$u20$for$u20$pyo3..impl_..pyclass..PyClassImplCollector$LT$orion_sdr..python..demodulate..PyQamDemod$GT$$GT$10py_methods17he6f92dd55808dbd2E', symObjAddr: 0x8C, symBinAddr: 0x5A94C, symSize: 0x14 }
  - { offset: 0xB4F15, size: 0x8, addend: 0x0, symName: '__ZN9orion_sdr6python3ft8184_$LT$impl$u20$pyo3..impl_..pyclass..PyMethods$LT$orion_sdr..python..ft8..PyFt8Mod$GT$$u20$for$u20$pyo3..impl_..pyclass..PyClassImplCollector$LT$orion_sdr..python..ft8..PyFt8Mod$GT$$GT$10py_methods17h58203076ab66e619E', symObjAddr: 0xA0, symBinAddr: 0x5A960, symSize: 0x14 }
  - { offset: 0xB4F52, size: 0x8, addend: 0x0, symName: '__ZN9orion_sdr6python3ft8188_$LT$impl$u20$pyo3..impl_..pyclass..PyMethods$LT$orion_sdr..python..ft8..PyFt8Demod$GT$$u20$for$u20$pyo3..impl_..pyclass..PyClassImplCollector$LT$orion_sdr..python..ft8..PyFt8Demod$GT$$GT$10py_methods17h676b22c21840e254E', symObjAddr: 0xB4, symBinAddr: 0x5A974, symSize: 0x14 }
  - { offset: 0xB4F8F, size: 0x8, addend: 0x0, symName: '__ZN9orion_sdr6python3ft8188_$LT$impl$u20$pyo3..impl_..pyclass..PyMethods$LT$orion_sdr..python..ft8..PyFt8Codec$GT$$u20$for$u20$pyo3..impl_..pyclass..PyClassImplCollector$LT$orion_sdr..python..ft8..PyFt8Codec$GT$$GT$10py_methods17h6750df2c745be50fE', symObjAddr: 0xC8, symBinAddr: 0x5A988, symSize: 0x14 }
  - { offset: 0xB4FCC, size: 0x8, addend: 0x0, symName: '__ZN9orion_sdr6python3ft8184_$LT$impl$u20$pyo3..impl_..pyclass..PyMethods$LT$orion_sdr..python..ft8..PyFt4Mod$GT$$u20$for$u20$pyo3..impl_..pyclass..PyClassImplCollector$LT$orion_sdr..python..ft8..PyFt4Mod$GT$$GT$10py_methods17h9bf994dffb1dfdeaE', symObjAddr: 0xDC, symBinAddr: 0x5A99C, symSize: 0x14 }
  - { offset: 0xB5009, size: 0x8, addend: 0x0, symName: '__ZN9orion_sdr6python3ft8188_$LT$impl$u20$pyo3..impl_..pyclass..PyMethods$LT$orion_sdr..python..ft8..PyFt4Demod$GT$$u20$for$u20$pyo3..impl_..pyclass..PyClassImplCollector$LT$orion_sdr..python..ft8..PyFt4Demod$GT$$GT$10py_methods17h0f1674075890935bE', symObjAddr: 0xF0, symBinAddr: 0x5A9B0, symSize: 0x14 }
  - { offset: 0xB5046, size: 0x8, addend: 0x0, symName: '__ZN9orion_sdr6python3ft8188_$LT$impl$u20$pyo3..impl_..pyclass..PyMethods$LT$orion_sdr..python..ft8..PyFt4Codec$GT$$u20$for$u20$pyo3..impl_..pyclass..PyClassImplCollector$LT$orion_sdr..python..ft8..PyFt4Codec$GT$$GT$10py_methods17hc6bbed0b03749bbfE', symObjAddr: 0x104, symBinAddr: 0x5A9C4, symSize: 0x14 }
  - { offset: 0xB50ED, size: 0x8, addend: 0x0, symName: '__ZN9orion_sdr6python8modulate198_$LT$impl$u20$pyo3..impl_..pyclass..PyMethods$LT$orion_sdr..python..modulate..PyAmDsbMod$GT$$u20$for$u20$pyo3..impl_..pyclass..PyClassImplCollector$LT$orion_sdr..python..modulate..PyAmDsbMod$GT$$GT$10py_methods17hb9c5596a2bd853efE', symObjAddr: 0x118, symBinAddr: 0x5A9D8, symSize: 0x14 }
  - { offset: 0xB512A, size: 0x8, addend: 0x0, symName: '__ZN9orion_sdr6python8modulate202_$LT$impl$u20$pyo3..impl_..pyclass..PyMethods$LT$orion_sdr..python..modulate..PyCwKeyedMod$GT$$u20$for$u20$pyo3..impl_..pyclass..PyClassImplCollector$LT$orion_sdr..python..modulate..PyCwKeyedMod$GT$$GT$10py_methods17hbd12596c05058ecdE', symObjAddr: 0x12C, symBinAddr: 0x5A9EC, symSize: 0x14 }
  - { offset: 0xB5167, size: 0x8, addend: 0x0, symName: '__ZN9orion_sdr6python8modulate212_$LT$impl$u20$pyo3..impl_..pyclass..PyMethods$LT$orion_sdr..python..modulate..PyFmPhaseAccumMod$GT$$u20$for$u20$pyo3..impl_..pyclass..PyClassImplCollector$LT$orion_sdr..python..modulate..PyFmPhaseAccumMod$GT$$GT$10py_methods17hbb16b02e05867debE', symObjAddr: 0x140, symBinAddr: 0x5AA00, symSize: 0x14 }
  - { offset: 0xB51A4, size: 0x8, addend: 0x0, symName: '__ZN9orion_sdr6python8modulate214_$LT$impl$u20$pyo3..impl_..pyclass..PyMethods$LT$orion_sdr..python..modulate..PyPmDirectPhaseMod$GT$$u20$for$u20$pyo3..impl_..pyclass..PyClassImplCollector$LT$orion_sdr..python..modulate..PyPmDirectPhaseMod$GT$$GT$10py_methods17hdc50059abdc8755dE', symObjAddr: 0x154, symBinAddr: 0x5AA14, symSize: 0x14 }
  - { offset: 0xB51E1, size: 0x8, addend: 0x0, symName: '__ZN9orion_sdr6python8modulate208_$LT$impl$u20$pyo3..impl_..pyclass..PyMethods$LT$orion_sdr..python..modulate..PySsbPhasingMod$GT$$u20$for$u20$pyo3..impl_..pyclass..PyClassImplCollector$LT$orion_sdr..python..modulate..PySsbPhasingMod$GT$$GT$10py_methods17hb6fff3d01ece2919E', symObjAddr: 0x168, symBinAddr: 0x5AA28, symSize: 0x14 }
  - { offset: 0xB521E, size: 0x8, addend: 0x0, symName: '__ZN9orion_sdr6python8modulate196_$LT$impl$u20$pyo3..impl_..pyclass..PyMethods$LT$orion_sdr..python..modulate..PyBpskMod$GT$$u20$for$u20$pyo3..impl_..pyclass..PyClassImplCollector$LT$orion_sdr..python..modulate..PyBpskMod$GT$$GT$10py_methods17h528241cf09ce2a92E', symObjAddr: 0x17C, symBinAddr: 0x5AA3C, symSize: 0x14 }
  - { offset: 0xB525B, size: 0x8, addend: 0x0, symName: '__ZN9orion_sdr6python8modulate196_$LT$impl$u20$pyo3..impl_..pyclass..PyMethods$LT$orion_sdr..python..modulate..PyQpskMod$GT$$u20$for$u20$pyo3..impl_..pyclass..PyClassImplCollector$LT$orion_sdr..python..modulate..PyQpskMod$GT$$GT$10py_methods17h537090ed64c3f37bE', symObjAddr: 0x190, symBinAddr: 0x5AA50, symSize: 0x14 }
  - { offset: 0xB5298, size: 0x8, addend: 0x0, symName: '__ZN9orion_sdr6python8modulate194_$LT$impl$u20$pyo3..impl_..pyclass..PyMethods$LT$orion_sdr..python..modulate..PyQamMod$GT$$u20$for$u20$pyo3..impl_..pyclass..PyClassImplCollector$LT$orion_sdr..python..modulate..PyQamMod$GT$$GT$10py_methods17h2e9c7d5719710dcdE', symObjAddr: 0x1A4, symBinAddr: 0x5AA64, symSize: 0x14 }
  - { offset: 0xB5426, size: 0x8, addend: 0x0, symName: '__ZN9orion_sdr6python5psk31206_$LT$impl$u20$pyo3..impl_..pyclass..PyMethods$LT$orion_sdr..python..psk31..PyVaricodeEncoder$GT$$u20$for$u20$pyo3..impl_..pyclass..PyClassImplCollector$LT$orion_sdr..python..psk31..PyVaricodeEncoder$GT$$GT$10py_methods17h713e9b47226a8ef2E', symObjAddr: 0x1B8, symBinAddr: 0x5AA78, symSize: 0x14 }
  - { offset: 0xB5463, size: 0x8, addend: 0x0, symName: '__ZN9orion_sdr6python5psk31206_$LT$impl$u20$pyo3..impl_..pyclass..PyMethods$LT$orion_sdr..python..psk31..PyVaricodeDecoder$GT$$u20$for$u20$pyo3..impl_..pyclass..PyClassImplCollector$LT$orion_sdr..python..psk31..PyVaricodeDecoder$GT$$GT$10py_methods17hd903fa100a0365f6E', symObjAddr: 0x1CC, symBinAddr: 0x5AA8C, symSize: 0x14 }
  - { offset: 0xB54A0, size: 0x8, addend: 0x0, symName: '__ZN9orion_sdr6python5psk31194_$LT$impl$u20$pyo3..impl_..pyclass..PyMethods$LT$orion_sdr..python..psk31..PyBpsk31Mod$GT$$u20$for$u20$pyo3..impl_..pyclass..PyClassImplCollector$LT$orion_sdr..python..psk31..PyBpsk31Mod$GT$$GT$10py_methods17hc3c212f015207880E', symObjAddr: 0x1E0, symBinAddr: 0x5AAA0, symSize: 0x14 }
  - { offset: 0xB54DD, size: 0x8, addend: 0x0, symName: '__ZN9orion_sdr6python5psk31198_$LT$impl$u20$pyo3..impl_..pyclass..PyMethods$LT$orion_sdr..python..psk31..PyBpsk31Demod$GT$$u20$for$u20$pyo3..impl_..pyclass..PyClassImplCollector$LT$orion_sdr..python..psk31..PyBpsk31Demod$GT$$GT$10py_methods17h794c6bbfcdf7ff50E', symObjAddr: 0x1F4, symBinAddr: 0x5AAB4, symSize: 0x14 }
  - { offset: 0xB551A, size: 0x8, addend: 0x0, symName: '__ZN9orion_sdr6python5psk31194_$LT$impl$u20$pyo3..impl_..pyclass..PyMethods$LT$orion_sdr..python..psk31..PyQpsk31Mod$GT$$u20$for$u20$pyo3..impl_..pyclass..PyClassImplCollector$LT$orion_sdr..python..psk31..PyQpsk31Mod$GT$$GT$10py_methods17h4e6ebffab643defcE', symObjAddr: 0x208, symBinAddr: 0x5AAC8, symSize: 0x14 }
  - { offset: 0xB5557, size: 0x8, addend: 0x0, symName: '__ZN9orion_sdr6python5psk31198_$LT$impl$u20$pyo3..impl_..pyclass..PyMethods$LT$orion_sdr..python..psk31..PyQpsk31Demod$GT$$u20$for$u20$pyo3..impl_..pyclass..PyClassImplCollector$LT$orion_sdr..python..psk31..PyQpsk31Demod$GT$$GT$10py_methods17hc160055fd785362dE', symObjAddr: 0x21C, symBinAddr: 0x5AADC, symSize: 0x14 }
  - { offset: 0xB5594, size: 0x8, addend: 0x0, symName: '__ZN9orion_sdr6python5psk31202_$LT$impl$u20$pyo3..impl_..pyclass..PyMethods$LT$orion_sdr..python..psk31..PyBpsk31Decider$GT$$u20$for$u20$pyo3..impl_..pyclass..PyClassImplCollector$LT$orion_sdr..python..psk31..PyBpsk31Decider$GT$$GT$10py_methods17h64a88f47ce7c7f97E', symObjAddr: 0x230, symBinAddr: 0x5AAF0, symSize: 0x14 }
  - { offset: 0xB55D1, size: 0x8, addend: 0x0, symName: '__ZN9orion_sdr6python5psk31198_$LT$impl$u20$pyo3..impl_..pyclass..PyMethods$LT$orion_sdr..python..psk31..PyPsk31Stream$GT$$u20$for$u20$pyo3..impl_..pyclass..PyClassImplCollector$LT$orion_sdr..python..psk31..PyPsk31Stream$GT$$GT$10py_methods17h3fb4ee16766ede27E', symObjAddr: 0x244, symBinAddr: 0x5AB04, symSize: 0x14 }
  - { offset: 0xB6F15, size: 0x8, addend: 0x0, symName: __ZN9orion_sdr6python3ft816str_to_gridfield17h0fd6e907d17492caE, symObjAddr: 0x0, symBinAddr: 0x5AB18, symSize: 0x24C }
  - { offset: 0xB6F48, size: 0x8, addend: 0x0, symName: '__ZN86_$LT$orion_sdr..python..ft8..PyFt8Mod$u20$as$u20$pyo3..impl_..pyclass..PyClassImpl$GT$10items_iter15INTRINSIC_ITEMS17hdd63fea07e658a6cE', symObjAddr: 0x8E28, symBinAddr: 0x145A30, symSize: 0x0 }
  - { offset: 0xB6F68, size: 0x8, addend: 0x0, symName: '__ZN86_$LT$orion_sdr..python..ft8..PyFt8Mod$u20$as$u20$pyo3..impl_..pyclass..PyClassImpl$GT$16lazy_type_object11TYPE_OBJECT17h0b0135e6cca0db0fE', symObjAddr: 0xACC0, symBinAddr: 0x1DCB28, symSize: 0x0 }
  - { offset: 0xB6F76, size: 0x8, addend: 0x0, symName: '__ZN86_$LT$orion_sdr..python..ft8..PyFt8Mod$u20$as$u20$pyo3..impl_..pyclass..PyClassImpl$GT$10items_iter17h9cc9b34450773fedE', symObjAddr: 0x28C, symBinAddr: 0x5ADA4, symSize: 0x38 }
  - { offset: 0xB6FB1, size: 0x8, addend: 0x0, symName: '__ZN86_$LT$orion_sdr..python..ft8..PyFt8Mod$u20$as$u20$pyo3..impl_..pyclass..PyClassImpl$GT$16lazy_type_object17h59783d5cbde0c209E', symObjAddr: 0x2C4, symBinAddr: 0x5ADDC, symSize: 0xC }
  - { offset: 0xB708B, size: 0x8, addend: 0x0, symName: '__ZN9orion_sdr6python3ft8184_$LT$impl$u20$pyo3..impl_..pyclass..PyMethods$LT$orion_sdr..python..ft8..PyFt8Mod$GT$$u20$for$u20$pyo3..impl_..pyclass..PyClassImplCollector$LT$orion_sdr..python..ft8..PyFt8Mod$GT$$GT$10py_methods5ITEMS17h2b9bca77c0534e00E', symObjAddr: 0x9388, symBinAddr: 0x1CE838, symSize: 0x0 }
  - { offset: 0xB70B1, size: 0x8, addend: 0x0, symName: '__ZN88_$LT$orion_sdr..python..ft8..PyFt8Demod$u20$as$u20$pyo3..impl_..pyclass..PyClassImpl$GT$10items_iter15INTRINSIC_ITEMS17h5189d27521bdf49bE', symObjAddr: 0x8E98, symBinAddr: 0x145AA0, symSize: 0x0 }
  - { offset: 0xB70D1, size: 0x8, addend: 0x0, symName: '__ZN88_$LT$orion_sdr..python..ft8..PyFt8Demod$u20$as$u20$pyo3..impl_..pyclass..PyClassImpl$GT$16lazy_type_object11TYPE_OBJECT17hbaafe69ba5a01d1dE', symObjAddr: 0xAD28, symBinAddr: 0x1DCB90, symSize: 0x0 }
  - { offset: 0xB70DF, size: 0x8, addend: 0x0, symName: '__ZN88_$LT$orion_sdr..python..ft8..PyFt8Demod$u20$as$u20$pyo3..impl_..pyclass..PyClassImpl$GT$10items_iter17h545d56344961939dE', symObjAddr: 0xCC4, symBinAddr: 0x5B7DC, symSize: 0x38 }
  - { offset: 0xB711A, size: 0x8, addend: 0x0, symName: '__ZN88_$LT$orion_sdr..python..ft8..PyFt8Demod$u20$as$u20$pyo3..impl_..pyclass..PyClassImpl$GT$16lazy_type_object17hcfa37aa7584e7afbE', symObjAddr: 0xCFC, symBinAddr: 0x5B814, symSize: 0xC }
  - { offset: 0xB71EA, size: 0x8, addend: 0x0, symName: '__ZN9orion_sdr6python3ft8188_$LT$impl$u20$pyo3..impl_..pyclass..PyMethods$LT$orion_sdr..python..ft8..PyFt8Demod$GT$$u20$for$u20$pyo3..impl_..pyclass..PyClassImplCollector$LT$orion_sdr..python..ft8..PyFt8Demod$GT$$GT$10py_methods5ITEMS17ha49ec475193eca55E', symObjAddr: 0x95D0, symBinAddr: 0x1CEA80, symSize: 0x0 }
  - { offset: 0xB7210, size: 0x8, addend: 0x0, symName: '__ZN88_$LT$orion_sdr..python..ft8..PyFt8Codec$u20$as$u20$pyo3..impl_..pyclass..PyClassImpl$GT$10items_iter15INTRINSIC_ITEMS17h12e3638351ab1a4dE', symObjAddr: 0x8F18, symBinAddr: 0x145B20, symSize: 0x0 }
  - { offset: 0xB7230, size: 0x8, addend: 0x0, symName: '__ZN88_$LT$orion_sdr..python..ft8..PyFt8Codec$u20$as$u20$pyo3..impl_..pyclass..PyClassImpl$GT$16lazy_type_object11TYPE_OBJECT17h7b8c8a5ded0743bdE', symObjAddr: 0xAD90, symBinAddr: 0x1DCBF8, symSize: 0x0 }
  - { offset: 0xB723E, size: 0x8, addend: 0x0, symName: '__ZN88_$LT$orion_sdr..python..ft8..PyFt8Codec$u20$as$u20$pyo3..impl_..pyclass..PyClassImpl$GT$10items_iter17hd09e9d31cd0b4e04E', symObjAddr: 0x15C4, symBinAddr: 0x5C0DC, symSize: 0x38 }
  - { offset: 0xB7279, size: 0x8, addend: 0x0, symName: '__ZN88_$LT$orion_sdr..python..ft8..PyFt8Codec$u20$as$u20$pyo3..impl_..pyclass..PyClassImpl$GT$16lazy_type_object17h12301ae5059d113aE', symObjAddr: 0x15FC, symBinAddr: 0x5C114, symSize: 0xC }
  - { offset: 0xB73AF, size: 0x8, addend: 0x0, symName: '__ZN9orion_sdr6python3ft8188_$LT$impl$u20$pyo3..impl_..pyclass..PyMethods$LT$orion_sdr..python..ft8..PyFt8Codec$GT$$u20$for$u20$pyo3..impl_..pyclass..PyClassImplCollector$LT$orion_sdr..python..ft8..PyFt8Codec$GT$$GT$10py_methods5ITEMS17had8a629a9b5d30f4E', symObjAddr: 0x98A0, symBinAddr: 0x1CED50, symSize: 0x0 }
  - { offset: 0xB73D5, size: 0x8, addend: 0x0, symName: '__ZN86_$LT$orion_sdr..python..ft8..PyFt4Mod$u20$as$u20$pyo3..impl_..pyclass..PyClassImpl$GT$10items_iter15INTRINSIC_ITEMS17h8aba84d98d582aacE', symObjAddr: 0x8FE8, symBinAddr: 0x145BF0, symSize: 0x0 }
  - { offset: 0xB73F5, size: 0x8, addend: 0x0, symName: '__ZN86_$LT$orion_sdr..python..ft8..PyFt4Mod$u20$as$u20$pyo3..impl_..pyclass..PyClassImpl$GT$16lazy_type_object11TYPE_OBJECT17h53f42cf6fb0bdb74E', symObjAddr: 0xADF8, symBinAddr: 0x1DCC60, symSize: 0x0 }
  - { offset: 0xB7403, size: 0x8, addend: 0x0, symName: '__ZN86_$LT$orion_sdr..python..ft8..PyFt4Mod$u20$as$u20$pyo3..impl_..pyclass..PyClassImpl$GT$10items_iter17h9b2c73c318447102E', symObjAddr: 0x2600, symBinAddr: 0x5D118, symSize: 0x38 }
  - { offset: 0xB743E, size: 0x8, addend: 0x0, symName: '__ZN86_$LT$orion_sdr..python..ft8..PyFt4Mod$u20$as$u20$pyo3..impl_..pyclass..PyClassImpl$GT$16lazy_type_object17he8f632af1146d5b0E', symObjAddr: 0x2638, symBinAddr: 0x5D150, symSize: 0xC }
  - { offset: 0xB7518, size: 0x8, addend: 0x0, symName: '__ZN9orion_sdr6python3ft8184_$LT$impl$u20$pyo3..impl_..pyclass..PyMethods$LT$orion_sdr..python..ft8..PyFt4Mod$GT$$u20$for$u20$pyo3..impl_..pyclass..PyClassImplCollector$LT$orion_sdr..python..ft8..PyFt4Mod$GT$$GT$10py_methods5ITEMS17h981525ad4faf2a9aE', symObjAddr: 0x9B30, symBinAddr: 0x1CEFE0, symSize: 0x0 }
  - { offset: 0xB753E, size: 0x8, addend: 0x0, symName: '__ZN88_$LT$orion_sdr..python..ft8..PyFt4Demod$u20$as$u20$pyo3..impl_..pyclass..PyClassImpl$GT$10items_iter15INTRINSIC_ITEMS17h868020d711cbba3fE', symObjAddr: 0x9028, symBinAddr: 0x145C30, symSize: 0x0 }
  - { offset: 0xB755E, size: 0x8, addend: 0x0, symName: '__ZN88_$LT$orion_sdr..python..ft8..PyFt4Demod$u20$as$u20$pyo3..impl_..pyclass..PyClassImpl$GT$16lazy_type_object11TYPE_OBJECT17h10339a4a631536eeE', symObjAddr: 0xAE60, symBinAddr: 0x1DCCC8, symSize: 0x0 }
  - { offset: 0xB756C, size: 0x8, addend: 0x0, symName: '__ZN88_$LT$orion_sdr..python..ft8..PyFt4Demod$u20$as$u20$pyo3..impl_..pyclass..PyClassImpl$GT$10items_iter17h6e12d15381fab0c0E', symObjAddr: 0x3044, symBinAddr: 0x5DB5C, symSize: 0x38 }
  - { offset: 0xB75A7, size: 0x8, addend: 0x0, symName: '__ZN88_$LT$orion_sdr..python..ft8..PyFt4Demod$u20$as$u20$pyo3..impl_..pyclass..PyClassImpl$GT$16lazy_type_object17ha819ffb2442dd9e6E', symObjAddr: 0x307C, symBinAddr: 0x5DB94, symSize: 0xC }
  - { offset: 0xB7677, size: 0x8, addend: 0x0, symName: '__ZN9orion_sdr6python3ft8188_$LT$impl$u20$pyo3..impl_..pyclass..PyMethods$LT$orion_sdr..python..ft8..PyFt4Demod$GT$$u20$for$u20$pyo3..impl_..pyclass..PyClassImplCollector$LT$orion_sdr..python..ft8..PyFt4Demod$GT$$GT$10py_methods5ITEMS17hc3d5465c604dda32E', symObjAddr: 0x9D28, symBinAddr: 0x1CF1D8, symSize: 0x0 }
  - { offset: 0xB769D, size: 0x8, addend: 0x0, symName: '__ZN88_$LT$orion_sdr..python..ft8..PyFt4Codec$u20$as$u20$pyo3..impl_..pyclass..PyClassImpl$GT$10items_iter15INTRINSIC_ITEMS17h15e776eae74049ebE', symObjAddr: 0x9098, symBinAddr: 0x145CA0, symSize: 0x0 }
  - { offset: 0xB76BD, size: 0x8, addend: 0x0, symName: '__ZN88_$LT$orion_sdr..python..ft8..PyFt4Codec$u20$as$u20$pyo3..impl_..pyclass..PyClassImpl$GT$16lazy_type_object11TYPE_OBJECT17hf8bdfb338a06c744E', symObjAddr: 0xAEC8, symBinAddr: 0x1DCD30, symSize: 0x0 }
  - { offset: 0xB76CB, size: 0x8, addend: 0x0, symName: '__ZN88_$LT$orion_sdr..python..ft8..PyFt4Codec$u20$as$u20$pyo3..impl_..pyclass..PyClassImpl$GT$10items_iter17h27afc6eb094cd274E', symObjAddr: 0x394C, symBinAddr: 0x5E464, symSize: 0x38 }
  - { offset: 0xB7706, size: 0x8, addend: 0x0, symName: '__ZN88_$LT$orion_sdr..python..ft8..PyFt4Codec$u20$as$u20$pyo3..impl_..pyclass..PyClassImpl$GT$16lazy_type_object17h06d25060f62930a0E', symObjAddr: 0x3984, symBinAddr: 0x5E49C, symSize: 0xC }
  - { offset: 0xB783E, size: 0x8, addend: 0x0, symName: '__ZN9orion_sdr6python3ft8188_$LT$impl$u20$pyo3..impl_..pyclass..PyMethods$LT$orion_sdr..python..ft8..PyFt4Codec$GT$$u20$for$u20$pyo3..impl_..pyclass..PyClassImplCollector$LT$orion_sdr..python..ft8..PyFt4Codec$GT$$GT$10py_methods5ITEMS17h355b564e73688355E', symObjAddr: 0x9FC8, symBinAddr: 0x1CF478, symSize: 0x0 }
  - { offset: 0xB784D, size: 0x8, addend: 0x0, symName: __ZN9orion_sdr6python3ft816str_to_gridfield17h0fd6e907d17492caE, symObjAddr: 0x0, symBinAddr: 0x5AB18, symSize: 0x24C }
  - { offset: 0xB78CA, size: 0x8, addend: 0x0, symName: '__ZN82_$LT$orion_sdr..python..ft8..PyFt8Mod$u20$as$u20$pyo3..type_object..PyTypeInfo$GT$15type_object_raw17ha8d08af4ad86207fE', symObjAddr: 0x24C, symBinAddr: 0x5AD64, symSize: 0x40 }
  - { offset: 0xB7907, size: 0x8, addend: 0x0, symName: '__ZN84_$LT$orion_sdr..python..ft8..PyFt8Demod$u20$as$u20$pyo3..type_object..PyTypeInfo$GT$15type_object_raw17hcd94202c47b9437dE', symObjAddr: 0xC84, symBinAddr: 0x5B79C, symSize: 0x40 }
  - { offset: 0xB7944, size: 0x8, addend: 0x0, symName: '__ZN82_$LT$orion_sdr..python..ft8..PyFt4Mod$u20$as$u20$pyo3..type_object..PyTypeInfo$GT$15type_object_raw17ha22ee2c11ab1157cE', symObjAddr: 0x25C0, symBinAddr: 0x5D0D8, symSize: 0x40 }
  - { offset: 0xB7981, size: 0x8, addend: 0x0, symName: '__ZN84_$LT$orion_sdr..python..ft8..PyFt4Demod$u20$as$u20$pyo3..type_object..PyTypeInfo$GT$15type_object_raw17hdd8648cd1882dcc5E', symObjAddr: 0x3004, symBinAddr: 0x5DB1C, symSize: 0x40 }
  - { offset: 0xB79B9, size: 0x8, addend: 0x0, symName: __ZN9orion_sdr6python3ft88ft8_sync17h9ed8dec4617b0a0dE, symObjAddr: 0x4948, symBinAddr: 0x5F460, symSize: 0x5AC }
  - { offset: 0xB7BAC, size: 0x8, addend: 0x0, symName: __ZN9orion_sdr6python3ft821__pyfunction_ft8_sync17h489e950f9196fb42E, symObjAddr: 0x4EF4, symBinAddr: 0x5FA0C, symSize: 0x720 }
  - { offset: 0xB7E6A, size: 0x8, addend: 0x0, symName: __ZN9orion_sdr6python3ft88ft4_sync17h61861304e1a91de4E, symObjAddr: 0x5614, symBinAddr: 0x6012C, symSize: 0x5AC }
  - { offset: 0xB805D, size: 0x8, addend: 0x0, symName: __ZN9orion_sdr6python3ft821__pyfunction_ft4_sync17hb09a66322d300512E, symObjAddr: 0x5BC0, symBinAddr: 0x606D8, symSize: 0x720 }
  - { offset: 0xB831B, size: 0x8, addend: 0x0, symName: __ZN9orion_sdr6python3ft817ft8_pack_standard17h6005790231883735E, symObjAddr: 0x62E0, symBinAddr: 0x60DF8, symSize: 0x248 }
  - { offset: 0xB83E0, size: 0x8, addend: 0x0, symName: __ZN9orion_sdr6python3ft830__pyfunction_ft8_pack_standard17h52cfd93ffd422bc6E, symObjAddr: 0x6528, symBinAddr: 0x61040, symSize: 0x430 }
  - { offset: 0xB85D7, size: 0x8, addend: 0x0, symName: __ZN9orion_sdr6python3ft818ft8_pack_free_text17hc6df5b63695da573E, symObjAddr: 0x6958, symBinAddr: 0x61470, symSize: 0x160 }
  - { offset: 0xB8664, size: 0x8, addend: 0x0, symName: __ZN9orion_sdr6python3ft831__pyfunction_ft8_pack_free_text17h0863d4f890ee2b11E, symObjAddr: 0x6AB8, symBinAddr: 0x615D0, symSize: 0x2BC }
  - { offset: 0xB87E9, size: 0x8, addend: 0x0, symName: __ZN9orion_sdr6python3ft818ft8_pack_telemetry17h98e1699b8da9cacaE, symObjAddr: 0x6D74, symBinAddr: 0x6188C, symSize: 0x22C }
  - { offset: 0xB88CC, size: 0x8, addend: 0x0, symName: __ZN9orion_sdr6python3ft831__pyfunction_ft8_pack_telemetry17hd6d5c9b309aeabcfE, symObjAddr: 0x6FA0, symBinAddr: 0x61AB8, symSize: 0x2BC }
  - { offset: 0xB8A51, size: 0x8, addend: 0x0, symName: __ZN9orion_sdr6python3ft810ft8_unpack17he97938076cd70e7aE, symObjAddr: 0x725C, symBinAddr: 0x61D74, symSize: 0xE20 }
  - { offset: 0xB8D4D, size: 0x8, addend: 0x0, symName: __ZN9orion_sdr6python3ft823__pyfunction_ft8_unpack17hd420503ab2d4a589E, symObjAddr: 0x807C, symBinAddr: 0x62B94, symSize: 0x2BC }
  - { offset: 0xBBB89, size: 0x8, addend: 0x0, symName: __ZN9orion_sdr6python3ft88PyFt8Mod3new17h54b6ce711a380124E, symObjAddr: 0x2D0, symBinAddr: 0x5ADE8, symSize: 0x40 }
  - { offset: 0xBBE72, size: 0x8, addend: 0x0, symName: __ZN9orion_sdr6python3ft88PyFt8Mod8modulate17h399bb782b06f82fbE, symObjAddr: 0x310, symBinAddr: 0x5AE28, symSize: 0x268 }
  - { offset: 0xBBFA8, size: 0x8, addend: 0x0, symName: __ZN9orion_sdr6python3ft88PyFt8Mod20__pymethod___new____17h23b55b9ea4d51c79E, symObjAddr: 0x578, symBinAddr: 0x5B090, symSize: 0x354 }
  - { offset: 0xBC190, size: 0x8, addend: 0x0, symName: __ZN9orion_sdr6python3ft88PyFt8Mod21__pymethod_modulate__17h875781e4884bb61eE, symObjAddr: 0x8CC, symBinAddr: 0x5B3E4, symSize: 0x3B8 }
  - { offset: 0xBC31D, size: 0x8, addend: 0x0, symName: __ZN9orion_sdr6python3ft810PyFt8Demod3new17h99d35531743c2135E, symObjAddr: 0xD08, symBinAddr: 0x5B820, symSize: 0x24 }
  - { offset: 0xBC3B3, size: 0x8, addend: 0x0, symName: __ZN9orion_sdr6python3ft810PyFt8Demod10demodulate17h9dd340b043b88b4dE, symObjAddr: 0xD2C, symBinAddr: 0x5B844, symSize: 0x298 }
  - { offset: 0xBC4AD, size: 0x8, addend: 0x0, symName: __ZN9orion_sdr6python3ft810PyFt8Demod20__pymethod___new____17h78a903a7586ea930E, symObjAddr: 0xFC4, symBinAddr: 0x5BADC, symSize: 0x248 }
  - { offset: 0xBC61D, size: 0x8, addend: 0x0, symName: __ZN9orion_sdr6python3ft810PyFt8Demod23__pymethod_demodulate__17h7f3c02c207f20c3dE, symObjAddr: 0x120C, symBinAddr: 0x5BD24, symSize: 0x3B8 }
  - { offset: 0xBC7AA, size: 0x8, addend: 0x0, symName: __ZN9orion_sdr6python3ft810PyFt8Codec3new17h562f4189ca172725E, symObjAddr: 0x1608, symBinAddr: 0x5C120, symSize: 0x4 }
  - { offset: 0xBC7BD, size: 0x8, addend: 0x0, symName: __ZN9orion_sdr6python3ft810PyFt8Codec6encode17ha07472c84cec9f66E, symObjAddr: 0x160C, symBinAddr: 0x5C124, symSize: 0x134 }
  - { offset: 0xBC870, size: 0x8, addend: 0x0, symName: __ZN9orion_sdr6python3ft810PyFt8Codec11decode_hard17hb1fe4a705e467f61E, symObjAddr: 0x1740, symBinAddr: 0x5C258, symSize: 0x2D8 }
  - { offset: 0xBC9E0, size: 0x8, addend: 0x0, symName: __ZN9orion_sdr6python3ft810PyFt8Codec11decode_soft17h6a4b693d5cc7a25fE, symObjAddr: 0x1A18, symBinAddr: 0x5C530, symSize: 0x2CC }
  - { offset: 0xBCAE1, size: 0x8, addend: 0x0, symName: __ZN9orion_sdr6python3ft810PyFt8Codec20__pymethod___new____17ha9d7505a4e5cfa4fE, symObjAddr: 0x1CE4, symBinAddr: 0x5C7FC, symSize: 0xB8 }
  - { offset: 0xBCBD9, size: 0x8, addend: 0x0, symName: __ZN9orion_sdr6python3ft810PyFt8Codec19__pymethod_encode__17h6627b6a3bf0c73caE, symObjAddr: 0x1D9C, symBinAddr: 0x5C8B4, symSize: 0x2BC }
  - { offset: 0xBCD42, size: 0x8, addend: 0x0, symName: __ZN9orion_sdr6python3ft810PyFt8Codec24__pymethod_decode_hard__17h5ff2de5d521a32aeE, symObjAddr: 0x2058, symBinAddr: 0x5CB70, symSize: 0x2B4 }
  - { offset: 0xBCEAA, size: 0x8, addend: 0x0, symName: __ZN9orion_sdr6python3ft810PyFt8Codec24__pymethod_decode_soft__17hf0e227d9455c96a2E, symObjAddr: 0x230C, symBinAddr: 0x5CE24, symSize: 0x2B4 }
  - { offset: 0xBD012, size: 0x8, addend: 0x0, symName: __ZN9orion_sdr6python3ft88PyFt4Mod3new17h9c518290f92cf108E, symObjAddr: 0x2644, symBinAddr: 0x5D15C, symSize: 0x40 }
  - { offset: 0xBD06B, size: 0x8, addend: 0x0, symName: __ZN9orion_sdr6python3ft88PyFt4Mod8modulate17h98b231ecc76feed0E, symObjAddr: 0x2684, symBinAddr: 0x5D19C, symSize: 0x274 }
  - { offset: 0xBD1A1, size: 0x8, addend: 0x0, symName: __ZN9orion_sdr6python3ft88PyFt4Mod20__pymethod___new____17h8ad34c9cd153866bE, symObjAddr: 0x28F8, symBinAddr: 0x5D410, symSize: 0x354 }
  - { offset: 0xBD389, size: 0x8, addend: 0x0, symName: __ZN9orion_sdr6python3ft88PyFt4Mod21__pymethod_modulate__17hdda0781cc0795478E, symObjAddr: 0x2C4C, symBinAddr: 0x5D764, symSize: 0x3B8 }
  - { offset: 0xBD516, size: 0x8, addend: 0x0, symName: __ZN9orion_sdr6python3ft810PyFt4Demod3new17h905c9956fe6ff596E, symObjAddr: 0x3088, symBinAddr: 0x5DBA0, symSize: 0x24 }
  - { offset: 0xBD553, size: 0x8, addend: 0x0, symName: __ZN9orion_sdr6python3ft810PyFt4Demod10demodulate17h0bbf5b8da9aa0b13E, symObjAddr: 0x30AC, symBinAddr: 0x5DBC4, symSize: 0x2A0 }
  - { offset: 0xBD64D, size: 0x8, addend: 0x0, symName: __ZN9orion_sdr6python3ft810PyFt4Demod20__pymethod___new____17h5b6c889c1acad435E, symObjAddr: 0x334C, symBinAddr: 0x5DE64, symSize: 0x248 }
  - { offset: 0xBD7BD, size: 0x8, addend: 0x0, symName: __ZN9orion_sdr6python3ft810PyFt4Demod23__pymethod_demodulate__17h5e5171f59c571b6aE, symObjAddr: 0x3594, symBinAddr: 0x5E0AC, symSize: 0x3B8 }
  - { offset: 0xBD94A, size: 0x8, addend: 0x0, symName: __ZN9orion_sdr6python3ft810PyFt4Codec3new17h3d3e3e1264ed71a6E, symObjAddr: 0x3990, symBinAddr: 0x5E4A8, symSize: 0x4 }
  - { offset: 0xBD95D, size: 0x8, addend: 0x0, symName: __ZN9orion_sdr6python3ft810PyFt4Codec6encode17haa3814a82513db5fE, symObjAddr: 0x3994, symBinAddr: 0x5E4AC, symSize: 0x134 }
  - { offset: 0xBDA10, size: 0x8, addend: 0x0, symName: __ZN9orion_sdr6python3ft810PyFt4Codec11decode_hard17h6db939fa4e2f4fc1E, symObjAddr: 0x3AC8, symBinAddr: 0x5E5E0, symSize: 0x2D8 }
  - { offset: 0xBDB33, size: 0x8, addend: 0x0, symName: __ZN9orion_sdr6python3ft810PyFt4Codec11decode_soft17ha21055ccb931f1d4E, symObjAddr: 0x3DA0, symBinAddr: 0x5E8B8, symSize: 0x2CC }
  - { offset: 0xBDC3F, size: 0x8, addend: 0x0, symName: __ZN9orion_sdr6python3ft810PyFt4Codec20__pymethod___new____17h4c28d560ee2a45efE, symObjAddr: 0x406C, symBinAddr: 0x5EB84, symSize: 0xB8 }
  - { offset: 0xBDD37, size: 0x8, addend: 0x0, symName: __ZN9orion_sdr6python3ft810PyFt4Codec19__pymethod_encode__17ha455b1fe78ab4268E, symObjAddr: 0x4124, symBinAddr: 0x5EC3C, symSize: 0x2BC }
  - { offset: 0xBDEA0, size: 0x8, addend: 0x0, symName: __ZN9orion_sdr6python3ft810PyFt4Codec24__pymethod_decode_hard__17h1cedb70ab389349eE, symObjAddr: 0x43E0, symBinAddr: 0x5EEF8, symSize: 0x2B4 }
  - { offset: 0xBE00C, size: 0x8, addend: 0x0, symName: __ZN9orion_sdr6python3ft810PyFt4Codec24__pymethod_decode_soft__17h6955162b6ca41719E, symObjAddr: 0x4694, symBinAddr: 0x5F1AC, symSize: 0x2B4 }
  - { offset: 0xBE702, size: 0x8, addend: 0x0, symName: __ZN9orion_sdr10demodulate2fm17FmQuadratureDemod3new17hcdcd54c10f20cf35E, symObjAddr: 0x0, symBinAddr: 0x62E50, symSize: 0xCC }
  - { offset: 0xBE8F6, size: 0x8, addend: 0x0, symName: __ZN9orion_sdr10demodulate2fm17FmQuadratureDemod3new17hcdcd54c10f20cf35E, symObjAddr: 0x0, symBinAddr: 0x62E50, symSize: 0xCC }
  - { offset: 0xBE98C, size: 0x8, addend: 0x0, symName: __ZN9orion_sdr8modulate2pm16PmDirectPhaseMod3new17h77ea2b166b47c274E, symObjAddr: 0x0, symBinAddr: 0x62F1C, symSize: 0x74 }
  - { offset: 0xBEA25, size: 0x8, addend: 0x0, symName: '__ZN84_$LT$orion_sdr..modulate..pm..PmDirectPhaseMod$u20$as$u20$orion_sdr..core..Block$GT$7process17hbbfa4ca8a8a63ad4E', symObjAddr: 0xAC, symBinAddr: 0x62FC8, symSize: 0x188 }
  - { offset: 0xBEB92, size: 0x8, addend: 0x0, symName: __ZN9orion_sdr8modulate2pm16PmDirectPhaseMod3new17h77ea2b166b47c274E, symObjAddr: 0x0, symBinAddr: 0x62F1C, symSize: 0x74 }
  - { offset: 0xBEBDD, size: 0x8, addend: 0x0, symName: __ZN9orion_sdr8modulate2pm16PmDirectPhaseMod8set_gain17h00da95fab1245874E, symObjAddr: 0x74, symBinAddr: 0x62F90, symSize: 0x1C }
  - { offset: 0xBEC0D, size: 0x8, addend: 0x0, symName: __ZN9orion_sdr8modulate2pm16PmDirectPhaseMod15set_sensitivity17hf5ff1d6ff2a9b6a2E, symObjAddr: 0x90, symBinAddr: 0x62FAC, symSize: 0x1C }
  - { offset: 0xBECEC, size: 0x8, addend: 0x0, symName: __ZN4core5slice4sort8unstable8heapsort8heapsort17hd6c876ad882c35b9E, symObjAddr: 0x0, symBinAddr: 0x63150, symSize: 0x2EC }
  - { offset: 0xBF2D9, size: 0x8, addend: 0x0, symName: __ZN4core5slice4sort8unstable8heapsort8heapsort17hd6c876ad882c35b9E, symObjAddr: 0x0, symBinAddr: 0x63150, symSize: 0x2EC }
  - { offset: 0xBF705, size: 0x8, addend: 0x0, symName: __ZN4core5slice4sort8unstable8heapsort8heapsort17hf04a66296edd7e31E, symObjAddr: 0x2EC, symBinAddr: 0x6343C, symSize: 0x318 }
  - { offset: 0xBFEEC, size: 0x8, addend: 0x0, symName: '__ZN4core3str21_$LT$impl$u20$str$GT$11starts_with17h16a1bcfffb865cd2E', symObjAddr: 0x0, symBinAddr: 0x63754, symSize: 0x44 }
  - { offset: 0xBFF53, size: 0x8, addend: 0x0, symName: '__ZN4core3str21_$LT$impl$u20$str$GT$11starts_with17h16a1bcfffb865cd2E', symObjAddr: 0x0, symBinAddr: 0x63754, symSize: 0x44 }
  - { offset: 0xBFF99, size: 0x8, addend: 0x0, symName: '__ZN4core3str21_$LT$impl$u20$str$GT$11starts_with17h96e61a2116503e2fE', symObjAddr: 0x44, symBinAddr: 0x63798, symSize: 0x4C }
  - { offset: 0xC0013, size: 0x8, addend: 0x0, symName: '__ZN4core3str21_$LT$impl$u20$str$GT$12trim_matches17h73c70783dd7c623aE', symObjAddr: 0x90, symBinAddr: 0x637E4, symSize: 0x144 }
  - { offset: 0xC01E3, size: 0x8, addend: 0x0, symName: '__ZN4core3str21_$LT$impl$u20$str$GT$16trim_end_matches17h20e1c2c9238527b6E', symObjAddr: 0x1D4, symBinAddr: 0x63928, symSize: 0xF0 }
  - { offset: 0xC0317, size: 0x8, addend: 0x0, symName: '__ZN4core3str21_$LT$impl$u20$str$GT$5parse17h11f6a8a0165d8c75E', symObjAddr: 0x2C4, symBinAddr: 0x63A18, symSize: 0x38 }
  - { offset: 0xC034E, size: 0x8, addend: 0x0, symName: '__ZN4core3str21_$LT$impl$u20$str$GT$5parse17h86258adce8d5e85bE', symObjAddr: 0x2FC, symBinAddr: 0x63A50, symSize: 0x2C }
  - { offset: 0xC0385, size: 0x8, addend: 0x0, symName: '__ZN4core3str21_$LT$impl$u20$str$GT$9ends_with17h56939b8408a7a05fE', symObjAddr: 0x328, symBinAddr: 0x63A7C, symSize: 0x4C }
  - { offset: 0xC03CB, size: 0x8, addend: 0x0, symName: '__ZN4core3str21_$LT$impl$u20$str$GT$9ends_with17h6ecd7bc0d62faf75E', symObjAddr: 0x374, symBinAddr: 0x63AC8, symSize: 0x44 }
  - { offset: 0xC07D4, size: 0x8, addend: 0x0, symName: __ZN4core5alloc6layout6Layout25from_size_align_unchecked18precondition_check17h6a71e100b0020bbfE, symObjAddr: 0x0, symBinAddr: 0x63B0C, symSize: 0xBC }
  - { offset: 0xC0B00, size: 0x8, addend: 0x0, symName: __ZN4core5alloc6layout6Layout25from_size_align_unchecked18precondition_check17h6a71e100b0020bbfE, symObjAddr: 0x0, symBinAddr: 0x63B0C, symSize: 0xBC }
  - { offset: 0xC0D10, size: 0x8, addend: 0x0, symName: '__ZN71_$LT$std..hash..random..DefaultHasher$u20$as$u20$core..hash..Hasher$GT$5write17h5f29098699a59c61E', symObjAddr: 0x0, symBinAddr: 0x63BC8, symSize: 0x38 }
  - { offset: 0xC0EE2, size: 0x8, addend: 0x0, symName: '__ZN71_$LT$std..hash..random..DefaultHasher$u20$as$u20$core..hash..Hasher$GT$5write17h5f29098699a59c61E', symObjAddr: 0x0, symBinAddr: 0x63BC8, symSize: 0x38 }
  - { offset: 0xC0F3D, size: 0x8, addend: 0x0, symName: '__ZN71_$LT$std..hash..random..DefaultHasher$u20$as$u20$core..hash..Hasher$GT$6finish17h54381dbf8f1c57deE', symObjAddr: 0x38, symBinAddr: 0x63C00, symSize: 0x2C }
  - { offset: 0xC0F8C, size: 0x8, addend: 0x0, symName: '__ZN74_$LT$std..hash..random..RandomState$u20$as$u20$core..hash..BuildHasher$GT$12build_hasher17ha5787b9f1e5d7f9cE', symObjAddr: 0x64, symBinAddr: 0x63C2C, symSize: 0xCC }
  - { offset: 0xC10F6, size: 0x8, addend: 0x0, symName: __ZN4core3cmp3Ord3max17h0deb3274061a311bE, symObjAddr: 0x0, symBinAddr: 0x63CF8, symSize: 0x80 }
  - { offset: 0xC116A, size: 0x8, addend: 0x0, symName: __ZN4core3cmp3Ord3max17h0deb3274061a311bE, symObjAddr: 0x0, symBinAddr: 0x63CF8, symSize: 0x80 }
  - { offset: 0xC11D7, size: 0x8, addend: 0x0, symName: __ZN4core3cmp6min_by17h4ba0eef7b0ce51faE, symObjAddr: 0x80, symBinAddr: 0x63D78, symSize: 0xD8 }
  - { offset: 0xC1253, size: 0x8, addend: 0x0, symName: __ZN4core3cmp6min_by17ha11f87387c9073f7E, symObjAddr: 0x158, symBinAddr: 0x63E50, symSize: 0xBC }
  - { offset: 0xC12CF, size: 0x8, addend: 0x0, symName: __ZN4core3cmp6min_by17hc9f2a40cc71f0323E, symObjAddr: 0x214, symBinAddr: 0x63F0C, symSize: 0xD8 }
  - { offset: 0xC164A, size: 0x8, addend: 0x0, symName: __ZN9orion_sdr4sync8ft4_sync8ft4_sync17hc2af6690f07c738bE, symObjAddr: 0x0, symBinAddr: 0x63FE4, symSize: 0x4C4 }
  - { offset: 0xC1666, size: 0x8, addend: 0x0, symName: __ZN9orion_sdr4sync8ft4_sync8ft4_sync17hc2af6690f07c738bE, symObjAddr: 0x0, symBinAddr: 0x63FE4, symSize: 0x4C4 }
  - { offset: 0xC1847, size: 0x8, addend: 0x0, symName: __ZN9orion_sdr4sync8ft4_sync19find_ft4_candidates17h0c0616da49d85314E, symObjAddr: 0x4C4, symBinAddr: 0x644A8, symSize: 0x3E8 }
  - { offset: 0xC194E, size: 0x8, addend: 0x0, symName: __ZN9orion_sdr4sync8ft4_sync16ft4_costas_score17h052f8241bc6a8618E, symObjAddr: 0x8AC, symBinAddr: 0x64890, symSize: 0x49C }
  - { offset: 0xC1B2F, size: 0x8, addend: 0x0, symName: __ZN9orion_sdr4sync8ft4_sync15extract_ft4_llr17h2442e2f09acf826bE, symObjAddr: 0xD48, symBinAddr: 0x64D2C, symSize: 0x600 }
  - { offset: 0xC1C98, size: 0x8, addend: 0x0, symName: __ZN9orion_sdr4sync8ft4_sync13normalise_llr17h519b8d71141a213bE, symObjAddr: 0x1348, symBinAddr: 0x6532C, symSize: 0xF0 }
  - { offset: 0xC240C, size: 0x8, addend: 0x0, symName: __ZN4core4char7convert18from_u32_unchecked18precondition_check17h7cc2a011919980e4E, symObjAddr: 0x0, symBinAddr: 0x6541C, symSize: 0x104 }
  - { offset: 0xC24C0, size: 0x8, addend: 0x0, symName: __ZN4core4char7convert18from_u32_unchecked18precondition_check17h7cc2a011919980e4E, symObjAddr: 0x0, symBinAddr: 0x6541C, symSize: 0x104 }
  - { offset: 0xC258E, size: 0x8, addend: 0x0, symName: __ZN4core4char7convert8from_u3217h7f6a753d62a251d2E, symObjAddr: 0x104, symBinAddr: 0x65520, symSize: 0x68 }
  - { offset: 0xC2C0B, size: 0x8, addend: 0x0, symName: __ZN4pyo35impl_9pymethods11tp_new_impl17h0175182c73c0e641E, symObjAddr: 0x0, symBinAddr: 0x65588, symSize: 0xC8 }
  - { offset: 0xC2D5E, size: 0x8, addend: 0x0, symName: '__ZN50_$LT$T$u20$as$u20$core..convert..Into$LT$U$GT$$GT$4into17hb6567a11805d4372E', symObjAddr: 0x1728, symBinAddr: 0x66CB0, symSize: 0x24 }
  - { offset: 0xC3382, size: 0x8, addend: 0x0, symName: __ZN4pyo35impl_9pymethods11tp_new_impl17h0175182c73c0e641E, symObjAddr: 0x0, symBinAddr: 0x65588, symSize: 0xC8 }
  - { offset: 0xC3402, size: 0x8, addend: 0x0, symName: __ZN4pyo35impl_9pymethods11tp_new_impl17h021ed00274d14774E, symObjAddr: 0xC8, symBinAddr: 0x65650, symSize: 0xC8 }
  - { offset: 0xC3482, size: 0x8, addend: 0x0, symName: __ZN4pyo35impl_9pymethods11tp_new_impl17h0629860f5715ccc4E, symObjAddr: 0x190, symBinAddr: 0x65718, symSize: 0xC0 }
  - { offset: 0xC3501, size: 0x8, addend: 0x0, symName: __ZN4pyo35impl_9pymethods11tp_new_impl17h21295e1e40d2f663E, symObjAddr: 0x250, symBinAddr: 0x657D8, symSize: 0xD4 }
  - { offset: 0xC3581, size: 0x8, addend: 0x0, symName: __ZN4pyo35impl_9pymethods11tp_new_impl17h2f84c45396b9350cE, symObjAddr: 0x324, symBinAddr: 0x658AC, symSize: 0xD4 }
  - { offset: 0xC3601, size: 0x8, addend: 0x0, symName: __ZN4pyo35impl_9pymethods11tp_new_impl17h3a66a9227436524cE, symObjAddr: 0x3F8, symBinAddr: 0x65980, symSize: 0xA8 }
  - { offset: 0xC3680, size: 0x8, addend: 0x0, symName: __ZN4pyo35impl_9pymethods11tp_new_impl17h4312f8503b82f8b3E, symObjAddr: 0x4A0, symBinAddr: 0x65A28, symSize: 0xD4 }
  - { offset: 0xC3700, size: 0x8, addend: 0x0, symName: __ZN4pyo35impl_9pymethods11tp_new_impl17h47c45c231eda3d2aE, symObjAddr: 0x574, symBinAddr: 0x65AFC, symSize: 0xC8 }
  - { offset: 0xC3780, size: 0x8, addend: 0x0, symName: __ZN4pyo35impl_9pymethods11tp_new_impl17h47c5c5875ff8f44dE, symObjAddr: 0x63C, symBinAddr: 0x65BC4, symSize: 0xDC }
  - { offset: 0xC3800, size: 0x8, addend: 0x0, symName: __ZN4pyo35impl_9pymethods11tp_new_impl17h48aefeac0dde34b4E, symObjAddr: 0x718, symBinAddr: 0x65CA0, symSize: 0xB4 }
  - { offset: 0xC3880, size: 0x8, addend: 0x0, symName: __ZN4pyo35impl_9pymethods11tp_new_impl17h4fd25864dfcf3536E, symObjAddr: 0x7CC, symBinAddr: 0x65D54, symSize: 0xB4 }
  - { offset: 0xC3900, size: 0x8, addend: 0x0, symName: __ZN4pyo35impl_9pymethods11tp_new_impl17h680a04889113b91eE, symObjAddr: 0x880, symBinAddr: 0x65E08, symSize: 0xD4 }
  - { offset: 0xC3980, size: 0x8, addend: 0x0, symName: __ZN4pyo35impl_9pymethods11tp_new_impl17h72c5e10237dfb5a7E, symObjAddr: 0x954, symBinAddr: 0x65EDC, symSize: 0xD0 }
  - { offset: 0xC3A00, size: 0x8, addend: 0x0, symName: __ZN4pyo35impl_9pymethods11tp_new_impl17h73f037d2670d95d4E, symObjAddr: 0xA24, symBinAddr: 0x65FAC, symSize: 0xBC }
  - { offset: 0xC3A80, size: 0x8, addend: 0x0, symName: __ZN4pyo35impl_9pymethods11tp_new_impl17h7f621f35a95e8bdbE, symObjAddr: 0xAE0, symBinAddr: 0x66068, symSize: 0xD0 }
  - { offset: 0xC3B00, size: 0x8, addend: 0x0, symName: __ZN4pyo35impl_9pymethods11tp_new_impl17h82a9e4d1238eb49fE, symObjAddr: 0xBB0, symBinAddr: 0x66138, symSize: 0xB4 }
  - { offset: 0xC3B7F, size: 0x8, addend: 0x0, symName: __ZN4pyo35impl_9pymethods11tp_new_impl17h91dff2fceaa7ec6dE, symObjAddr: 0xC64, symBinAddr: 0x661EC, symSize: 0xB4 }
  - { offset: 0xC3BFE, size: 0x8, addend: 0x0, symName: __ZN4pyo35impl_9pymethods11tp_new_impl17ha1baec3531a2ae63E, symObjAddr: 0xD18, symBinAddr: 0x662A0, symSize: 0xC8 }
  - { offset: 0xC3C7E, size: 0x8, addend: 0x0, symName: __ZN4pyo35impl_9pymethods11tp_new_impl17ha5f28da3e04996d6E, symObjAddr: 0xDE0, symBinAddr: 0x66368, symSize: 0xA8 }
  - { offset: 0xC3CFD, size: 0x8, addend: 0x0, symName: __ZN4pyo35impl_9pymethods11tp_new_impl17hb5070a922cffef03E, symObjAddr: 0xE88, symBinAddr: 0x66410, symSize: 0xC0 }
  - { offset: 0xC3D7C, size: 0x8, addend: 0x0, symName: __ZN4pyo35impl_9pymethods11tp_new_impl17hbd21ef912d10a9a8E, symObjAddr: 0xF48, symBinAddr: 0x664D0, symSize: 0xD4 }
  - { offset: 0xC3DFC, size: 0x8, addend: 0x0, symName: __ZN4pyo35impl_9pymethods11tp_new_impl17hbd3ddc121ef2c2a8E, symObjAddr: 0x101C, symBinAddr: 0x665A4, symSize: 0xA8 }
  - { offset: 0xC3E7B, size: 0x8, addend: 0x0, symName: __ZN4pyo35impl_9pymethods11tp_new_impl17hd87f23bf8b2afe7aE, symObjAddr: 0x10C4, symBinAddr: 0x6664C, symSize: 0xDC }
  - { offset: 0xC3EFB, size: 0x8, addend: 0x0, symName: __ZN4pyo35impl_9pymethods11tp_new_impl17he032dd50bc4ab3aaE, symObjAddr: 0x11A0, symBinAddr: 0x66728, symSize: 0xBC }
  - { offset: 0xC3F7B, size: 0x8, addend: 0x0, symName: __ZN4pyo35impl_9pymethods11tp_new_impl17he15425980be77844E, symObjAddr: 0x125C, symBinAddr: 0x667E4, symSize: 0xDC }
  - { offset: 0xC3FFB, size: 0x8, addend: 0x0, symName: __ZN4pyo35impl_9pymethods11tp_new_impl17heea6ad7a41c221ffE, symObjAddr: 0x1338, symBinAddr: 0x668C0, symSize: 0xC8 }
  - { offset: 0xC407B, size: 0x8, addend: 0x0, symName: __ZN4pyo35impl_9pymethods11tp_new_impl17hf066ef1fcdfe2e62E, symObjAddr: 0x1400, symBinAddr: 0x66988, symSize: 0xC8 }
  - { offset: 0xC40FB, size: 0x8, addend: 0x0, symName: __ZN4pyo35impl_9pymethods11tp_new_impl17hf241166ec2772e03E, symObjAddr: 0x14C8, symBinAddr: 0x66A50, symSize: 0xBC }
  - { offset: 0xC417B, size: 0x8, addend: 0x0, symName: __ZN4pyo35impl_9pymethods11tp_new_impl17hf3e7a48d2ff948f9E, symObjAddr: 0x1584, symBinAddr: 0x66B0C, symSize: 0xDC }
  - { offset: 0xC41FB, size: 0x8, addend: 0x0, symName: __ZN4pyo35impl_9pymethods11tp_new_impl17hf83ca6a3410b4c65E, symObjAddr: 0x1660, symBinAddr: 0x66BE8, symSize: 0xC8 }
  - { offset: 0xC573B, size: 0x8, addend: 0x0, symName: '__ZN4core3str6traits108_$LT$impl$u20$core..slice..index..SliceIndex$LT$str$GT$$u20$for$u20$core..ops..range..Range$LT$usize$GT$$GT$13get_unchecked18precondition_check17he0b0f457231ba8e6E', symObjAddr: 0x0, symBinAddr: 0x66CD4, symSize: 0xCC }
  - { offset: 0xC5A67, size: 0x8, addend: 0x0, symName: '__ZN4core3str6traits108_$LT$impl$u20$core..slice..index..SliceIndex$LT$str$GT$$u20$for$u20$core..ops..range..Range$LT$usize$GT$$GT$13get_unchecked18precondition_check17he0b0f457231ba8e6E', symObjAddr: 0x0, symBinAddr: 0x66CD4, symSize: 0xCC }
  - { offset: 0xC5AE4, size: 0x8, addend: 0x0, symName: '__ZN4core3str6traits54_$LT$impl$u20$core..cmp..PartialEq$u20$for$u20$str$GT$2eq17h5557b08e241a0143E', symObjAddr: 0xCC, symBinAddr: 0x66DA0, symSize: 0x64 }
  - { offset: 0xC5E39, size: 0x8, addend: 0x0, symName: '__ZN118_$LT$$u5b$core..mem..maybe_uninit..MaybeUninit$LT$T$GT$$u5d$$u20$as$u20$core..array..iter..iter_inner..PartialDrop$GT$12partial_drop17h05bfd1ec3f5f34a3E', symObjAddr: 0x0, symBinAddr: 0x66E04, symSize: 0xAC }
  - { offset: 0xC610A, size: 0x8, addend: 0x0, symName: '__ZN118_$LT$$u5b$core..mem..maybe_uninit..MaybeUninit$LT$T$GT$$u5d$$u20$as$u20$core..array..iter..iter_inner..PartialDrop$GT$12partial_drop17h05bfd1ec3f5f34a3E', symObjAddr: 0x0, symBinAddr: 0x66E04, symSize: 0xAC }
  - { offset: 0xC6216, size: 0x8, addend: 0x0, symName: '__ZN118_$LT$$u5b$core..mem..maybe_uninit..MaybeUninit$LT$T$GT$$u5d$$u20$as$u20$core..array..iter..iter_inner..PartialDrop$GT$12partial_drop17h5f69eb8cbf17d64cE', symObjAddr: 0xAC, symBinAddr: 0x66EB0, symSize: 0xAC }
  - { offset: 0xC6328, size: 0x8, addend: 0x0, symName: '__ZN129_$LT$$u5b$core..mem..maybe_uninit..MaybeUninit$LT$T$GT$$u3b$$u20$N$u5d$$u20$as$u20$core..array..iter..iter_inner..PartialDrop$GT$12partial_drop17h2075b05b8a35d4adE', symObjAddr: 0x158, symBinAddr: 0x66F5C, symSize: 0x4C }
  - { offset: 0xC6384, size: 0x8, addend: 0x0, symName: '__ZN129_$LT$$u5b$core..mem..maybe_uninit..MaybeUninit$LT$T$GT$$u3b$$u20$N$u5d$$u20$as$u20$core..array..iter..iter_inner..PartialDrop$GT$12partial_drop17hf073644c76f3f512E', symObjAddr: 0x1A4, symBinAddr: 0x66FA8, symSize: 0x4C }
  - { offset: 0xC6532, size: 0x8, addend: 0x0, symName: __ZN5numpy7convert9ToNpyDims11as_dims_ptr17h71e797864ac8863eE, symObjAddr: 0x0, symBinAddr: 0x66FF4, symSize: 0x30 }
  - { offset: 0xC654E, size: 0x8, addend: 0x0, symName: __ZN5numpy7convert9ToNpyDims11as_dims_ptr17h71e797864ac8863eE, symObjAddr: 0x0, symBinAddr: 0x66FF4, symSize: 0x30 }
  - { offset: 0xC6585, size: 0x8, addend: 0x0, symName: __ZN5numpy7convert9ToNpyDims9ndim_cint17h0a019e234c59bc83E, symObjAddr: 0x30, symBinAddr: 0x67024, symSize: 0x24 }
  - { offset: 0xC660A, size: 0x8, addend: 0x0, symName: __ZN7ndarray9dimension3dim3Dim17h61620f4660446102E, symObjAddr: 0x78, symBinAddr: 0x6706C, symSize: 0x74 }
  - { offset: 0xC66A2, size: 0x8, addend: 0x0, symName: '__ZN7ndarray9dimension3dim12Dim$LT$I$GT$3new17h6122da792728f3a5E', symObjAddr: 0x54, symBinAddr: 0x67048, symSize: 0x24 }
  - { offset: 0xC6720, size: 0x8, addend: 0x0, symName: __ZN4core5slice4sort6stable9quicksort16stable_partition17h02a5129221efa8d4E, symObjAddr: 0x0, symBinAddr: 0x670E0, symSize: 0x56C }
  - { offset: 0xC892D, size: 0x8, addend: 0x0, symName: __ZN4core5slice4sort6stable9quicksort16stable_partition17h02a5129221efa8d4E, symObjAddr: 0x0, symBinAddr: 0x670E0, symSize: 0x56C }
  - { offset: 0xC8DAB, size: 0x8, addend: 0x0, symName: __ZN4core5slice4sort6stable9quicksort16stable_partition17h09f34cf2e562a553E, symObjAddr: 0x56C, symBinAddr: 0x6764C, symSize: 0x56C }
  - { offset: 0xC9229, size: 0x8, addend: 0x0, symName: __ZN4core5slice4sort6stable9quicksort16stable_partition17h0d5043646c142997E, symObjAddr: 0xAD8, symBinAddr: 0x67BB8, symSize: 0x56C }
  - { offset: 0xC96A7, size: 0x8, addend: 0x0, symName: __ZN4core5slice4sort6stable9quicksort16stable_partition17h2c0dca13d36352f3E, symObjAddr: 0x1044, symBinAddr: 0x68124, symSize: 0x56C }
  - { offset: 0xC9B25, size: 0x8, addend: 0x0, symName: __ZN4core5slice4sort6stable9quicksort16stable_partition17h386731052f90c58cE, symObjAddr: 0x15B0, symBinAddr: 0x68690, symSize: 0x56C }
  - { offset: 0xC9FA3, size: 0x8, addend: 0x0, symName: __ZN4core5slice4sort6stable9quicksort16stable_partition17h558010efc0bd333dE, symObjAddr: 0x1B1C, symBinAddr: 0x68BFC, symSize: 0x56C }
  - { offset: 0xCA421, size: 0x8, addend: 0x0, symName: __ZN4core5slice4sort6stable9quicksort16stable_partition17h8b73da4360502873E, symObjAddr: 0x2088, symBinAddr: 0x69168, symSize: 0x56C }
  - { offset: 0xCA89F, size: 0x8, addend: 0x0, symName: __ZN4core5slice4sort6stable9quicksort16stable_partition17h996e3e9a6182e3a9E, symObjAddr: 0x25F4, symBinAddr: 0x696D4, symSize: 0x56C }
  - { offset: 0xCAD1D, size: 0x8, addend: 0x0, symName: __ZN4core5slice4sort6stable9quicksort16stable_partition17hc5dc73b9977998b7E, symObjAddr: 0x2B60, symBinAddr: 0x69C40, symSize: 0x56C }
  - { offset: 0xCB19B, size: 0x8, addend: 0x0, symName: __ZN4core5slice4sort6stable9quicksort16stable_partition17hce9d397e9f0c590aE, symObjAddr: 0x30CC, symBinAddr: 0x6A1AC, symSize: 0x56C }
  - { offset: 0xCB619, size: 0x8, addend: 0x0, symName: __ZN4core5slice4sort6stable9quicksort16stable_partition17hd251939a1bdb1c06E, symObjAddr: 0x3638, symBinAddr: 0x6A718, symSize: 0x56C }
  - { offset: 0xCBA97, size: 0x8, addend: 0x0, symName: __ZN4core5slice4sort6stable9quicksort16stable_partition17hf3e6eb04c2c4735eE, symObjAddr: 0x3BA4, symBinAddr: 0x6AC84, symSize: 0x56C }
  - { offset: 0xCBF15, size: 0x8, addend: 0x0, symName: __ZN4core5slice4sort6stable9quicksort9quicksort17h4d2ac92c5d17572fE, symObjAddr: 0x4254, symBinAddr: 0x6B334, symSize: 0x3AC }
  - { offset: 0xCC1C2, size: 0x8, addend: 0x0, symName: __ZN4core5slice4sort6stable9quicksort9quicksort17h89f92e25d5d36b12E, symObjAddr: 0x4600, symBinAddr: 0x6B6E0, symSize: 0x3AC }
  - { offset: 0xCC46F, size: 0x8, addend: 0x0, symName: __ZN4core5slice4sort6stable9quicksort9quicksort17h92bfc8e48fd93efbE, symObjAddr: 0x49AC, symBinAddr: 0x6BA8C, symSize: 0x3AC }
  - { offset: 0xCC71C, size: 0x8, addend: 0x0, symName: __ZN4core5slice4sort6stable9quicksort9quicksort17hb66c520952a5b22dE, symObjAddr: 0x4D58, symBinAddr: 0x6BE38, symSize: 0x3AC }
  - { offset: 0xCC9C9, size: 0x8, addend: 0x0, symName: __ZN4core5slice4sort6stable9quicksort9quicksort17hbc711384dc00e614E, symObjAddr: 0x5104, symBinAddr: 0x6C1E4, symSize: 0x3AC }
  - { offset: 0xCCC76, size: 0x8, addend: 0x0, symName: __ZN4core5slice4sort6stable9quicksort9quicksort17hf861e198f3e2c201E, symObjAddr: 0x54B0, symBinAddr: 0x6C590, symSize: 0x3AC }
  - { offset: 0xCCF0E, size: 0x8, addend: 0x0, symName: '__ZN4core5slice4sort6stable9quicksort9quicksort28_$u7b$$u7b$closure$u7d$$u7d$17h2cb89f4d83490b0cE', symObjAddr: 0x585C, symBinAddr: 0x6C93C, symSize: 0x48 }
  - { offset: 0xCCF6B, size: 0x8, addend: 0x0, symName: '__ZN4core5slice4sort6stable9quicksort9quicksort28_$u7b$$u7b$closure$u7d$$u7d$17h31c46e74e437ddadE', symObjAddr: 0x58A4, symBinAddr: 0x6C984, symSize: 0x48 }
  - { offset: 0xCCFC8, size: 0x8, addend: 0x0, symName: '__ZN4core5slice4sort6stable9quicksort9quicksort28_$u7b$$u7b$closure$u7d$$u7d$17h7467b17877218dfeE', symObjAddr: 0x58EC, symBinAddr: 0x6C9CC, symSize: 0x48 }
  - { offset: 0xCD025, size: 0x8, addend: 0x0, symName: '__ZN4core5slice4sort6stable9quicksort9quicksort28_$u7b$$u7b$closure$u7d$$u7d$17ha77ea4aef10b267bE', symObjAddr: 0x5934, symBinAddr: 0x6CA14, symSize: 0x48 }
  - { offset: 0xCD082, size: 0x8, addend: 0x0, symName: '__ZN4core5slice4sort6stable9quicksort9quicksort28_$u7b$$u7b$closure$u7d$$u7d$17hafc17d525c6ce6faE', symObjAddr: 0x597C, symBinAddr: 0x6CA5C, symSize: 0x48 }
  - { offset: 0xCD0DF, size: 0x8, addend: 0x0, symName: '__ZN4core5slice4sort6stable9quicksort9quicksort28_$u7b$$u7b$closure$u7d$$u7d$17hc6efc63557f578f7E', symObjAddr: 0x59C4, symBinAddr: 0x6CAA4, symSize: 0x48 }
  - { offset: 0xCE0A7, size: 0x8, addend: 0x0, symName: '__ZN4core5slice4sort6stable9quicksort23PartitionState$LT$T$GT$13partition_one17h9068aa50d24979fbE', symObjAddr: 0x4110, symBinAddr: 0x6B1F0, symSize: 0x144 }
  - { offset: 0xCE5CE, size: 0x8, addend: 0x0, symName: __ZN9orion_sdr8modulate5psk319psk31_sps17hf6bc57a7d20d81caE, symObjAddr: 0x0, symBinAddr: 0x6CAEC, symSize: 0x30 }
  - { offset: 0xCE5EA, size: 0x8, addend: 0x0, symName: __ZN9orion_sdr8modulate5psk319psk31_sps17hf6bc57a7d20d81caE, symObjAddr: 0x0, symBinAddr: 0x6CAEC, symSize: 0x30 }
  - { offset: 0xCE616, size: 0x8, addend: 0x0, symName: __ZN9orion_sdr8modulate5psk319make_hann17hdbebd0e4a7ab1d84E, symObjAddr: 0x30, symBinAddr: 0x6CB1C, symSize: 0x11C }
